ELF Header:
  Magic:   7f 45 4c 46 01 01 01 00 00 00 00 00 00 00 00 00 
  Class:                             ELF32
  Data:                              2's complement, little endian
  Version:                           1 (current)
  OS/ABI:                            UNIX - System V
  ABI Version:                       0
  Type:                              EXEC (Executable file)
  Machine:                           RISC-V
  Version:                           0x1
  Entry point address:               0x80200000
  Start of program headers:          52 (bytes into file)
  Start of section headers:          3569772 (bytes into file)
  Flags:                             0x0
  Size of this header:               52 (bytes)
  Size of program headers:           32 (bytes)
  Number of program headers:         6
  Size of section headers:           40 (bytes)
  Number of section headers:         909
  Section header string table index: 907

Section Headers:
  [Nr] Name              Type            Addr     Off    Size   ES Flg Lk Inf Al
  [ 0]                   NULL            00000000 000000 000000 00      0   0  0
  [ 1] .text.boot        PROGBITS        80200000 001000 000014 00  AX  0   0  1
  [ 2] .text             PROGBITS        80200014 001014 000000 00   A  0   0  1
  [ 3] .trampsec         PROGBITS        80201000 002000 001000 00  AX  0   0 4096
  [ 4] .text._RNvMNtCsg1amJnYx2jd_4main6kernelNtB2_6Kernel8initproc PROGBITS        80202000 003000 0001f8 00  AX  0   0  4
  [ 5] .text._RNvMNtCsg1amJnYx2jd_4main6kernelNtB2_6Kernel9allocproc PROGBITS        802021f8 0031f8 0002a0 00  AX  0   0  4
  [ 6] .text._RNvXs_NtCsg1amJnYx2jd_4main6kernelNtB4_6KernelNtNtCsakCY22H5bhg_4core7default7Default7defaultB6_ PROGBITS        80202498 003498 000084 00  AX  0   0  4
  [ 7] .text._RNvMNtCsevzKAMQQtOE_5alloc5allocNtB2_6Global10alloc_implCsg1amJnYx2jd_4main PROGBITS        8020251c 00351c 000044 00  AX  0   0  4
  [ 8] .text._RNvMNtCsevzKAMQQtOE_5alloc5allocNtB2_6Global18alloc_impl_runtimeCsg1amJnYx2jd_4main PROGBITS        80202560 003560 00011c 00  AX  0   0  4
  [ 9] .text._RNvNtCsevzKAMQQtOE_5alloc5alloc12alloc_zeroedCsg1amJnYx2jd_4main PROGBITS        8020267c 00367c 000058 00  AX  0   0  4
  [10] .text._RNvNtCsevzKAMQQtOE_5alloc5alloc5allocCsg1amJnYx2jd_4main PROGBITS        802026d4 0036d4 000058 00  AX  0   0  4
  [11] .text._RNvXs_NtCsevzKAMQQtOE_5alloc5allocNtB4_6GlobalNtNtCsakCY22H5bhg_4core5alloc9Allocator8allocateCsg1amJnYx2jd_4main PROGBITS        8020272c 00372c 00002c 00  AX  0   0  4
  [12] .text._RINvYINtNtNtCsakCY22H5bhg_4core5slice4iter4IterhENtNtNtNtBa_4iter6traits8iterator8Iterator6copiedhECsg1amJnYx2jd_4main PROGBITS        80202758 003758 000024 00  AX  0   0  4
  [13] .text._RNvMsa_NtNtCsakCY22H5bhg_4core5slice4iterINtB5_7IterMutNtNtCsg1amJnYx2jd_4main7process7ProcessE3newBV_ PROGBITS        8020277c 00377c 0000ac 00  AX  0   0  4
  [14] .text._RNvXNtNtNtCsakCY22H5bhg_4core4iter6traits7collectINtNtNtB8_5slice4iter7IterMutNtNtCsg1amJnYx2jd_4main7process7ProcessENtB2_12IntoIterator9into_iterB1i_ PROGBITS        80202828 003828 000014 00  AX  0   0  4
  [15] .text._RNvXs2R_NtNtCsakCY22H5bhg_4core5slice4iterINtB6_7IterMutNtNtCsg1amJnYx2jd_4main7process7ProcessENtNtNtNtBa_4iter6traits8iterator8Iterator4nextBW_ PROGBITS        8020283c 00383c 0000a8 00  AX  0   0  4
  [16] .text._RNvMs2_NtNtCsakCY22H5bhg_4core4sync6atomicINtB5_6AtomicbE16compare_exchangeCsg1amJnYx2jd_4main PROGBITS        802028e4 0038e4 000250 00  AX  0   0  4
  [17] .text._RNvMs2_NtNtCsakCY22H5bhg_4core4sync6atomicINtB5_6AtomicbE21compare_exchange_weakCsg1amJnYx2jd_4main PROGBITS        80202b34 003b34 000030 00  AX  0   0  4
  [18] .text._RNvMs2_NtNtCsakCY22H5bhg_4core4sync6atomicINtB5_6AtomicbE4loadCsg1amJnYx2jd_4main PROGBITS        80202b64 003b64 000034 00  AX  0   0  4
  [19] .text._RNvMs2_NtNtCsakCY22H5bhg_4core4sync6atomicINtB5_6AtomicbE4swapCsg1amJnYx2jd_4main PROGBITS        80202b98 003b98 000078 00  AX  0   0  4
  [20] .text._RNvMs2_NtNtCsakCY22H5bhg_4core4sync6atomicINtB5_6AtomicbE5storeCsg1amJnYx2jd_4main PROGBITS        80202c10 003c10 000030 00  AX  0   0  4
  [21] .text._RNvMs2_NtNtCsakCY22H5bhg_4core4sync6atomicINtB5_6AtomicbE8fetch_orCsg1amJnYx2jd_4main PROGBITS        80202c40 003c40 000038 00  AX  0   0  4
  [22] .text._RNvMs2_NtNtCsakCY22H5bhg_4core4sync6atomicINtB5_6AtomicbE9fetch_andCsg1amJnYx2jd_4main PROGBITS        80202c78 003c78 000038 00  AX  0   0  4
  [23] .text._RNvNtNtCsakCY22H5bhg_4core4sync6atomic14spin_loop_hintCsg1amJnYx2jd_4main PROGBITS        80202cb0 003cb0 00001c 00  AX  0   0  4
  [24] .text._RINvMs1_NtNtCsakCY22H5bhg_4core3ptr8non_nullINtB6_7NonNullRNtNtNtBa_5panic10panic_info9PanicInfoE4castuECsg1amJnYx2jd_4main PROGBITS        80202ccc 003ccc 000014 00  AX  0   0  4
  [25] .text._RINvMs1_NtNtCsakCY22H5bhg_4core3ptr8non_nullINtB6_7NonNullSNtNtCsg1amJnYx2jd_4main7process7ProcessE4castBV_EBZ_ PROGBITS        80202ce0 003ce0 00001c 00  AX  0   0  4
  [26] .text._RINvMs1_NtNtCsakCY22H5bhg_4core3ptr8non_nullINtB6_7NonNullhE4castNtNtCsg1amJnYx2jd_4main7process7ProcessEB15_ PROGBITS        80202cfc 003cfc 000014 00  AX  0   0  4
  [27] .text._RINvMs1_NtNtCsakCY22H5bhg_4core3ptr8non_nullINtB6_7NonNulllE4castuECsg1amJnYx2jd_4main PROGBITS        80202d10 003d10 000014 00  AX  0   0  4
  [28] .text._RNvMs1_NtNtCsakCY22H5bhg_4core3ptr8non_nullINtB5_7NonNullRNtNtNtB9_5panic10panic_info9PanicInfoE8from_refCsg1amJnYx2jd_4main PROGBITS        80202d24 003d24 000010 00  AX  0   0  4
  [29] .text._RNvMs1_NtNtCsakCY22H5bhg_4core3ptr8non_nullINtB5_7NonNullSNtNtCsg1amJnYx2jd_4main7process7ProcessE8from_mutBY_ PROGBITS        80202d34 003d34 000014 00  AX  0   0  4
  [30] .text._RNvMs1_NtNtCsakCY22H5bhg_4core3ptr8non_nullINtB5_7NonNulllE8from_refCsg1amJnYx2jd_4main PROGBITS        80202d48 003d48 000010 00  AX  0   0  4
  [31] .text._RNvXsd_NtNtCsakCY22H5bhg_4core3ptr8non_nullINtB5_7NonNullNtNtCsg1amJnYx2jd_4main7process7ProcessENtNtB9_3cmp9PartialEq2eqBX_ PROGBITS        80202d58 003d58 00002c 00  AX  0   0  4
  [32] .text._RNvMNtCsakCY22H5bhg_4core5sliceSNtNtCsg1amJnYx2jd_4main7process7Process8iter_mutBy_ PROGBITS        80202d84 003d84 000024 00  AX  0   0  4
  [33] .text._RNvMNtNtCsakCY22H5bhg_4core3ptr7mut_ptrONtNtCsg1amJnYx2jd_4main7process7Process7is_nullBG_ PROGBITS        80202da8 003da8 000024 00  AX  0   0  4
  [34] .text._RNvMNtNtCsakCY22H5bhg_4core3ptr9const_ptrPNtNtCsg1amJnYx2jd_4main7process7Process7is_nullBI_ PROGBITS        80202dcc 003dcc 000024 00  AX  0   0  4
  [35] .text._RNvXs4_NtNtCsakCY22H5bhg_4core3ptr7mut_ptrONtNtCsg1amJnYx2jd_4main7process7ProcessNtNtB9_7default7Default7defaultBJ_ PROGBITS        80202df0 003df0 000024 00  AX  0   0  4
  [36] .text._RNvXsH_NtNtCsakCY22H5bhg_4core4iter5rangemNtB5_4Step17forward_uncheckedCsg1amJnYx2jd_4main PROGBITS        80202e14 003e14 000064 00  AX  0   0  4
  [37] .text._RNvXsI_NtNtCsakCY22H5bhg_4core4iter5rangelNtB5_4Step17forward_uncheckedCsg1amJnYx2jd_4main PROGBITS        80202e78 003e78 000034 00  AX  0   0  4
  [38] .text._RNvXsa_NtCsj4ivliY6BXz_4spin5mutexINtB5_10MutexGuardINtCsigOxFuwXbws_22buddy_system_allocator4HeapKj20_EENtNtNtCsakCY22H5bhg_4core3ops5deref8DerefMut9deref_mutCsg1amJnYx2jd_4main PROGBITS        80202eac 003eac 000020 00  AX  0   0  4
  [39] .text._RNvNvMNtNtCsakCY22H5bhg_4core3ptr9const_ptrPp7is_null7runtimeCsg1amJnYx2jd_4main PROGBITS        80202ecc 003ecc 00001c 00  AX  0   0  4
  [40] .text._RINvMNtNtCsakCY22H5bhg_4core3mem9alignmentNtB3_9Alignment2ofNtNtCsg1amJnYx2jd_4main7process7ProcessEB10_ PROGBITS        80202ee8 003ee8 000008 00  AX  0   0  4
  [41] .text._RNvNtCsg1amJnYx2jd_4main4trap9kernelvec PROGBITS        80202ef0 003ef0 0000a0 00  AX  0   0 16
  [42] .text._RNvNtCsg1amJnYx2jd_4main4trap12interrupt_on PROGBITS        80202f90 003f90 000024 00  AX  0   0  4
  [43] .text._RNvNtCsg1amJnYx2jd_4main4trap13interrupt_off PROGBITS        80202fb4 003fb4 000024 00  AX  0   0  4
  [44] .text._RNvNtCsg1amJnYx2jd_4main4trap9init_trap PROGBITS        80202fd8 003fd8 000164 00  AX  0   0  4
  [45] .text.kerneltrap  PROGBITS        8020313c 00413c 000358 00  AX  0   0  4
  [46] .text._RNCNvXs3_CsigOxFuwXbws_22buddy_system_allocatorINtB7_10LockedHeapKj20_ENtNtNtCsakCY22H5bhg_4core5alloc6global11GlobalAlloc5alloc0Csg1amJnYx2jd_4main PROGBITS        80203494 004494 000014 00  AX  0   0  4
  [47] .text._RNvMCsigOxFuwXbws_22buddy_system_allocatorINtB2_4HeapKj20_E11add_to_heapCsg1amJnYx2jd_4main PROGBITS        802034a8 0044a8 000360 00  AX  0   0  4
  [48] .text._RNvMCsigOxFuwXbws_22buddy_system_allocatorINtB2_4HeapKj20_E4initCsg1amJnYx2jd_4main PROGBITS        80203808 004808 00005c 00  AX  0   0  4
  [49] .text._RNvMCsigOxFuwXbws_22buddy_system_allocatorINtB2_4HeapKj20_E5allocCsg1amJnYx2jd_4main PROGBITS        80203864 004864 0004dc 00  AX  0   0  4
  [50] .text._RNvMCsigOxFuwXbws_22buddy_system_allocatorINtB2_4HeapKj20_E7deallocCsg1amJnYx2jd_4main PROGBITS        80203d40 004d40 0003ac 00  AX  0   0  4
  [51] .text._RNvXs2_CsigOxFuwXbws_22buddy_system_allocatorINtB5_10LockedHeapKj20_ENtNtNtCsakCY22H5bhg_4core3ops5deref5Deref5derefCsg1amJnYx2jd_4main PROGBITS        802040ec 0050ec 000010 00  AX  0   0  4
  [52] .text._RNvXs3_CsigOxFuwXbws_22buddy_system_allocatorINtB5_10LockedHeapKj20_ENtNtNtCsakCY22H5bhg_4core5alloc6global11GlobalAlloc5allocCsg1amJnYx2jd_4main PROGBITS        802040fc 0050fc 00015c 00  AX  0   0  4
  [53] .text._RNvXs3_CsigOxFuwXbws_22buddy_system_allocatorINtB5_10LockedHeapKj20_ENtNtNtCsakCY22H5bhg_4core5alloc6global11GlobalAlloc7deallocCsg1amJnYx2jd_4main PROGBITS        80204258 005258 000150 00  AX  0   0  4
  [54] .text._RNvYINtCsigOxFuwXbws_22buddy_system_allocator10LockedHeapKj20_ENtNtNtCsakCY22H5bhg_4core5alloc6global11GlobalAlloc12alloc_zeroedCsg1amJnYx2jd_4main PROGBITS        802043a8 0053a8 0000e0 00  AX  0   0  4
  [55] .text._RNvYINtCsigOxFuwXbws_22buddy_system_allocator10LockedHeapKj20_ENtNtNtCsakCY22H5bhg_4core5alloc6global11GlobalAlloc7reallocCsg1amJnYx2jd_4main PROGBITS        80204488 005488 00013c 00  AX  0   0  4
  [56] .text._RNvMNtCsevzKAMQQtOE_5alloc3vecINtB2_3VecNtNtCsg1amJnYx2jd_4main7process7ProcessE3newBG_ PROGBITS        802045c4 0055c4 00003c 00  AX  0   0  4
  [57] .text._RNvMsF_NtCsevzKAMQQtOE_5alloc3vecINtB5_3VecNtNtCsg1amJnYx2jd_4main7process7ProcessE4pushBJ_ PROGBITS        80204600 005600 000040 00  AX  0   0  4
  [58] .text._RNvMsF_NtCsevzKAMQQtOE_5alloc3vecINtB5_3VecNtNtCsg1amJnYx2jd_4main7process7ProcessE8push_mutBJ_ PROGBITS        80204640 005640 000124 00  AX  0   0  4
  [59] .text._RNvMs_NtCsevzKAMQQtOE_5alloc3vecINtB4_3VecNtNtCsg1amJnYx2jd_4main7process7ProcessE10as_mut_ptrBI_ PROGBITS        80204764 005764 000020 00  AX  0   0  4
  [60] .text._RNvMs_NtCsevzKAMQQtOE_5alloc3vecINtB4_3VecNtNtCsg1amJnYx2jd_4main7process7ProcessE12as_mut_sliceBI_ PROGBITS        80204784 005784 00002c 00  AX  0   0  4
  [61] .text._RNvMs_NtCsevzKAMQQtOE_5alloc3vecINtB4_3VecNtNtCsg1amJnYx2jd_4main7process7ProcessE3lenBI_ PROGBITS        802047b0 0057b0 000018 00  AX  0   0  4
  [62] .text._RNvXs8_NtCsevzKAMQQtOE_5alloc3vecINtB5_3VecNtNtCsg1amJnYx2jd_4main7process7ProcessENtNtNtCsakCY22H5bhg_4core3ops5deref8DerefMut9deref_mutBJ_ PROGBITS        802047c8 0057c8 000020 00  AX  0   0  4
  [63] .text._RNvXsh_NtCsevzKAMQQtOE_5alloc3vecQINtB5_3VecNtNtCsg1amJnYx2jd_4main7process7ProcessENtNtNtNtCsakCY22H5bhg_4core4iter6traits7collect12IntoIterator9into_iterBK_ PROGBITS        802047e8 0057e8 000028 00  AX  0   0  4
  [64] .text._RNvXsp_NtCsevzKAMQQtOE_5alloc3vecINtB5_3VecNtNtCsg1amJnYx2jd_4main7process7ProcessENtNtCsakCY22H5bhg_4core7default7Default7defaultBJ_ PROGBITS        80204810 005810 00001c 00  AX  0   0  4
  [65] .text._RNCNvNtCsevzKAMQQtOE_5alloc3fmt6format0Csg1amJnYx2jd_4main PROGBITS        8020482c 00582c 00002c 00  AX  0   0  4
  [66] .text._RNvXNtNtNtCsakCY22H5bhg_4core4iter6traits7collectINtNtNtB8_3ops5range5RangelENtB2_12IntoIterator9into_iterCsg1amJnYx2jd_4main PROGBITS        80204858 005858 000014 00  AX  0   0  4
  [67] .text._RNvXNtNtNtCsakCY22H5bhg_4core4iter6traits7collectINtNtNtB8_3ops5range5RangemENtB2_12IntoIterator9into_iterCsg1amJnYx2jd_4main PROGBITS        8020486c 00586c 000014 00  AX  0   0  4
  [68] .text._RNvXs3_NtNtCsakCY22H5bhg_4core4iter5rangeINtNtNtB9_3ops5range5RangelENtB5_17RangeIteratorImpl9spec_nextCsg1amJnYx2jd_4main PROGBITS        80204880 005880 000090 00  AX  0   0  4
  [69] .text._RNvXs3_NtNtCsakCY22H5bhg_4core4iter5rangeINtNtNtB9_3ops5range5RangemENtB5_17RangeIteratorImpl9spec_nextCsg1amJnYx2jd_4main PROGBITS        80204910 005910 000090 00  AX  0   0  4
  [70] .text._RNvXs4_NtNtCsakCY22H5bhg_4core4iter5rangeINtNtNtB9_3ops5range5RangelENtNtNtB7_6traits8iterator8Iterator4nextCsg1amJnYx2jd_4main PROGBITS        802049a0 0059a0 000020 00  AX  0   0  4
  [71] .text._RNvXs4_NtNtCsakCY22H5bhg_4core4iter5rangeINtNtNtB9_3ops5range5RangemENtNtNtB7_6traits8iterator8Iterator4nextCsg1amJnYx2jd_4main PROGBITS        802049c0 0059c0 000020 00  AX  0   0  4
  [72] .text._RNvXNtNtNtCsakCY22H5bhg_4core4iter6traits7collectNtNtNtB8_3str4iter5BytesNtB2_12IntoIterator9into_iterCsg1amJnYx2jd_4main PROGBITS        802049e0 0059e0 000014 00  AX  0   0  4
  [73] .text._RINvMNtCsakCY22H5bhg_4core6optionINtB3_6OptionINtNtNtB5_3ptr8non_null7NonNullhEE6map_orOhNCNvXs3_CsigOxFuwXbws_22buddy_system_allocatorINtB1x_10LockedHeapKj20_ENtNtNtB5_5alloc6global11GlobalAlloc5alloc0ECsg1amJnYx2jd_4main PROGBITS        802049f4 0059f4 0000a4 00  AX  0   0  4
  [74] .text._RINvMNtCsakCY22H5bhg_4core6optionINtB3_6OptionOmE5ok_oruECsg1amJnYx2jd_4main PROGBITS        80204a98 005a98 000078 00  AX  0   0  4
  [75] .text._RINvMNtCsakCY22H5bhg_4core6optionINtB3_6OptionReE11map_or_elseNtNtCsevzKAMQQtOE_5alloc6string6StringNCNvNtB12_3fmt6format0NvYeNtNtB12_6borrow7ToOwned8to_ownedECsg1amJnYx2jd_4main PROGBITS        80204b10 005b10 0000b8 00  AX  0   0  4
  [76] .text._RNvMNtCsakCY22H5bhg_4core6optionINtB2_6OptionOjE6expectCsg1amJnYx2jd_4main PROGBITS        80204bc8 005bc8 000054 00  AX  0   0  4
  [77] .text._RNvMNtCsakCY22H5bhg_4core6optionINtB2_6OptionlE16unwrap_uncheckedCsg1amJnYx2jd_4main PROGBITS        80204c1c 005c1c 00003c 00  AX  0   0  4
  [78] .text._RNvMs1_NtCsakCY22H5bhg_4core6optionINtB5_6OptionRhE6copiedCsg1amJnYx2jd_4main PROGBITS        80204c58 005c58 00004c 00  AX  0   0  4
  [79] .text._RNvXs7_NtCsakCY22H5bhg_4core6optionINtB5_6OptionNtNtCsg1amJnYx2jd_4main10virtmemory3UvmENtNtB7_7default7Default7defaultBO_ PROGBITS        80204ca4 005ca4 000010 00  AX  0   0  4
  [80] .text._RNvXs7_NtCsakCY22H5bhg_4core6optionINtB5_6OptionmENtNtB7_7default7Default7defaultCsg1amJnYx2jd_4main PROGBITS        80204cb4 005cb4 000008 00  AX  0   0  4
  [81] .text._RNvXsK_NtCsakCY22H5bhg_4core6optionINtB5_6OptionOmEINtNtNtB7_3ops9try_trait12FromResidualIBy_NtNtB7_7convert10InfallibleEE13from_residualCsg1amJnYx2jd_4main PROGBITS        80204cbc 005cbc 000014 00  AX  0   0  4
  [82] .text._RNvNtCsakCY22H5bhg_4core9ub_checks16maybe_is_alignedCsg1amJnYx2jd_4main PROGBITS        80204cd0 005cd0 000024 00  AX  0   0  4
  [83] .text._RNvNtCsakCY22H5bhg_4core9ub_checks17check_language_ubCsg1amJnYx2jd_4main PROGBITS        80204cf4 005cf4 000040 00  AX  0   0  4
  [84] .text._RNvNtCsakCY22H5bhg_4core9ub_checks23maybe_is_nonoverlappingCsg1amJnYx2jd_4main PROGBITS        80204d34 005d34 00004c 00  AX  0   0  4
  [85] .text._RNvNtCsakCY22H5bhg_4core9ub_checks29maybe_is_aligned_and_not_nullCsg1amJnYx2jd_4main PROGBITS        80204d80 005d80 000080 00  AX  0   0  4
  [86] .text._RNvNvNtCsakCY22H5bhg_4core9ub_checks16maybe_is_aligned7runtimeCsg1amJnYx2jd_4main PROGBITS        80204e00 005e00 000024 00  AX  0   0  4
  [87] .text._RNvNvNtCsakCY22H5bhg_4core9ub_checks17check_language_ub7runtimeCsg1amJnYx2jd_4main PROGBITS        80204e24 005e24 000008 00  AX  0   0  4
  [88] .text._RNvNvNtCsakCY22H5bhg_4core9ub_checks23maybe_is_nonoverlapping7runtimeCsg1amJnYx2jd_4main PROGBITS        80204e2c 005e2c 0000c4 00  AX  0   0  4
  [89] .text._RNvMNtNtCsakCY22H5bhg_4core5alloc6layoutNtB2_6Layout12dangling_ptrCsg1amJnYx2jd_4main PROGBITS        80204ef0 005ef0 00002c 00  AX  0   0  4
  [90] .text._RNvMNtNtCsakCY22H5bhg_4core5alloc6layoutNtB2_6Layout29from_size_alignment_uncheckedCsg1amJnYx2jd_4main PROGBITS        80204f1c 005f1c 00004c 00  AX  0   0  4
  [91] .text._RNvMNtNtCsakCY22H5bhg_4core5alloc6layoutNtB2_6Layout4sizeCsg1amJnYx2jd_4main PROGBITS        80204f68 005f68 000014 00  AX  0   0  4
  [92] .text._RNvMNtNtCsakCY22H5bhg_4core5alloc6layoutNtB2_6Layout5alignCsg1amJnYx2jd_4main PROGBITS        80204f7c 005f7c 000024 00  AX  0   0  4
  [93] .text._RNvMNtNtCsakCY22H5bhg_4core5alloc6layoutNtB2_6Layout9alignmentCsg1amJnYx2jd_4main PROGBITS        80204fa0 005fa0 000014 00  AX  0   0  4
  [94] .text._RNvNvMNtNtCsakCY22H5bhg_4core5alloc6layoutNtB4_6Layout29from_size_alignment_unchecked18precondition_checkCsg1amJnYx2jd_4main PROGBITS        80204fb4 005fb4 000068 00  AX  0   0  4
  [95] .text._RNvMNtCsakCY22H5bhg_4core3stre3lenCsg1amJnYx2jd_4main PROGBITS        8020501c 00601c 000028 00  AX  0   0  4
  [96] .text._RNvMNtCsakCY22H5bhg_4core3stre5bytesCsg1amJnYx2jd_4main PROGBITS        80205044 006044 000034 00  AX  0   0  4
  [97] .text._RNvNtCsg1amJnYx2jd_4main7process6switch PROGBITS        80205078 006078 000074 00  AX  0   0  4
  [98] .text._RNvMs_NtCsg1amJnYx2jd_4main7processNtB4_7Process3new PROGBITS        802050ec 0060ec 0001bc 00  AX  0   0  4
  [99] .text._RNvMs_NtCsg1amJnYx2jd_4main7processNtB4_7Process4yeld PROGBITS        802052a8 0062a8 000028 00  AX  0   0  4
  [100] .text._RNvMs_NtCsg1amJnYx2jd_4main7processNtB4_7Process5sched PROGBITS        802052d0 0062d0 00005c 00  AX  0   0  4
  [101] .text._RNvNtCsg1amJnYx2jd_4main7process9scheduler PROGBITS        8020532c 00632c 000200 00  AX  0   0  4
  [102] .text._RNvXs4_NtCsg1amJnYx2jd_4main7processNtB5_9ProcStateNtNtCsakCY22H5bhg_4core7default7Default7defaultB7_ PROGBITS        8020552c 00652c 000008 00  AX  0   0  4
  [103] .text._RNvXs6_NtCsg1amJnYx2jd_4main7processNtB5_9ProcStateNtNtCsakCY22H5bhg_4core3cmp9PartialEq2eqB7_ PROGBITS        80205534 006534 00002c 00  AX  0   0  4
  [104] .text._RNvXsb_NtCsg1amJnYx2jd_4main7processNtB5_7ContextNtNtCsakCY22H5bhg_4core7default7Default7defaultB7_ PROGBITS        80205560 006560 000044 00  AX  0   0  4
  [105] .text._RNvXsc_NtCsg1amJnYx2jd_4main7processNtB5_3CpuNtNtCsakCY22H5bhg_4core7default7Default7defaultB7_ PROGBITS        802055a4 0065a4 000050 00  AX  0   0  4
  [106] .text._RNvXsd_NtCsg1amJnYx2jd_4main7processNtB5_7ProcessNtNtCsakCY22H5bhg_4core7default7Default7defaultB7_ PROGBITS        802055f4 0065f4 0000d0 00  AX  0   0  4
  [107] .text._RNvXs2_NtCsevzKAMQQtOE_5alloc3streNtNtB7_6borrow7ToOwned8to_ownedCsg1amJnYx2jd_4main PROGBITS        802056c4 0066c4 000048 00  AX  0   0  4
  [108] .text._RNvMNtCsevzKAMQQtOE_5alloc6stringNtB2_6String19from_utf8_uncheckedCsg1amJnYx2jd_4main PROGBITS        8020570c 00670c 000030 00  AX  0   0  4
  [109] .text._RNvMNtCsevzKAMQQtOE_5alloc6stringNtB2_6String6as_strCsg1amJnYx2jd_4main PROGBITS        8020573c 00673c 000028 00  AX  0   0  4
  [110] .text._RNvXsx_NtCsevzKAMQQtOE_5alloc6stringNtB5_6StringNtNtNtCsakCY22H5bhg_4core3ops5deref5Deref5derefCsg1amJnYx2jd_4main PROGBITS        80205764 006764 000020 00  AX  0   0  4
  [111] .text._RNvXNtNtNtCsakCY22H5bhg_4core4iter6traits7collectNtNtCsigOxFuwXbws_22buddy_system_allocator11linked_list7IterMutNtB2_12IntoIterator9into_iterCsg1amJnYx2jd_4main PROGBITS        80205784 006784 000014 00  AX  0   0  4
  [112] .text._RNvNtNtCsakCY22H5bhg_4core9core_arch12riscv_shared5pauseCsg1amJnYx2jd_4main PROGBITS        80205798 006798 000008 00  AX  0   0  4
  [113] .text._RNvXsc_NtNtCsj4ivliY6BXz_4spin5mutex4spinINtB5_14SpinMutexGuardINtCsigOxFuwXbws_22buddy_system_allocator4HeapKj20_EENtNtNtCsakCY22H5bhg_4core3ops5deref8DerefMut9deref_mutCsg1amJnYx2jd_4main PROGBITS        802057a0 0067a0 000014 00  AX  0   0  4
  [114] .text._RNvNvMNtNtCsakCY22H5bhg_4core3ptr7mut_ptrOp3add18precondition_checkCsg1amJnYx2jd_4main PROGBITS        802057b4 0067b4 00006c 00  AX  0   0  4
  [115] .text._RNvNvMNtNtCsakCY22H5bhg_4core3ptr7mut_ptrOp3add18runtime_add_nowrapCsg1amJnYx2jd_4main PROGBITS        80205820 006820 000040 00  AX  0   0  4
  [116] .text._RNvNvNvMNtNtCsakCY22H5bhg_4core3ptr7mut_ptrOp3add18runtime_add_nowrap7runtimeCsg1amJnYx2jd_4main PROGBITS        80205860 006860 0000c8 00  AX  0   0  4
  [117] .text._RNvMNtNtCsakCY22H5bhg_4core3mem9alignmentNtB2_9Alignment16as_nonzero_usizeCsg1amJnYx2jd_4main PROGBITS        80205928 006928 000010 00  AX  0   0  4
  [118] .text._RNvMNtNtCsakCY22H5bhg_4core3mem9alignmentNtB2_9Alignment8as_usizeCsg1amJnYx2jd_4main PROGBITS        80205938 006938 000028 00  AX  0   0  4
  [119] .text._RNvNtCsevzKAMQQtOE_5alloc5boxed14box_new_uninitCsg1amJnYx2jd_4main PROGBITS        80205960 006960 000074 00  AX  0   0  4
  [120] .text._RNvXs1g_NtCsakCY22H5bhg_4core3fmtRNtNtNtB8_5panic8location8LocationNtB6_5Debug3fmtCsg1amJnYx2jd_4main PROGBITS        802059d4 0069d4 000028 00  AX  0   0  4
  [121] .text._RINvMs2_NtCsakCY22H5bhg_4core3fmtNtB6_9Arguments3newKj1b_Kj1_ECsg1amJnYx2jd_4main PROGBITS        802059fc 0069fc 000014 00  AX  0   0  4
  [122] .text._RINvMs2_NtCsakCY22H5bhg_4core3fmtNtB6_9Arguments3newKj23_Kj2_ECsg1amJnYx2jd_4main PROGBITS        80205a10 006a10 000014 00  AX  0   0  4
  [123] .text._RINvMs2_NtCsakCY22H5bhg_4core3fmtNtB6_9Arguments3newKj32_Kj3_ECsg1amJnYx2jd_4main PROGBITS        80205a24 006a24 000014 00  AX  0   0  4
  [124] .text._RINvMs2_NtCsakCY22H5bhg_4core3fmtNtB6_9Arguments3newKj4_Kj1_ECsg1amJnYx2jd_4main PROGBITS        80205a38 006a38 000014 00  AX  0   0  4
  [125] .text._RINvMs2_NtCsakCY22H5bhg_4core3fmtNtB6_9Arguments3newKjc_Kj1_ECsg1amJnYx2jd_4main PROGBITS        80205a4c 006a4c 000014 00  AX  0   0  4
  [126] .text._RNvXs1g_NtCsakCY22H5bhg_4core3fmtRNtB6_9ArgumentsNtB6_5Debug3fmtCsg1amJnYx2jd_4main PROGBITS        80205a60 006a60 000028 00  AX  0   0  4
  [127] .text._RNvXs1g_NtCsakCY22H5bhg_4core3fmtRbNtB6_5Debug3fmtCsg1amJnYx2jd_4main PROGBITS        80205a88 006a88 000028 00  AX  0   0  4
  [128] .text._RNvXs1_NtNtCsg1amJnYx2jd_4main7process9trapframeNtB5_9TrapframeNtNtCsakCY22H5bhg_4core7default7Default7defaultB9_ PROGBITS        80205ab0 006ab0 00009c 00  AX  0   0  4
  [129] .text._RNvMs4_NtCsakCY22H5bhg_4core3fmtNtB5_9Arguments6as_strCsg1amJnYx2jd_4main PROGBITS        80205b4c 006b4c 000080 00  AX  0   0  4
  [130] .text._RNvMs4_NtCsakCY22H5bhg_4core3fmtNtB5_9Arguments8from_strCsg1amJnYx2jd_4main PROGBITS        80205bcc 006bcc 000040 00  AX  0   0  4
  [131] .text._RNvXsf_NtCsakCY22H5bhg_4core3fmtbNtB5_5Debug3fmtCsg1amJnYx2jd_4main PROGBITS        80205c0c 006c0c 000024 00  AX  0   0  4
  [132] .text._RNvXss_NtCsakCY22H5bhg_4core3fmtuNtB5_5Debug3fmtCsg1amJnYx2jd_4main PROGBITS        80205c30 006c30 00003c 00  AX  0   0  4
  [133] .text._RNvNtCsevzKAMQQtOE_5alloc3fmt6formatCsg1amJnYx2jd_4main PROGBITS        80205c6c 006c6c 000050 00  AX  0   0  4
  [134] .text._RNvXs7_NtNtCsakCY22H5bhg_4core3str4iterNtB5_5BytesNtNtNtNtB9_4iter6traits8iterator8Iterator4nextCsg1amJnYx2jd_4main PROGBITS        80205cbc 006cbc 000020 00  AX  0   0  4
  [135] .text._RNvNtCsakCY22H5bhg_4core4hint21unreachable_uncheckedCsg1amJnYx2jd_4main PROGBITS        80205cdc 006cdc 000030 00  AX  0   0  4
  [136] .text._RNvNvNtCsakCY22H5bhg_4core4hint21unreachable_unchecked18precondition_checkCsg1amJnYx2jd_4main PROGBITS        80205d0c 006d0c 000038 00  AX  0   0  4
  [137] .text._RNvMNtNtNtCsakCY22H5bhg_4core4iter8adapters6copiedINtB2_6CopiedINtNtNtB8_5slice4iter4IterhEE3newCsg1amJnYx2jd_4main PROGBITS        80205d44 006d44 000014 00  AX  0   0  4
  [138] .text._RNvXs_NtNtNtCsakCY22H5bhg_4core4iter8adapters6copiedINtB4_6CopiedINtNtNtBa_5slice4iter4IterhEENtNtNtB8_6traits8iterator8Iterator4nextCsg1amJnYx2jd_4main PROGBITS        80205d58 006d58 000028 00  AX  0   0  4
  [139] .text._RINvNtCsakCY22H5bhg_4core3ptr13drop_in_placeINtNtCsj4ivliY6BXz_4spin5mutex10MutexGuardINtCsigOxFuwXbws_22buddy_system_allocator4HeapKj20_EEECsg1amJnYx2jd_4main PROGBITS        80205d80 006d80 000020 00  AX  0   0  4
  [140] .text._RINvNtCsakCY22H5bhg_4core3ptr13drop_in_placeINtNtNtCsj4ivliY6BXz_4spin5mutex4spin14SpinMutexGuardINtCsigOxFuwXbws_22buddy_system_allocator4HeapKj20_EEECsg1amJnYx2jd_4main PROGBITS        80205da0 006da0 000020 00  AX  0   0  4
  [141] .text._RNvXsd_NtNtCsj4ivliY6BXz_4spin5mutex4spinINtB5_14SpinMutexGuardINtCsigOxFuwXbws_22buddy_system_allocator4HeapKj20_EENtNtNtCsakCY22H5bhg_4core3ops4drop4Drop4dropCsg1amJnYx2jd_4main PROGBITS        80205dc0 006dc0 00002c 00  AX  0   0  4
  [142] .text._RNvYNvYeNtNtCsevzKAMQQtOE_5alloc6borrow7ToOwned8to_ownedINtNtNtCsakCY22H5bhg_4core3ops8function6FnOnceTReEE9call_onceCsg1amJnYx2jd_4main PROGBITS        80205dec 006dec 00002c 00  AX  0   0  4
  [143] .text._RINvMs2_NtCsevzKAMQQtOE_5alloc7raw_vecNtB6_11RawVecInner3ptrNtNtCsg1amJnYx2jd_4main7process7ProcessEB10_ PROGBITS        80205e18 006e18 000024 00  AX  0   0  4
  [144] .text._RINvMs2_NtCsevzKAMQQtOE_5alloc7raw_vecNtB6_11RawVecInner8non_nullNtNtCsg1amJnYx2jd_4main7process7ProcessEB15_ PROGBITS        80205e3c 006e3c 00002c 00  AX  0   0  4
  [145] .text._RNvMNtCsevzKAMQQtOE_5alloc7raw_vecINtB2_6RawVecNtNtCsg1amJnYx2jd_4main7process7ProcessE3newBN_ PROGBITS        80205e68 006e68 00001c 00  AX  0   0  4
  [146] .text._RNvMs0_NtCsevzKAMQQtOE_5alloc7raw_vecINtB5_6RawVecNtNtCsg1amJnYx2jd_4main7process7ProcessE3ptrBQ_ PROGBITS        80205e84 006e84 000020 00  AX  0   0  4
  [147] .text._RNvMs0_NtCsevzKAMQQtOE_5alloc7raw_vecINtB5_6RawVecNtNtCsg1amJnYx2jd_4main7process7ProcessE6new_inBQ_ PROGBITS        80205ea4 006ea4 000024 00  AX  0   0  4
  [148] .text._RNvMs0_NtCsevzKAMQQtOE_5alloc7raw_vecINtB5_6RawVecNtNtCsg1amJnYx2jd_4main7process7ProcessE8capacityBQ_ PROGBITS        80205ec8 006ec8 000024 00  AX  0   0  4
  [149] .text._RNvMs3_NtCsevzKAMQQtOE_5alloc7raw_vecINtB5_6RawVecNtNtCsg1amJnYx2jd_4main7process7ProcessE8grow_oneBQ_ PROGBITS        80205eec 006eec 000028 00  AX  0   0  4
  [150] .text._RNvXs1g_NtCsakCY22H5bhg_4core3fmtRNtNtNtB8_5panic10panic_info9PanicInfoNtB6_5Debug3fmtCsg1amJnYx2jd_4main PROGBITS        80205f14 006f14 000028 00  AX  0   0  4
  [151] .text._RNvNvNtCsakCY22H5bhg_4core3ptr11write_bytes18precondition_checkCsg1amJnYx2jd_4main PROGBITS        80205f3c 006f3c 00006c 00  AX  0   0  4
  [152] .text._RNvNvNtCsakCY22H5bhg_4core3ptr14write_volatile18precondition_checkCsg1amJnYx2jd_4main PROGBITS        80205fa8 006fa8 000068 00  AX  0   0  4
  [153] .text._RNvNvNtCsakCY22H5bhg_4core3ptr19copy_nonoverlapping18precondition_checkCsg1amJnYx2jd_4main PROGBITS        80206010 007010 000110 00  AX  0   0  4
  [154] .text._RNvNvNtCsakCY22H5bhg_4core3ptr4read18precondition_checkCsg1amJnYx2jd_4main PROGBITS        80206120 007120 00006c 00  AX  0   0  4
  [155] .text._RNvNvNtCsakCY22H5bhg_4core3ptr5write18precondition_checkCsg1amJnYx2jd_4main PROGBITS        8020618c 00718c 00006c 00  AX  0   0  4
  [156] .text._RNvMNtCsakCY22H5bhg_4core6resultINtB2_6ResultINtNtNtB4_3ptr8non_null7NonNullhEuE2okCsg1amJnYx2jd_4main PROGBITS        802061f8 0071f8 00004c 00  AX  0   0  4
  [157] .text._RNvMNtCsakCY22H5bhg_4core6resultINtB2_6ResultbbE5is_okCsg1amJnYx2jd_4main PROGBITS        80206244 007244 00003c 00  AX  0   0  4
  [158] .text._RNvXsp_NtCsakCY22H5bhg_4core6resultINtB5_6ResultNtNtCsg1amJnYx2jd_4main10virtmemory3UvmuENtNtNtB7_3ops9try_trait3Try6branchBO_ PROGBITS        80206280 007280 000078 00  AX  0   0  4
  [159] .text._RNvXsp_NtCsakCY22H5bhg_4core6resultINtB5_6ResultNtNtCsg1amJnYx2jd_4main7process7ProcessuENtNtNtB7_3ops9try_trait3Try6branchBO_ PROGBITS        802062f8 0072f8 000070 00  AX  0   0  4
  [160] .text._RNvXsp_NtCsakCY22H5bhg_4core6resultINtB5_6ResultOmuENtNtNtB7_3ops9try_trait3Try6branchCsg1amJnYx2jd_4main PROGBITS        80206368 007368 000050 00  AX  0   0  4
  [161] .text._RNvXsp_NtCsakCY22H5bhg_4core6resultINtB5_6ResultuuENtNtNtB7_3ops9try_trait3Try6branchCsg1amJnYx2jd_4main PROGBITS        802063b8 0073b8 00003c 00  AX  0   0  4
  [162] .text._RNvXsq_NtCsakCY22H5bhg_4core6resultINtB5_6ResultNtNtCsg1amJnYx2jd_4main10virtmemory3KvmuEINtNtNtB7_3ops9try_trait12FromResidualIBy_NtNtB7_7convert10InfallibleuEE13from_residualBO_ PROGBITS        802063f4 0073f4 000014 00  AX  0   0  4
  [163] .text._RNvXsq_NtCsakCY22H5bhg_4core6resultINtB5_6ResultNtNtCsg1amJnYx2jd_4main7process7ProcessuEINtNtNtB7_3ops9try_trait12FromResidualIBy_NtNtB7_7convert10InfallibleuEE13from_residualBO_ PROGBITS        80206408 007408 000020 00  AX  0   0  4
  [164] .text._RNvXsq_NtCsakCY22H5bhg_4core6resultINtB5_6ResultuuEINtNtNtB7_3ops9try_trait12FromResidualIBy_NtNtB7_7convert10InfallibleuEE13from_residualCsg1amJnYx2jd_4main PROGBITS        80206428 007428 000014 00  AX  0   0  4
  [165] .text._RNvNtNtCsakCY22H5bhg_4core3str8converts19from_utf8_uncheckedCsg1amJnYx2jd_4main PROGBITS        8020643c 00743c 000014 00  AX  0   0  4
  [166] .text._RNvCsbSr5EDxESP4_7___rustc12___rust_alloc PROGBITS        80206450 007450 000048 00  AX  0   0  4
  [167] .text._RNvCsbSr5EDxESP4_7___rustc14___rust_dealloc PROGBITS        80206498 007498 000068 00  AX  0   0  4
  [168] .text._RNvCsbSr5EDxESP4_7___rustc14___rust_realloc PROGBITS        80206500 007500 000074 00  AX  0   0  4
  [169] .text._RNvCsbSr5EDxESP4_7___rustc17rust_begin_unwind PROGBITS        80206574 007574 0000a0 00  AX  0   0  4
  [170] .text._RNvCsbSr5EDxESP4_7___rustc19___rust_alloc_zeroed PROGBITS        80206614 007614 000048 00  AX  0   0  4
  [171] .text._RNvCsg1amJnYx2jd_4main10uart_print PROGBITS        8020665c 00765c 000088 00  AX  0   0  4
  [172] .text._RNvCsg1amJnYx2jd_4main5proc0 PROGBITS        802066e4 0076e4 0001b8 00  AX  0   0  4
  [173] .text._RNvCsg1amJnYx2jd_4main5proc1 PROGBITS        8020689c 00789c 0001b8 00  AX  0   0  4
  [174] .text.main        PROGBITS        80206a54 007a54 000514 00  AX  0   0  4
  [175] .text._RINvMs1_NtNtCsakCY22H5bhg_4core3ptr6uniqueINtB6_6UniquehE4castNtNtCsg1amJnYx2jd_4main7process7ProcessEB12_ PROGBITS        80206f68 007f68 000020 00  AX  0   0  4
  [176] .text._RNvMs1_NtNtCsakCY22H5bhg_4core3ptr6uniqueINtB5_6UniqueNtNtCsg1amJnYx2jd_4main7process7ProcessE15as_non_null_ptrBU_ PROGBITS        80206f88 007f88 000010 00  AX  0   0  4
  [177] .text._RNvMs0_NtCsg1amJnYx2jd_4main10virtmemoryNtB5_3PTE7from_paB7_ PROGBITS        80206f98 007f98 000038 00  AX  0   0  4
  [178] .text._RNvMs3_NtCsg1amJnYx2jd_4main10virtmemoryNtB5_2VA3vpn PROGBITS        80206fd0 007fd0 000078 00  AX  0   0  4
  [179] .text._RNvMs7_NtCsg1amJnYx2jd_4main10virtmemoryNtB5_3Kvm12alloc_kstack PROGBITS        80207048 008048 000064 00  AX  0   0  4
  [180] .text._RNvMs7_NtCsg1amJnYx2jd_4main10virtmemoryNtB5_3Kvm4init PROGBITS        802070ac 0080ac 00022c 00  AX  0   0  4
  [181] .text._RNvMs7_NtCsg1amJnYx2jd_4main10virtmemoryNtB5_3Kvm9start_kvm PROGBITS        802072d8 0082d8 00006c 00  AX  0   0  4
  [182] .text._RNvMs8_NtCsg1amJnYx2jd_4main10virtmemoryNtB5_3Uvm3new PROGBITS        80207344 008344 00006c 00  AX  0   0  4
  [183] .text._RNvMs8_NtCsg1amJnYx2jd_4main10virtmemoryNtB5_3Uvm9init_proc PROGBITS        802073b0 0083b0 0000f0 00  AX  0   0  4
  [184] .text._RNvNtCsg1amJnYx2jd_4main10virtmemory3map PROGBITS        802074a0 0084a0 000318 00  AX  0   0  4
  [185] .text._RNvNtCsg1amJnYx2jd_4main10virtmemory4walk PROGBITS        802077b8 0087b8 000260 00  AX  0   0  4
  [186] .text._RNvXNtCsg1amJnYx2jd_4main10virtmemoryNtB2_3PTEINtNtCsakCY22H5bhg_4core7convert4FrommE4from PROGBITS        80207a18 008a18 0000a8 00  AX  0   0  4
  [187] .text._RNvXs2_NtCsg1amJnYx2jd_4main10virtmemoryNtB5_4SATPINtNtCsakCY22H5bhg_4core7convert4IntomE4into PROGBITS        80207ac0 008ac0 000050 00  AX  0   0  4
  [188] .text._RNvXs4_NtCsg1amJnYx2jd_4main10virtmemoryNtB5_2VAINtNtCsakCY22H5bhg_4core7convert4FrommE4from PROGBITS        80207b10 008b10 00003c 00  AX  0   0  4
  [189] .text._RNvXs6_NtCsg1amJnYx2jd_4main10virtmemoryNtB5_3KvmNtNtCsakCY22H5bhg_4core7default7Default7default PROGBITS        80207b4c 008b4c 000064 00  AX  0   0  4
  [190] .text._RNvXs_NtCsg1amJnYx2jd_4main10virtmemoryNtB4_3PTEINtNtCsakCY22H5bhg_4core7convert4IntomE4into PROGBITS        80207bb0 008bb0 000084 00  AX  0   0  4
  [191] .text._RINvNtNtCsakCY22H5bhg_4core3ptr8metadata18from_raw_parts_mutNtNtCsg1amJnYx2jd_4main7process7ProcessuEB10_ PROGBITS        80207c34 008c34 000010 00  AX  0   0  4
  [192] .text._RINvNtNtCsakCY22H5bhg_4core3ptr8metadata18from_raw_parts_muthuECsg1amJnYx2jd_4main PROGBITS        80207c44 008c44 000010 00  AX  0   0  4
  [193] .text._RNvXs3_NtNtCsakCY22H5bhg_4core5panic10panic_infoNtB5_9PanicInfoNtNtB9_3fmt5Debug3fmtCsg1amJnYx2jd_4main PROGBITS        80207c54 008c54 0000d0 00  AX  0   0  4
  [194] .text._RINvMNtNtCsakCY22H5bhg_4core3fmt2rtNtB3_8Argument10new_binaryjECsg1amJnYx2jd_4main PROGBITS        80207d24 008d24 000064 00  AX  0   0  4
  [195] .text._RINvMNtNtCsakCY22H5bhg_4core3fmt2rtNtB3_8Argument11new_displaylECsg1amJnYx2jd_4main PROGBITS        80207d88 008d88 000064 00  AX  0   0  4
  [196] .text._RINvMNtNtCsakCY22H5bhg_4core3fmt2rtNtB3_8Argument9new_debugRNtNtNtB7_5panic10panic_info9PanicInfoECsg1amJnYx2jd_4main PROGBITS        80207dec 008dec 000064 00  AX  0   0  4
  [197] .text._RINvNtNtCsakCY22H5bhg_4core4sync6atomic10atomic_andhhECsg1amJnYx2jd_4main PROGBITS        80207e50 008e50 000164 00  AX  0   0  4
  [198] .text._RINvNtNtCsakCY22H5bhg_4core4sync6atomic12atomic_storehECsg1amJnYx2jd_4main PROGBITS        80207fb4 008fb4 0000d4 00  AX  0   0  4
  [199] .text._RINvNtNtCsakCY22H5bhg_4core4sync6atomic9atomic_orhhECsg1amJnYx2jd_4main PROGBITS        80208088 009088 000114 00  AX  0   0  4
  [200] .text._RINvNtCsakCY22H5bhg_4core3ptr14write_volatilehECsg1amJnYx2jd_4main PROGBITS        8020819c 00919c 000060 00  AX  0   0  4
  [201] .text._RINvNtCsakCY22H5bhg_4core3ptr4readmECsg1amJnYx2jd_4main PROGBITS        802081fc 0091fc 000054 00  AX  0   0  4
  [202] .text._RINvNtCsakCY22H5bhg_4core3ptr5writeNtNtCsg1amJnYx2jd_4main7process7ProcessEBB_ PROGBITS        80208250 009250 000064 00  AX  0   0  4
  [203] .text._RINvNtCsakCY22H5bhg_4core3ptr5writemECsg1amJnYx2jd_4main PROGBITS        802082b4 0092b4 000060 00  AX  0   0  4
  [204] .text._RNvMs0_NtCsakCY22H5bhg_4core3numl12unsigned_absCsg1amJnYx2jd_4main PROGBITS        80208314 009314 000020 00  AX  0   0  4
  [205] .text._RNvMs0_NtCsakCY22H5bhg_4core3numl12wrapping_absCsg1amJnYx2jd_4main PROGBITS        80208334 009334 000050 00  AX  0   0  4
  [206] .text._RNvMs0_NtCsakCY22H5bhg_4core3numl20checked_add_unsignedCsg1amJnYx2jd_4main PROGBITS        80208384 009384 000094 00  AX  0   0  4
  [207] .text._RNvMs0_NtCsakCY22H5bhg_4core3numl24overflowing_add_unsignedCsg1amJnYx2jd_4main PROGBITS        80208418 009418 000048 00  AX  0   0  4
  [208] .text._RNvMs9_NtCsakCY22H5bhg_4core3numj11checked_mulCsg1amJnYx2jd_4main PROGBITS        80208460 009460 0000a0 00  AX  0   0  4
  [209] .text._RNvMs9_NtCsakCY22H5bhg_4core3numj17next_power_of_twoCsg1amJnYx2jd_4main PROGBITS        80208500 009500 000048 00  AX  0   0  4
  [210] .text._RNvMs9_NtCsakCY22H5bhg_4core3numj31one_less_than_next_power_of_twoCsg1amJnYx2jd_4main PROGBITS        80208548 009548 000118 00  AX  0   0  4
  [211] .text._RNvMs9_NtCsakCY22H5bhg_4core3numj8abs_diffCsg1amJnYx2jd_4main PROGBITS        80208660 009660 0000d0 00  AX  0   0  4
  [212] .text._RNvNvMs6_NtCsakCY22H5bhg_4core3numm13unchecked_add18precondition_checkCsg1amJnYx2jd_4main PROGBITS        80208730 009730 000084 00  AX  0   0  4
  [213] .text._RNvCsbSr5EDxESP4_7___rustc26___rust_alloc_error_handler PROGBITS        802087b4 0097b4 000008 00  AX  0   0  4
  [214] .text._RNvCsbSr5EDxESP4_7___rustc35___rust_no_alloc_shim_is_unstable_v2 PROGBITS        802087bc 0097bc 000004 00  AX  0   0  4
  [215] .text._RNvCsigOxFuwXbws_22buddy_system_allocator17prev_power_of_two PROGBITS        802087c0 0097c0 00010c 00  AX  0   0  4
  [216] .text._RNvMNtNtCsakCY22H5bhg_4core3ptr7mut_ptrOj7is_nullCsigOxFuwXbws_22buddy_system_allocator PROGBITS        802088cc 0098cc 000024 00  AX  0   0  4
  [217] .text._RNvMNtNtCsakCY22H5bhg_4core3ptr9const_ptrPj7is_nullCsigOxFuwXbws_22buddy_system_allocator PROGBITS        802088f0 0098f0 000024 00  AX  0   0  4
  [218] .text._RNvMs3_NtCsigOxFuwXbws_22buddy_system_allocator11linked_listNtB5_8ListNode3pop PROGBITS        80208914 009914 000028 00  AX  0   0  4
  [219] .text._RNvMs3_NtCsigOxFuwXbws_22buddy_system_allocator11linked_listNtB5_8ListNode5value PROGBITS        8020893c 00993c 000014 00  AX  0   0  4
  [220] .text._RNvMs_NtCsigOxFuwXbws_22buddy_system_allocator11linked_listNtB4_10LinkedList3pop PROGBITS        80208950 009950 000064 00  AX  0   0  4
  [221] .text._RNvMs_NtCsigOxFuwXbws_22buddy_system_allocator11linked_listNtB4_10LinkedList4push PROGBITS        802089b4 0099b4 000020 00  AX  0   0  4
  [222] .text._RNvMs_NtCsigOxFuwXbws_22buddy_system_allocator11linked_listNtB4_10LinkedList8is_empty PROGBITS        802089d4 0099d4 000024 00  AX  0   0  4
  [223] .text._RNvMs_NtCsigOxFuwXbws_22buddy_system_allocator11linked_listNtB4_10LinkedList8iter_mut PROGBITS        802089f8 0099f8 000014 00  AX  0   0  4
  [224] .text._RNvNvMNtNtCsakCY22H5bhg_4core3ptr9const_ptrPp7is_null7runtimeCsigOxFuwXbws_22buddy_system_allocator PROGBITS        80208a0c 009a0c 00001c 00  AX  0   0  4
  [225] .text._RNvXs4_NtCsigOxFuwXbws_22buddy_system_allocator11linked_listNtB5_7IterMutNtNtNtNtCsakCY22H5bhg_4core4iter6traits8iterator8Iterator4next PROGBITS        80208a28 009a28 000084 00  AX  0   0  4
  [226] .text._RINvMs1_NtNtCsakCY22H5bhg_4core3ptr8non_nullINtB6_7NonNullhE4casthECsevzKAMQQtOE_5alloc PROGBITS        80208aac 009aac 000014 00  AX  0   0  4
  [227] .text._RINvMs2_NtCsakCY22H5bhg_4core3fmtNtB6_9Arguments3newKj26_Kj1_ECsevzKAMQQtOE_5alloc PROGBITS        80208ac0 009ac0 000014 00  AX  0   0  4
  [228] .text._RINvMs2_NtCsevzKAMQQtOE_5alloc7raw_vecNtB6_11RawVecInner3ptrhEB8_ PROGBITS        80208ad4 009ad4 000024 00  AX  0   0  4
  [229] .text._RINvMs2_NtCsevzKAMQQtOE_5alloc7raw_vecNtB6_11RawVecInner8non_nullhEB8_ PROGBITS        80208af8 009af8 00002c 00  AX  0   0  4
  [230] .text._RINvNvMs2_NtCsevzKAMQQtOE_5alloc7raw_vecINtB8_11RawVecInnerpE7reserve21do_reserve_and_handleNtNtBa_5alloc6GlobalEBa_ PROGBITS        80208b24 009b24 000064 00  AX  0   0  4
  [231] .text._RNvMNtCsevzKAMQQtOE_5alloc6stringNtB2_6String13with_capacityB4_ PROGBITS        80208b88 009b88 000044 00  AX  0   0  4
  [232] .text._RNvMNtCsevzKAMQQtOE_5alloc6stringNtB2_6String3lenB4_ PROGBITS        80208bcc 009bcc 000020 00  AX  0   0  4
  [233] .text._RNvMNtCsevzKAMQQtOE_5alloc6stringNtB2_6String4pushB4_ PROGBITS        80208bec 009bec 00011c 00  AX  0   0  4
  [234] .text._RNvMNtCsevzKAMQQtOE_5alloc6stringNtB2_6String7reserveB4_ PROGBITS        80208d08 009d08 000024 00  AX  0   0  4
  [235] .text._RNvMNtCsevzKAMQQtOE_5alloc6stringNtB2_6String8push_strB4_ PROGBITS        80208d2c 009d2c 000030 00  AX  0   0  4
  [236] .text._RNvMs0_NtCsevzKAMQQtOE_5alloc7raw_vecINtB5_6RawVechE3ptrB7_ PROGBITS        80208d5c 009d5c 000020 00  AX  0   0  4
  [237] .text._RNvMs0_NtCsevzKAMQQtOE_5alloc7raw_vecINtB5_6RawVechE7reserveB7_ PROGBITS        80208d7c 009d7c 000030 00  AX  0   0  4
  [238] .text._RNvMs0_NtCsevzKAMQQtOE_5alloc7raw_vecINtB5_6RawVechE8capacityB7_ PROGBITS        80208dac 009dac 000024 00  AX  0   0  4
  [239] .text._RNvMs0_NtNtCsakCY22H5bhg_4core3ptr8non_nullINtB5_7NonNullhE18without_provenanceCsevzKAMQQtOE_5alloc PROGBITS        80208dd0 009dd0 000010 00  AX  0   0  4
  [240] .text._RNvMs1_NtNtCsakCY22H5bhg_4core3ptr8non_nullINtB5_7NonNullShE13new_uncheckedCsevzKAMQQtOE_5alloc PROGBITS        80208de0 009de0 000054 00  AX  0   0  4
  [241] .text._RNvMs1_NtNtCsakCY22H5bhg_4core3ptr8non_nullINtB5_7NonNullhE13new_uncheckedCsevzKAMQQtOE_5alloc PROGBITS        80208e34 009e34 000048 00  AX  0   0  4
  [242] .text._RNvMs1_NtNtCsakCY22H5bhg_4core3ptr8non_nullINtB5_7NonNullhE3newCsevzKAMQQtOE_5alloc PROGBITS        80208e7c 009e7c 000058 00  AX  0   0  4
  [243] .text._RNvMs2_NtCsevzKAMQQtOE_5alloc7raw_vecNtB5_11RawVecInner10deallocateB7_ PROGBITS        80208ed4 009ed4 000074 00  AX  0   0  4
  [244] .text._RNvMs2_NtCsevzKAMQQtOE_5alloc7raw_vecNtB5_11RawVecInner13needs_to_growB7_ PROGBITS        80208f48 009f48 000068 00  AX  0   0  4
  [245] .text._RNvMs2_NtCsevzKAMQQtOE_5alloc7raw_vecNtB5_11RawVecInner14current_memoryB7_ PROGBITS        80208fb0 009fb0 000168 00  AX  0   0  4
  [246] .text._RNvMs2_NtCsevzKAMQQtOE_5alloc7raw_vecNtB5_11RawVecInner15set_ptr_and_capB7_ PROGBITS        80209118 00a118 000074 00  AX  0   0  4
  [247] .text._RNvMs2_NtCsevzKAMQQtOE_5alloc7raw_vecNtB5_11RawVecInner6new_inB7_ PROGBITS        8020918c 00a18c 00003c 00  AX  0   0  4
  [248] .text._RNvMs2_NtCsevzKAMQQtOE_5alloc7raw_vecNtB5_11RawVecInner7reserveB7_ PROGBITS        802091c8 00a1c8 00006c 00  AX  0   0  4
  [249] .text._RNvMs2_NtCsevzKAMQQtOE_5alloc7raw_vecNtB5_11RawVecInner8capacityB7_ PROGBITS        80209234 00a234 000050 00  AX  0   0  4
  [250] .text._RNvMs3_NtCsakCY22H5bhg_4core3fmtNtB5_9Arguments18estimated_capacityCsevzKAMQQtOE_5alloc PROGBITS        80209284 00a284 0003f8 00  AX  0   0  4
  [251] .text._RNvMs3_NtCsevzKAMQQtOE_5alloc7raw_vecINtB5_6RawVechE16with_capacity_inB7_ PROGBITS        8020967c 00a67c 000028 00  AX  0   0  4
  [252] .text._RNvMs4_NtCsakCY22H5bhg_4core3fmtNtB5_9Arguments23as_statically_known_strCsevzKAMQQtOE_5alloc PROGBITS        802096a4 00a6a4 000074 00  AX  0   0  4
  [253] .text._RNvMs4_NtCsakCY22H5bhg_4core3fmtNtB5_9Arguments6as_strCsevzKAMQQtOE_5alloc PROGBITS        80209718 00a718 000080 00  AX  0   0  4
  [254] .text._RNvMs4_NtCsakCY22H5bhg_4core3fmtNtB5_9Arguments8from_strCsevzKAMQQtOE_5alloc PROGBITS        80209798 00a798 000040 00  AX  0   0  4
  [255] .text._RNvMs4_NtCsevzKAMQQtOE_5alloc7raw_vecNtB5_11RawVecInner11finish_growB7_ PROGBITS        802097d8 00a7d8 000270 00  AX  0   0  4
  [256] .text._RNvMs4_NtCsevzKAMQQtOE_5alloc7raw_vecNtB5_11RawVecInner14grow_amortizedB7_ PROGBITS        80209a48 00aa48 000234 00  AX  0   0  4
  [257] .text._RNvMs4_NtCsevzKAMQQtOE_5alloc7raw_vecNtB5_11RawVecInner15try_allocate_inB7_ PROGBITS        80209c7c 00ac7c 00020c 00  AX  0   0  4
  [258] .text._RNvMs4_NtCsevzKAMQQtOE_5alloc7raw_vecNtB5_11RawVecInner16with_capacity_inB7_ PROGBITS        80209e88 00ae88 0000dc 00  AX  0   0  4
  [259] .text._RNvMs4_NtCsevzKAMQQtOE_5alloc7raw_vecNtB5_11RawVecInner8grow_oneB7_ PROGBITS        80209f64 00af64 000088 00  AX  0   0  4
  [260] .text._RNvMs4_NtNtCsakCY22H5bhg_4core3ptr8non_nullINtB5_7NonNullShE10as_mut_ptrCsevzKAMQQtOE_5alloc PROGBITS        80209fec 00afec 000028 00  AX  0   0  4
  [261] .text._RNvMs4_NtNtCsakCY22H5bhg_4core3ptr8non_nullINtB5_7NonNullShE15as_non_null_ptrCsevzKAMQQtOE_5alloc PROGBITS        8020a014 00b014 000024 00  AX  0   0  4
  [262] .text._RNvMs4_NtNtCsakCY22H5bhg_4core3ptr8non_nullINtB5_7NonNullShE20slice_from_raw_partsCsevzKAMQQtOE_5alloc PROGBITS        8020a038 00b038 000038 00  AX  0   0  4
  [263] .text._RNvNtCsevzKAMQQtOE_5alloc7raw_vec12handle_error PROGBITS        8020a070 00b070 000050 00  AX  0   0  4
  [264] .text._RNvNtCsevzKAMQQtOE_5alloc7raw_vec12layout_arrayB3_ PROGBITS        8020a0c0 00b0c0 00010c 00  AX  0   0  4
  [265] .text._RNvNtCsevzKAMQQtOE_5alloc7raw_vec16min_non_zero_cap PROGBITS        8020a1cc 00b1cc 000058 00  AX  0   0  4
  [266] .text._RNvNtCsevzKAMQQtOE_5alloc7raw_vec17capacity_overflow PROGBITS        8020a224 00b224 00002c 00  AX  0   0  4
  [267] .text._RNvNvMs1_NtNtCsakCY22H5bhg_4core3ptr8non_nullINtB7_7NonNullpE13new_unchecked18precondition_checkCsevzKAMQQtOE_5alloc PROGBITS        8020a250 00b250 000064 00  AX  0   0  4
  [268] .text._RNvNvNtCsakCY22H5bhg_4core4hint16assert_unchecked18precondition_checkCsevzKAMQQtOE_5alloc PROGBITS        8020a2b4 00b2b4 00005c 00  AX  0   0  4
  [269] .text._RNvXs1_NtCsevzKAMQQtOE_5alloc7raw_vecINtB5_6RawVechENtNtNtCsakCY22H5bhg_4core3ops4drop4Drop4dropB7_ PROGBITS        8020a310 00b310 000028 00  AX  0   0  4
  [270] .text._RNvXsK_NtCsakCY22H5bhg_4core3fmtNtB5_5ErrorNtB5_5Debug3fmtCsevzKAMQQtOE_5alloc PROGBITS        8020a338 00b338 00003c 00  AX  0   0  4
  [271] .text._RNvXsZ_NtCsevzKAMQQtOE_5alloc6stringNtB5_6StringNtNtCsakCY22H5bhg_4core3fmt5Write10write_charB7_ PROGBITS        8020a374 00b374 000028 00  AX  0   0  4
  [272] .text._RNvXsZ_NtCsevzKAMQQtOE_5alloc6stringNtB5_6StringNtNtCsakCY22H5bhg_4core3fmt5Write9write_strB7_ PROGBITS        8020a39c 00b39c 00002c 00  AX  0   0  4
  [273] .text._RNvXs_NvNtNtCsakCY22H5bhg_4core3fmt5Write9write_fmtQNtNtCsevzKAMQQtOE_5alloc6string6StringNtB4_12SpecWriteFmt14spec_write_fmtBS_ PROGBITS        8020a3c8 00b3c8 000090 00  AX  0   0  4
  [274] .text._RNvXsh_NtNtCsakCY22H5bhg_4core3ptr8non_nullINtB5_7NonNullhEINtNtB9_7convert4FromINtNtB7_6unique6UniquehEE4fromCsevzKAMQQtOE_5alloc PROGBITS        8020a458 00b458 000020 00  AX  0   0  4
  [275] .text._RNvYNtNtCsevzKAMQQtOE_5alloc6string6StringNtNtCsakCY22H5bhg_4core3fmt5Write9write_fmtB6_ PROGBITS        8020a478 00b478 000028 00  AX  0   0  4
  [276] .text._RNvMNtNtCsakCY22H5bhg_4core5alloc6layoutNtB2_6Layout12dangling_ptrCsevzKAMQQtOE_5alloc PROGBITS        8020a4a0 00b4a0 00002c 00  AX  0   0  4
  [277] .text._RNvMNtNtCsakCY22H5bhg_4core5alloc6layoutNtB2_6Layout12pad_to_alignCsevzKAMQQtOE_5alloc PROGBITS        8020a4cc 00b4cc 000058 00  AX  0   0  4
  [278] .text._RNvMNtNtCsakCY22H5bhg_4core5alloc6layoutNtB2_6Layout13repeat_packedCsevzKAMQQtOE_5alloc PROGBITS        8020a524 00b524 00007c 00  AX  0   0  4
  [279] .text._RNvMNtNtCsakCY22H5bhg_4core5alloc6layoutNtB2_6Layout19from_size_alignmentCsevzKAMQQtOE_5alloc PROGBITS        8020a5a0 00b5a0 00005c 00  AX  0   0  4
  [280] .text._RNvMNtNtCsakCY22H5bhg_4core5alloc6layoutNtB2_6Layout19is_size_align_validCsevzKAMQQtOE_5alloc PROGBITS        8020a5fc 00b5fc 000070 00  AX  0   0  4
  [281] .text._RNvMNtNtCsakCY22H5bhg_4core5alloc6layoutNtB2_6Layout25from_size_align_uncheckedCsevzKAMQQtOE_5alloc PROGBITS        8020a66c 00b66c 00004c 00  AX  0   0  4
  [282] .text._RNvMNtNtCsakCY22H5bhg_4core5alloc6layoutNtB2_6Layout29from_size_alignment_uncheckedCsevzKAMQQtOE_5alloc PROGBITS        8020a6b8 00b6b8 00004c 00  AX  0   0  4
  [283] .text._RNvMNtNtCsakCY22H5bhg_4core5alloc6layoutNtB2_6Layout35size_rounded_up_to_custom_alignmentCsevzKAMQQtOE_5alloc PROGBITS        8020a704 00b704 000054 00  AX  0   0  4
  [284] .text._RNvMNtNtCsakCY22H5bhg_4core5alloc6layoutNtB2_6Layout4sizeCsevzKAMQQtOE_5alloc PROGBITS        8020a758 00b758 000014 00  AX  0   0  4
  [285] .text._RNvMNtNtCsakCY22H5bhg_4core5alloc6layoutNtB2_6Layout5alignCsevzKAMQQtOE_5alloc PROGBITS        8020a76c 00b76c 000024 00  AX  0   0  4
  [286] .text._RNvMNtNtCsakCY22H5bhg_4core5alloc6layoutNtB2_6Layout9alignmentCsevzKAMQQtOE_5alloc PROGBITS        8020a790 00b790 000014 00  AX  0   0  4
  [287] .text._RNvMs0_NtCsakCY22H5bhg_4core3numl12unsigned_absCsevzKAMQQtOE_5alloc PROGBITS        8020a7a4 00b7a4 000020 00  AX  0   0  4
  [288] .text._RNvMs0_NtCsakCY22H5bhg_4core3numl12wrapping_absCsevzKAMQQtOE_5alloc PROGBITS        8020a7c4 00b7c4 000050 00  AX  0   0  4
  [289] .text._RNvMs5_NtCsakCY22H5bhg_4core3numt13from_le_bytesCsevzKAMQQtOE_5alloc PROGBITS        8020a814 00b814 000040 00  AX  0   0  4
  [290] .text._RNvMs5_NtCsakCY22H5bhg_4core3numt13from_ne_bytesCsevzKAMQQtOE_5alloc PROGBITS        8020a854 00b854 000028 00  AX  0   0  4
  [291] .text._RNvMs9_NtCsakCY22H5bhg_4core3numj11checked_addCsevzKAMQQtOE_5alloc PROGBITS        8020a87c 00b87c 000090 00  AX  0   0  4
  [292] .text._RNvMs9_NtCsakCY22H5bhg_4core3numj11checked_mulCsevzKAMQQtOE_5alloc PROGBITS        8020a90c 00b90c 0000a0 00  AX  0   0  4
  [293] .text._RNvMs9_NtCsakCY22H5bhg_4core3numj8abs_diffCsevzKAMQQtOE_5alloc PROGBITS        8020a9ac 00b9ac 0000d0 00  AX  0   0  4
  [294] .text._RNvNtCsakCY22H5bhg_4core9ub_checks16maybe_is_alignedCsevzKAMQQtOE_5alloc PROGBITS        8020aa7c 00ba7c 000024 00  AX  0   0  4
  [295] .text._RNvNtCsakCY22H5bhg_4core9ub_checks17check_language_ubCsevzKAMQQtOE_5alloc PROGBITS        8020aaa0 00baa0 000040 00  AX  0   0  4
  [296] .text._RNvNtCsakCY22H5bhg_4core9ub_checks23maybe_is_nonoverlappingCsevzKAMQQtOE_5alloc PROGBITS        8020aae0 00bae0 00004c 00  AX  0   0  4
  [297] .text._RNvNtCsakCY22H5bhg_4core9ub_checks29maybe_is_aligned_and_not_nullCsevzKAMQQtOE_5alloc PROGBITS        8020ab2c 00bb2c 000080 00  AX  0   0  4
  [298] .text._RNvNvMNtNtCsakCY22H5bhg_4core5alloc6layoutNtB4_6Layout25from_size_align_unchecked18precondition_checkCsevzKAMQQtOE_5alloc PROGBITS        8020abac 00bbac 000068 00  AX  0   0  4
  [299] .text._RNvNvMNtNtCsakCY22H5bhg_4core5alloc6layoutNtB4_6Layout29from_size_alignment_unchecked18precondition_checkCsevzKAMQQtOE_5alloc PROGBITS        8020ac14 00bc14 000068 00  AX  0   0  4
  [300] .text._RNvNvMs9_NtCsakCY22H5bhg_4core3numj13unchecked_mul18precondition_checkCsevzKAMQQtOE_5alloc PROGBITS        8020ac7c 00bc7c 000084 00  AX  0   0  4
  [301] .text._RNvNvNtCsakCY22H5bhg_4core9ub_checks16maybe_is_aligned7runtimeCsevzKAMQQtOE_5alloc PROGBITS        8020ad00 00bd00 000024 00  AX  0   0  4
  [302] .text._RNvNvNtCsakCY22H5bhg_4core9ub_checks17check_language_ub7runtimeCsevzKAMQQtOE_5alloc PROGBITS        8020ad24 00bd24 000008 00  AX  0   0  4
  [303] .text._RNvNvNtCsakCY22H5bhg_4core9ub_checks23maybe_is_nonoverlapping7runtimeCsevzKAMQQtOE_5alloc PROGBITS        8020ad2c 00bd2c 0000c4 00  AX  0   0  4
  [304] .text._RINvMNtCsevzKAMQQtOE_5alloc5sliceSh9to_vec_inNtNtB5_5alloc6GlobalEB5_ PROGBITS        8020adf0 00bdf0 000024 00  AX  0   0  4
  [305] .text._RINvMs1_NtNtCsakCY22H5bhg_4core3ptr6uniqueINtB6_6UniquehE4casthECsevzKAMQQtOE_5alloc PROGBITS        8020ae14 00be14 000020 00  AX  0   0  4
  [306] .text._RINvNtCsakCY22H5bhg_4core3ptr13drop_in_placeINtNtCsevzKAMQQtOE_5alloc3vec3VechEEBL_ PROGBITS        8020ae34 00be34 000030 00  AX  0   0  4
  [307] .text._RINvNtCsakCY22H5bhg_4core3ptr13drop_in_placeINtNtCsevzKAMQQtOE_5alloc7raw_vec6RawVechEEBL_ PROGBITS        8020ae64 00be64 000020 00  AX  0   0  4
  [308] .text._RINvNtCsakCY22H5bhg_4core3ptr13drop_in_placeNtNtCsevzKAMQQtOE_5alloc6string6StringEBK_ PROGBITS        8020ae84 00be84 000020 00  AX  0   0  4
  [309] .text._RINvXs_NvMNtCsevzKAMQQtOE_5alloc5sliceSp9to_vec_inhNtB5_10ConvertVec6to_vecNtNtBa_5alloc6GlobalEBa_ PROGBITS        8020aea4 00bea4 0000c0 00  AX  0   0  4
  [310] .text._RNvMNtCsakCY22H5bhg_4core6resultINtB2_6ResultuNtNtB4_3fmt5ErrorE6expectCsevzKAMQQtOE_5alloc PROGBITS        8020af64 00bf64 000054 00  AX  0   0  4
  [311] .text._RNvMNtCsevzKAMQQtOE_5alloc5sliceSh6to_vecB4_ PROGBITS        8020afb8 00bfb8 000024 00  AX  0   0  4
  [312] .text._RNvMs1_NtNtCsakCY22H5bhg_4core3ptr6uniqueINtB5_6UniquehE13from_non_nullCsevzKAMQQtOE_5alloc PROGBITS        8020afdc 00bfdc 000010 00  AX  0   0  4
  [313] .text._RNvMs1_NtNtCsakCY22H5bhg_4core3ptr6uniqueINtB5_6UniquehE15as_non_null_ptrCsevzKAMQQtOE_5alloc PROGBITS        8020afec 00bfec 000010 00  AX  0   0  4
  [314] .text._RNvMs1z_NtNtCsakCY22H5bhg_4core3num11niche_typesNtB6_14UsizeNoHighBit13new_uncheckedCsevzKAMQQtOE_5alloc PROGBITS        8020affc 00bffc 000010 00  AX  0   0  4
  [315] .text._RNvMs1z_NtNtCsakCY22H5bhg_4core3num11niche_typesNtB6_14UsizeNoHighBit8as_innerCsevzKAMQQtOE_5alloc PROGBITS        8020b00c 00c00c 000010 00  AX  0   0  4
  [316] .text._RNvXs1_NtCsakCY22H5bhg_4core7convertINtNtNtB7_3ptr6unique6UniquehEINtB5_4IntoINtNtBD_8non_null7NonNullhEE4intoCsevzKAMQQtOE_5alloc PROGBITS        8020b01c 00c01c 000020 00  AX  0   0  4
  [317] .text._RNvXs7_NtCsevzKAMQQtOE_5alloc5sliceShNtNtB7_6borrow7ToOwned8to_ownedB7_ PROGBITS        8020b03c 00c03c 000024 00  AX  0   0  4
  [318] .text._RNvXsa_NtNtCsakCY22H5bhg_4core3ptr6uniqueINtB5_6UniquehEINtNtB9_7convert4FromINtNtB7_8non_null7NonNullhEE4fromCsevzKAMQQtOE_5alloc PROGBITS        8020b060 00c060 000020 00  AX  0   0  4
  [319] .text._RNvXsp_NtCsakCY22H5bhg_4core6resultINtB5_6ResultINtNtNtB7_3ptr8non_null7NonNullShENtNtB7_5alloc10AllocErrorENtNtNtB7_3ops9try_trait3Try6branchCsevzKAMQQtOE_5alloc PROGBITS        8020b080 00c080 000050 00  AX  0   0  4
  [320] .text._RNvXsp_NtCsakCY22H5bhg_4core6resultINtB5_6ResultINtNtNtB7_3ptr8non_null7NonNullShENtNtCsevzKAMQQtOE_5alloc11collections15TryReserveErrorENtNtNtB7_3ops9try_trait3Try6branchB1m_ PROGBITS        8020b0d0 00c0d0 00007c 00  AX  0   0  4
  [321] .text._RNvXsp_NtCsakCY22H5bhg_4core6resultINtB5_6ResultINtNtNtB7_3ptr8non_null7NonNullhENtNtB7_5alloc10AllocErrorENtNtNtB7_3ops9try_trait3Try6branchCsevzKAMQQtOE_5alloc PROGBITS        8020b14c 00c14c 00003c 00  AX  0   0  4
  [322] .text._RNvXsp_NtCsakCY22H5bhg_4core6resultINtB5_6ResultNtNtNtB7_5alloc6layout6LayoutNtNtCsevzKAMQQtOE_5alloc11collections15TryReserveErrorENtNtNtB7_3ops9try_trait3Try6branchB1h_ PROGBITS        8020b188 00c188 00007c 00  AX  0   0  4
  [323] .text._RNvXsp_NtCsakCY22H5bhg_4core6resultINtB5_6ResultjNtNtCsevzKAMQQtOE_5alloc11collections19TryReserveErrorKindENtNtNtB7_3ops9try_trait3Try6branchBP_ PROGBITS        8020b204 00c204 000070 00  AX  0   0  4
  [324] .text._RNvXsq_NtCsakCY22H5bhg_4core6resultINtB5_6ResultINtNtNtB7_3ptr8non_null7NonNullShENtNtB7_5alloc10AllocErrorEINtNtNtB7_3ops9try_trait12FromResidualIBy_NtNtB7_7convert10InfallibleB1i_EE13from_residualCsevzKAMQQtOE_5alloc PROGBITS        8020b274 00c274 000014 00  AX  0   0  4
  [325] .text._RNvXsq_NtCsakCY22H5bhg_4core6resultINtB5_6ResultINtNtNtB7_3ptr8non_null7NonNullShENtNtCsevzKAMQQtOE_5alloc11collections15TryReserveErrorEINtNtNtB7_3ops9try_trait12FromResidualIBy_NtNtB7_7convert10InfallibleB1i_EE13from_residualB1m_ PROGBITS        8020b288 00c288 000050 00  AX  0   0  4
  [326] .text._RNvXsq_NtCsakCY22H5bhg_4core6resultINtB5_6ResultuNtNtCsevzKAMQQtOE_5alloc11collections15TryReserveErrorEINtNtNtB7_3ops9try_trait12FromResidualIBy_NtNtB7_7convert10InfallibleBL_EE13from_residualBP_ PROGBITS        8020b2d8 00c2d8 000038 00  AX  0   0  4
  [327] .text._RNvXsq_NtCsakCY22H5bhg_4core6resultINtB5_6ResultuNtNtCsevzKAMQQtOE_5alloc11collections15TryReserveErrorEINtNtNtB7_3ops9try_trait12FromResidualIBy_NtNtB7_7convert10InfallibleNtBN_19TryReserveErrorKindEE13from_residualBP_ PROGBITS        8020b310 00c310 000040 00  AX  0   0  4
  [328] .text._RINvMNtCsakCY22H5bhg_4core6optionINtB3_6OptionINtNtNtB5_3ptr8non_null7NonNullhEE5ok_orNtNtB5_5alloc10AllocErrorECsevzKAMQQtOE_5alloc PROGBITS        8020b350 00c350 000064 00  AX  0   0  4
  [329] .text._RINvMNtCsakCY22H5bhg_4core6optionINtB3_6OptionjE5ok_orNtNtCsevzKAMQQtOE_5alloc11collections19TryReserveErrorKindEBU_ PROGBITS        8020b3b4 00c3b4 000098 00  AX  0   0  4
  [330] .text._RNvCsbSr5EDxESP4_7___rustc25___rdl_alloc_error_handler PROGBITS        8020b44c 00c44c 00005c 00  AX  0   0  4
  [331] .text._RNvMNtCsakCY22H5bhg_4core3stre3lenCsevzKAMQQtOE_5alloc PROGBITS        8020b4a8 00c4a8 000028 00  AX  0   0  4
  [332] .text._RNvMNtCsevzKAMQQtOE_5alloc11collectionsNtB2_15TryReserveError4kindB4_ PROGBITS        8020b4d0 00c4d0 000020 00  AX  0   0  4
  [333] .text._RNvMNtCsevzKAMQQtOE_5alloc3vecINtB2_3VechE13with_capacityB4_ PROGBITS        8020b4f0 00c4f0 000020 00  AX  0   0  4
  [334] .text._RNvMNtCsevzKAMQQtOE_5alloc5allocNtB2_6Global10alloc_implB4_ PROGBITS        8020b510 00c510 000044 00  AX  0   0  4
  [335] .text._RNvMNtCsevzKAMQQtOE_5alloc5allocNtB2_6Global15deallocate_implB4_ PROGBITS        8020b554 00c554 000044 00  AX  0   0  4
  [336] .text._RNvMNtCsevzKAMQQtOE_5alloc5allocNtB2_6Global17grow_impl_runtimeB4_ PROGBITS        8020b598 00c598 000428 00  AX  0   0  4
  [337] .text._RNvMNtCsevzKAMQQtOE_5alloc5allocNtB2_6Global18alloc_impl_runtimeB4_ PROGBITS        8020b9c0 00c9c0 00011c 00  AX  0   0  4
  [338] .text._RNvMNtCsevzKAMQQtOE_5alloc5allocNtB2_6Global23deallocate_impl_runtimeB4_ PROGBITS        8020badc 00cadc 000050 00  AX  0   0  4
  [339] .text._RNvMNtCsevzKAMQQtOE_5alloc5allocNtB2_6Global9grow_implB4_ PROGBITS        8020bb2c 00cb2c 000070 00  AX  0   0  4
  [340] .text._RNvMNtNtCsakCY22H5bhg_4core3mem9alignmentNtB2_9Alignment13new_uncheckedCsevzKAMQQtOE_5alloc PROGBITS        8020bb9c 00cb9c 000048 00  AX  0   0  4
  [341] .text._RNvMNtNtCsakCY22H5bhg_4core3mem9alignmentNtB2_9Alignment16as_nonzero_usizeCsevzKAMQQtOE_5alloc PROGBITS        8020bbe4 00cbe4 000010 00  AX  0   0  4
  [342] .text._RNvMNtNtCsakCY22H5bhg_4core3mem9alignmentNtB2_9Alignment3newCsevzKAMQQtOE_5alloc PROGBITS        8020bbf4 00cbf4 0000b4 00  AX  0   0  4
  [343] .text._RNvMNtNtCsakCY22H5bhg_4core3mem9alignmentNtB2_9Alignment8as_usizeCsevzKAMQQtOE_5alloc PROGBITS        8020bca8 00cca8 000028 00  AX  0   0  4
  [344] .text._RNvMNtNtCsakCY22H5bhg_4core3ptr7mut_ptrOh7is_nullCsevzKAMQQtOE_5alloc PROGBITS        8020bcd0 00ccd0 000024 00  AX  0   0  4
  [345] .text._RNvMNtNtCsakCY22H5bhg_4core3ptr7mut_ptrOu7is_nullCsevzKAMQQtOE_5alloc PROGBITS        8020bcf4 00ccf4 000024 00  AX  0   0  4
  [346] .text._RNvMNtNtCsakCY22H5bhg_4core3ptr9const_ptrPh22copy_to_nonoverlappingCsevzKAMQQtOE_5alloc PROGBITS        8020bd18 00cd18 000084 00  AX  0   0  4
  [347] .text._RNvMNtNtCsakCY22H5bhg_4core3ptr9const_ptrPh7is_nullCsevzKAMQQtOE_5alloc PROGBITS        8020bd9c 00cd9c 000024 00  AX  0   0  4
  [348] .text._RNvMNtNtCsakCY22H5bhg_4core4char7methodsc8len_utf8CsevzKAMQQtOE_5alloc PROGBITS        8020bdc0 00cdc0 000020 00  AX  0   0  4
  [349] .text._RNvMs1_NtCsevzKAMQQtOE_5alloc3vecINtB5_3VechE17extend_from_sliceB7_ PROGBITS        8020bde0 00cde0 000060 00  AX  0   0  4
  [350] .text._RNvMsF_NtCsevzKAMQQtOE_5alloc3vecINtB5_3VechE16with_capacity_inB7_ PROGBITS        8020be40 00ce40 00004c 00  AX  0   0  4
  [351] .text._RNvMs_NtCsevzKAMQQtOE_5alloc3vecINtB4_3VechE10as_mut_ptrB6_ PROGBITS        8020be8c 00ce8c 000020 00  AX  0   0  4
  [352] .text._RNvMs_NtCsevzKAMQQtOE_5alloc3vecINtB4_3VechE15append_elementsB6_ PROGBITS        8020beac 00ceac 00018c 00  AX  0   0  4
  [353] .text._RNvMs_NtCsevzKAMQQtOE_5alloc3vecINtB4_3VechE3lenB6_ PROGBITS        8020c038 00d038 000018 00  AX  0   0  4
  [354] .text._RNvMs_NtCsevzKAMQQtOE_5alloc3vecINtB4_3VechE6as_ptrB6_ PROGBITS        8020c050 00d050 000020 00  AX  0   0  4
  [355] .text._RNvMs_NtCsevzKAMQQtOE_5alloc3vecINtB4_3VechE7reserveB6_ PROGBITS        8020c070 00d070 00002c 00  AX  0   0  4
  [356] .text._RNvMs_NtCsevzKAMQQtOE_5alloc3vecINtB4_3VechE7set_lenB6_ PROGBITS        8020c09c 00d09c 00005c 00  AX  0   0  4
  [357] .text._RNvMs_NtCsevzKAMQQtOE_5alloc3vecINtB4_3VechE8as_sliceB6_ PROGBITS        8020c0f8 00d0f8 00002c 00  AX  0   0  4
  [358] .text._RNvMs_NtCsevzKAMQQtOE_5alloc3vecINtB4_3VechE8capacityB6_ PROGBITS        8020c124 00d124 000020 00  AX  0   0  4
  [359] .text._RNvNtCsevzKAMQQtOE_5alloc5alloc12alloc_zeroedB3_ PROGBITS        8020c144 00d144 000058 00  AX  0   0  4
  [360] .text._RNvNtCsevzKAMQQtOE_5alloc5alloc15dealloc_nonnullB3_ PROGBITS        8020c19c 00d19c 00005c 00  AX  0   0  4
  [361] .text._RNvNtCsevzKAMQQtOE_5alloc5alloc15realloc_nonnullB3_ PROGBITS        8020c1f8 00d1f8 000068 00  AX  0   0  4
  [362] .text._RNvNtCsevzKAMQQtOE_5alloc5alloc18handle_alloc_error PROGBITS        8020c260 00d260 000014 00  AX  0   0  4
  [363] .text._RNvNtCsevzKAMQQtOE_5alloc5alloc5allocB3_ PROGBITS        8020c274 00d274 000058 00  AX  0   0  4
  [364] .text._RNvNtNtCsakCY22H5bhg_4core3str8converts19from_utf8_uncheckedCsevzKAMQQtOE_5alloc PROGBITS        8020c2cc 00d2cc 000014 00  AX  0   0  4
  [365] .text._RNvNtNtCsakCY22H5bhg_4core4char7methods25encode_utf8_raw_uncheckedCsevzKAMQQtOE_5alloc PROGBITS        8020c2e0 00d2e0 0002a8 00  AX  0   0  4
  [366] .text._RNvNtNtCsakCY22H5bhg_4core4char7methods8len_utf8CsevzKAMQQtOE_5alloc PROGBITS        8020c588 00d588 000074 00  AX  0   0  4
  [367] .text._RNvNvMNtNtCsakCY22H5bhg_4core3mem9alignmentNtB4_9Alignment13new_unchecked18precondition_checkCsevzKAMQQtOE_5alloc PROGBITS        8020c5fc 00d5fc 0000c0 00  AX  0   0  4
  [368] .text._RNvNvMNtNtCsakCY22H5bhg_4core3ptr7mut_ptrOp3add18precondition_checkCsevzKAMQQtOE_5alloc PROGBITS        8020c6bc 00d6bc 00006c 00  AX  0   0  4
  [369] .text._RNvNvMNtNtCsakCY22H5bhg_4core3ptr7mut_ptrOp3add18runtime_add_nowrapCsevzKAMQQtOE_5alloc PROGBITS        8020c728 00d728 000040 00  AX  0   0  4
  [370] .text._RNvNvMNtNtCsakCY22H5bhg_4core3ptr9const_ptrPp7is_null7runtimeCsevzKAMQQtOE_5alloc PROGBITS        8020c768 00d768 00001c 00  AX  0   0  4
  [371] .text._RNvNvMs_NtCsevzKAMQQtOE_5alloc3vecINtB6_3VecppE7set_len18precondition_checkB8_ PROGBITS        8020c784 00d784 000060 00  AX  0   0  4
  [372] .text._RNvNvNtCsakCY22H5bhg_4core3ptr11write_bytes18precondition_checkCsevzKAMQQtOE_5alloc PROGBITS        8020c7e4 00d7e4 00006c 00  AX  0   0  4
  [373] .text._RNvNvNtCsakCY22H5bhg_4core3ptr19copy_nonoverlapping18precondition_checkCsevzKAMQQtOE_5alloc PROGBITS        8020c850 00d850 000110 00  AX  0   0  4
  [374] .text._RNvNvNtCsevzKAMQQtOE_5alloc3fmt6format12format_inner PROGBITS        8020c960 00d960 000090 00  AX  0   0  4
  [375] .text._RNvNvNtCsevzKAMQQtOE_5alloc5alloc18handle_alloc_error8rt_errorB5_ PROGBITS        8020c9f0 00d9f0 000044 00  AX  0   0  4
  [376] .text._RNvNvNvMNtNtCsakCY22H5bhg_4core3ptr7mut_ptrOp3add18runtime_add_nowrap7runtimeCsevzKAMQQtOE_5alloc PROGBITS        8020ca34 00da34 0000c8 00  AX  0   0  4
  [377] .text._RNvXs0_NtCsevzKAMQQtOE_5alloc11collectionsNtB5_15TryReserveErrorINtNtCsakCY22H5bhg_4core7convert4FromNtB5_19TryReserveErrorKindE4fromB7_ PROGBITS        8020cafc 00dafc 000014 00  AX  0   0  4
  [378] .text._RNvXs1_NtCsakCY22H5bhg_4core7convertNtNtCsevzKAMQQtOE_5alloc11collections19TryReserveErrorKindINtB5_4IntoNtBA_15TryReserveErrorE4intoBC_ PROGBITS        8020cb10 00db10 000024 00  AX  0   0  4
  [379] .text._RNvXs2_NtNtCsevzKAMQQtOE_5alloc3vec11spec_extendINtB7_3VechEINtB5_10SpecExtendRhINtNtNtCsakCY22H5bhg_4core5slice4iter4IterhEE11spec_extendB9_ PROGBITS        8020cb34 00db34 000054 00  AX  0   0  4
  [380] .text._RNvXs_NtCsevzKAMQQtOE_5alloc11collectionsNtB4_19TryReserveErrorKindNtNtCsakCY22H5bhg_4core5clone5Clone5clone PROGBITS        8020cb88 00db88 000050 00  AX  0   0  4
  [381] .text._RNvXs_NtCsevzKAMQQtOE_5alloc5allocNtB4_6GlobalNtNtCsakCY22H5bhg_4core5alloc9Allocator10deallocateB6_ PROGBITS        8020cbd8 00dbd8 00002c 00  AX  0   0  4
  [382] .text._RNvXs_NtCsevzKAMQQtOE_5alloc5allocNtB4_6GlobalNtNtCsakCY22H5bhg_4core5alloc9Allocator15allocate_zeroedB6_ PROGBITS        8020cc04 00dc04 00002c 00  AX  0   0  4
  [383] .text._RNvXs_NtCsevzKAMQQtOE_5alloc5allocNtB4_6GlobalNtNtCsakCY22H5bhg_4core5alloc9Allocator4growB6_ PROGBITS        8020cc30 00dc30 000038 00  AX  0   0  4
  [384] .text._RNvXs_NtCsevzKAMQQtOE_5alloc5allocNtB4_6GlobalNtNtCsakCY22H5bhg_4core5alloc9Allocator8allocateB6_ PROGBITS        8020cc68 00dc68 00002c 00  AX  0   0  4
  [385] .text._RNvXso_NtCsevzKAMQQtOE_5alloc3vecINtB5_3VechENtNtNtCsakCY22H5bhg_4core3ops4drop4Drop4dropB7_ PROGBITS        8020cc94 00dc94 000034 00  AX  0   0  4
  [386] .text._RNvNtNtCsakCY22H5bhg_4core3fmt3num19slice_buffer_to_str PROGBITS        8020ccc8 00dcc8 000048 00  AX  0   0  4
  [387] .text._RNvXs2_NtNtCsakCY22H5bhg_4core3fmt3numjNtB7_6Binary3fmt PROGBITS        8020cd10 00dd10 0001ac 00  AX  0   0  4
  [388] .text._RNvXs6_NtNtCsakCY22H5bhg_4core3fmt3numjNtB7_8LowerHex3fmt PROGBITS        8020cebc 00debc 0001ac 00  AX  0   0  4
  [389] .text._RNvXs8_NtNtCsakCY22H5bhg_4core3fmt3numjNtB7_8UpperHex3fmt PROGBITS        8020d068 00e068 0001ac 00  AX  0   0  4
  [390] .text._RNvXsW_NtNtCsakCY22H5bhg_4core3fmt3nummNtB7_5Debug3fmtB9_ PROGBITS        8020d214 00e214 00009c 00  AX  0   0  4
  [391] .text._RNvXsZ_NtNtCsakCY22H5bhg_4core3fmt3numjNtB7_5Debug3fmtB9_ PROGBITS        8020d2b0 00e2b0 00009c 00  AX  0   0  4
  [392] .text._RNvXsu_NtNtCsakCY22H5bhg_4core3fmt3nummNtB7_8LowerHex3fmt PROGBITS        8020d34c 00e34c 0001ac 00  AX  0   0  4
  [393] .text._RNvXsw_NtNtCsakCY22H5bhg_4core3fmt3nummNtB7_8UpperHex3fmt PROGBITS        8020d4f8 00e4f8 0001ac 00  AX  0   0  4
  [394] .text._RNvMs0_NtCsakCY22H5bhg_4core3numl12unsigned_absB7_ PROGBITS        8020d6a4 00e6a4 000020 00  AX  0   0  4
  [395] .text._RNvMs0_NtCsakCY22H5bhg_4core3numl12wrapping_absB7_ PROGBITS        8020d6c4 00e6c4 000050 00  AX  0   0  4
  [396] .text._RNvMs4_NtCsakCY22H5bhg_4core3numh21is_utf8_char_boundaryB7_ PROGBITS        8020d714 00e714 000024 00  AX  0   0  4
  [397] .text._RNvMs5_NtCsakCY22H5bhg_4core3numt13from_le_bytesB7_ PROGBITS        8020d738 00e738 000040 00  AX  0   0  4
  [398] .text._RNvMs5_NtCsakCY22H5bhg_4core3numt13from_ne_bytesB7_ PROGBITS        8020d778 00e778 000028 00  AX  0   0  4
  [399] .text._RNvMs6_NtCsakCY22H5bhg_4core3numm13from_le_bytesB7_ PROGBITS        8020d7a0 00e7a0 000040 00  AX  0   0  4
  [400] .text._RNvMs6_NtCsakCY22H5bhg_4core3numm13from_ne_bytesB7_ PROGBITS        8020d7e0 00e7e0 000040 00  AX  0   0  4
  [401] .text._RNvMs9_NtCsakCY22H5bhg_4core3numj11checked_mulB7_ PROGBITS        8020d820 00e820 0000a0 00  AX  0   0  4
  [402] .text._RNvMs9_NtCsakCY22H5bhg_4core3numj11checked_subB7_ PROGBITS        8020d8c0 00e8c0 000054 00  AX  0   0  4
  [403] .text._RNvMs9_NtCsakCY22H5bhg_4core3numj13from_ne_bytesB7_ PROGBITS        8020d914 00e914 000040 00  AX  0   0  4
  [404] .text._RNvMs9_NtCsakCY22H5bhg_4core3numj14is_multiple_ofB7_ PROGBITS        8020d954 00e954 00006c 00  AX  0   0  4
  [405] .text._RNvMsa_NtCsakCY22H5bhg_4core3numj9repeat_u8B7_ PROGBITS        8020d9c0 00e9c0 00003c 00  AX  0   0  4
  [406] .text._RNvNvMs5_NtCsakCY22H5bhg_4core3numt13unchecked_add18precondition_checkB9_ PROGBITS        8020d9fc 00e9fc 00008c 00  AX  0   0  4
  [407] .text._RNvNvMs9_NtCsakCY22H5bhg_4core3numj13unchecked_add18precondition_checkB9_ PROGBITS        8020da88 00ea88 000084 00  AX  0   0  4
  [408] .text._RNvNvMs9_NtCsakCY22H5bhg_4core3numj13unchecked_sub18precondition_checkB9_ PROGBITS        8020db0c 00eb0c 000078 00  AX  0   0  4
  [409] .text._RNvMs8_NtCsakCY22H5bhg_4core4charNtB5_11EscapeDebug7unicodeB7_ PROGBITS        8020db84 00eb84 00004c 00  AX  0   0  4
  [410] .text._RNvMs8_NtCsakCY22H5bhg_4core4charNtB5_11EscapeDebug9backslashB7_ PROGBITS        8020dbd0 00ebd0 00004c 00  AX  0   0  4
  [411] .text._RNvMs8_NtCsakCY22H5bhg_4core4charNtB5_11EscapeDebug9printableB7_ PROGBITS        8020dc1c 00ec1c 00004c 00  AX  0   0  4
  [412] .text._RNvNtNtCsakCY22H5bhg_4core9panicking11panic_const23panic_const_div_by_zero PROGBITS        8020dc68 00ec68 00002c 00  AX  0   0  4
  [413] .text._RNvNtNtCsakCY22H5bhg_4core9panicking11panic_const23panic_const_rem_by_zero PROGBITS        8020dc94 00ec94 00002c 00  AX  0   0  4
  [414] .text._RNvNtNtCsakCY22H5bhg_4core9panicking11panic_const24panic_const_add_overflow PROGBITS        8020dcc0 00ecc0 00002c 00  AX  0   0  4
  [415] .text._RNvNtNtCsakCY22H5bhg_4core9panicking11panic_const24panic_const_mul_overflow PROGBITS        8020dcec 00ecec 00002c 00  AX  0   0  4
  [416] .text._RNvNtNtCsakCY22H5bhg_4core9panicking11panic_const24panic_const_shl_overflow PROGBITS        8020dd18 00ed18 00002c 00  AX  0   0  4
  [417] .text._RNvNtNtCsakCY22H5bhg_4core9panicking11panic_const24panic_const_shr_overflow PROGBITS        8020dd44 00ed44 00002c 00  AX  0   0  4
  [418] .text._RNvNtNtCsakCY22H5bhg_4core9panicking11panic_const24panic_const_sub_overflow PROGBITS        8020dd70 00ed70 00002c 00  AX  0   0  4
  [419] .text._RNvXsa_NtCsakCY22H5bhg_4core4charNtB5_11EscapeDebugNtNtNtNtB7_4iter6traits10exact_size17ExactSizeIterator3len PROGBITS        8020dd9c 00ed9c 000020 00  AX  0   0  4
  [420] .text._RNvXsc_NtCsakCY22H5bhg_4core4charNtB5_11EscapeDebugNtNtB7_3fmt7Display3fmtB7_ PROGBITS        8020ddbc 00edbc 000024 00  AX  0   0  4
  [421] .text._RINvMNtCsakCY22H5bhg_4core5sliceSNtNtNtB5_7unicode12unicode_data20ShortOffsetRunHeader13get_uncheckedjEB5_ PROGBITS        8020dde0 00ede0 000038 00  AX  0   0  4
  [422] .text._RINvMNtCsakCY22H5bhg_4core5sliceSNtNtNtB5_7unicode12unicode_data20ShortOffsetRunHeader16binary_search_byNCINvB2_20binary_search_by_keymNCINvBx_11skip_searchKj21_Kj2ff_E0E0EB5_ PROGBITS        8020de18 00ee18 00036c 00  AX  0   0  4
  [423] .text._RINvMNtCsakCY22H5bhg_4core5sliceSNtNtNtB5_7unicode12unicode_data20ShortOffsetRunHeader20binary_search_by_keymNCINvBx_11skip_searchKj21_Kj2ff_E0EB5_ PROGBITS        8020e184 00f184 000030 00  AX  0   0  4
  [424] .text._RINvMNtCsakCY22H5bhg_4core5sliceSNtNtNtB5_7unicode12unicode_data20ShortOffsetRunHeader3getjEB5_ PROGBITS        8020e1b4 00f1b4 000038 00  AX  0   0  4
  [425] .text._RINvMNtCsakCY22H5bhg_4core5sliceSh13get_uncheckedjEB5_ PROGBITS        8020e1ec 00f1ec 000038 00  AX  0   0  4
  [426] .text._RINvMNtCsakCY22H5bhg_4core5sliceSh16align_to_offsetsjEB5_ PROGBITS        8020e224 00f224 0000bc 00  AX  0   0  4
  [427] .text._RINvMNtCsakCY22H5bhg_4core5sliceSh3getINtNtNtB5_3ops5range5RangejEEB5_ PROGBITS        8020e2e0 00f2e0 000044 00  AX  0   0  4
  [428] .text._RINvMNtCsakCY22H5bhg_4core5sliceSh8align_tojEB5_ PROGBITS        8020e324 00f324 000214 00  AX  0   0  4
  [429] .text._RINvMNtCsakCY22H5bhg_4core5sliceSj19as_chunks_uncheckedKj4_EB5_ PROGBITS        8020e538 00f538 000080 00  AX  0   0  4
  [430] .text._RINvMNtCsakCY22H5bhg_4core5sliceSj9as_chunksKj4_EB5_ PROGBITS        8020e5b8 00f5b8 0000d4 00  AX  0   0  4
  [431] .text._RINvMNtCsakCY22H5bhg_4core6resultINtB3_6ResultuNtNtB5_3fmt5ErrorE8and_thenuNCINvMs1_NtBL_8buildersNtB1k_11DebugStruct10field_withNCNvB1g_5field0E0EB5_ PROGBITS        8020e68c 00f68c 0000a8 00  AX  0   0  4
  [432] .text._RINvMNtCsakCY22H5bhg_4core6resultINtB3_6ResultuNtNtB5_3fmt5ErrorE8and_thenuNCINvMs2_NtBL_8buildersNtB1k_10DebugTuple10field_withNCNvB1g_5field0E0EB5_ PROGBITS        8020e734 00f734 000098 00  AX  0   0  4
  [433] .text._RINvMNtCsakCY22H5bhg_4core6resultINtB3_6ResultuNtNtB5_3fmt5ErrorE8and_thenuNCNvMs1_NtBL_8buildersNtB1j_11DebugStruct6finish0EB5_ PROGBITS        8020e7cc 00f7cc 000080 00  AX  0   0  4
  [434] .text._RINvMNtCsakCY22H5bhg_4core6resultINtB3_6ResultuNtNtB5_3fmt5ErrorE8and_thenuNCNvMs2_NtBL_8buildersNtB1j_10DebugTuple6finish0EB5_ PROGBITS        8020e84c 00f84c 000080 00  AX  0   0  4
  [435] .text._RINvNtCsakCY22H5bhg_4core3mem6forgetINtNvNtB4_4hint20select_unpredictable11DropOnPanicjEEB4_ PROGBITS        8020e8cc 00f8cc 000024 00  AX  0   0  4
  [436] .text._RNCINvMNtCsakCY22H5bhg_4core5sliceSNtNtNtB7_7unicode12unicode_data20ShortOffsetRunHeader20binary_search_by_keymNCINvBz_11skip_searchKj21_Kj2ff_E0E0B7_ PROGBITS        8020e8f0 00f8f0 000048 00  AX  0   0  4
  [437] .text._RNCINvNtNtCsakCY22H5bhg_4core7unicode12unicode_data11skip_searchKj21_Kj2ff_E0B8_ PROGBITS        8020e938 00f938 00001c 00  AX  0   0  4
  [438] .text._RNCINvNtNtCsakCY22H5bhg_4core7unicode12unicode_data11skip_searchKj21_Kj2ff_Es_0B8_ PROGBITS        8020e954 00f954 000060 00  AX  0   0  4
  [439] .text._RNvMNtCsakCY22H5bhg_4core5sliceSAjj4_4iterB4_ PROGBITS        8020e9b4 00f9b4 000024 00  AX  0   0  4
  [440] .text._RNvMNtCsakCY22H5bhg_4core5sliceSThhE4iterB4_ PROGBITS        8020e9d8 00f9d8 000024 00  AX  0   0  4
  [441] .text._RNvMNtCsakCY22H5bhg_4core5sliceSh16split_at_checkedB4_ PROGBITS        8020e9fc 00f9fc 000090 00  AX  0   0  4
  [442] .text._RNvMNtCsakCY22H5bhg_4core5sliceSh18split_at_uncheckedB4_ PROGBITS        8020ea8c 00fa8c 000100 00  AX  0   0  4
  [443] .text._RNvMNtCsakCY22H5bhg_4core5sliceSh4iterB4_ PROGBITS        8020eb8c 00fb8c 000024 00  AX  0   0  4
  [444] .text._RNvMNtCsakCY22H5bhg_4core5sliceSh8split_atB4_ PROGBITS        8020ebb0 00fbb0 000084 00  AX  0   0  4
  [445] .text._RNvMNtCsakCY22H5bhg_4core5sliceSh9ends_withB4_ PROGBITS        8020ec34 00fc34 0000c4 00  AX  0   0  4
  [446] .text._RNvMNtCsakCY22H5bhg_4core5sliceSj16split_at_checkedB4_ PROGBITS        8020ecf8 00fcf8 000090 00  AX  0   0  4
  [447] .text._RNvMNtCsakCY22H5bhg_4core5sliceSj18split_at_uncheckedB4_ PROGBITS        8020ed88 00fd88 000104 00  AX  0   0  4
  [448] .text._RNvMNtCsakCY22H5bhg_4core5sliceSj4iterB4_ PROGBITS        8020ee8c 00fe8c 000024 00  AX  0   0  4
  [449] .text._RNvMNtCsakCY22H5bhg_4core5sliceSj6chunksB4_ PROGBITS        8020eeb0 00feb0 000074 00  AX  0   0  4
  [450] .text._RNvMNtCsakCY22H5bhg_4core5sliceSj8is_emptyB4_ PROGBITS        8020ef24 00ff24 000018 00  AX  0   0  4
  [451] .text._RNvMNtCsakCY22H5bhg_4core5sliceSj8split_atB4_ PROGBITS        8020ef3c 00ff3c 000084 00  AX  0   0  4
  [452] .text._RNvMNtCsakCY22H5bhg_4core6resultINtB2_6ResultcNtNtNtB4_4char7convert16CharTryFromErrorE5is_okB4_ PROGBITS        8020efc0 00ffc0 00003c 00  AX  0   0  4
  [453] .text._RNvMNtCsakCY22H5bhg_4core6resultINtB2_6ResulthNtNtNtB4_3num5error15TryFromIntErrorE6expectB4_ PROGBITS        8020effc 00fffc 000060 00  AX  0   0  4
  [454] .text._RNvMNtCsakCY22H5bhg_4core6resultINtB2_6ResultjNtNtNtB4_3num5error15TryFromIntErrorE6expectB4_ PROGBITS        8020f05c 01005c 000060 00  AX  0   0  4
  [455] .text._RNvMNtCsakCY22H5bhg_4core6resultINtB2_6ResultmNtNtNtB4_3num5error15TryFromIntErrorE6expectB4_ PROGBITS        8020f0bc 0100bc 000060 00  AX  0   0  4
  [456] .text._RNvMNtNtCsakCY22H5bhg_4core7unicode12unicode_dataNtB2_20ShortOffsetRunHeader10prefix_sumB6_ PROGBITS        8020f11c 01011c 00001c 00  AX  0   0  4
  [457] .text._RNvMNtNtCsakCY22H5bhg_4core7unicode12unicode_dataNtB2_20ShortOffsetRunHeader11start_indexB6_ PROGBITS        8020f138 010138 000018 00  AX  0   0  4
  [458] .text._RNvMs1_NtNtCsakCY22H5bhg_4core3ptr9const_ptrPSNtNtNtB9_7unicode12unicode_data20ShortOffsetRunHeader3lenB9_ PROGBITS        8020f150 010150 000024 00  AX  0   0  4
  [459] .text._RNvNtCsakCY22H5bhg_4core6result13unwrap_failed PROGBITS        8020f174 010174 00008c 00  AX  0   0  4
  [460] .text._RNvNtNtCsakCY22H5bhg_4core3str8converts14from_raw_partsB5_ PROGBITS        8020f200 010200 000024 00  AX  0   0  4
  [461] .text._RNvNtNtCsakCY22H5bhg_4core3str8converts19from_utf8_uncheckedB5_ PROGBITS        8020f224 010224 000014 00  AX  0   0  4
  [462] .text._RNvNtNtCsakCY22H5bhg_4core3str8converts23from_utf8_unchecked_mutB5_ PROGBITS        8020f238 010238 000014 00  AX  0   0  4
  [463] .text._RNvNvMNtCsakCY22H5bhg_4core5sliceSp18split_at_unchecked18precondition_checkB6_ PROGBITS        8020f24c 01024c 000060 00  AX  0   0  4
  [464] .text._RNvNvMNtCsakCY22H5bhg_4core5sliceSp19as_chunks_unchecked18precondition_checkB6_ PROGBITS        8020f2ac 0102ac 000080 00  AX  0   0  4
  [465] .text._RNvXsp_NtCsakCY22H5bhg_4core6resultINtB5_6ResultNtNtB7_3fmt11PostPaddingNtBM_5ErrorENtNtNtB7_3ops9try_trait3Try6branchB7_ PROGBITS        8020f32c 01032c 000054 00  AX  0   0  4
  [466] .text._RNvXsp_NtCsakCY22H5bhg_4core6resultINtB5_6ResultuNtNtB7_3fmt5ErrorENtNtNtB7_3ops9try_trait3Try6branchB7_ PROGBITS        8020f380 010380 00003c 00  AX  0   0  4
  [467] .text._RNvXsq_NtCsakCY22H5bhg_4core6resultINtB5_6ResultNtNtB7_3fmt11PostPaddingNtBM_5ErrorEINtNtNtB7_3ops9try_trait12FromResidualIBy_NtNtB7_7convert10InfallibleB18_EE13from_residualB7_ PROGBITS        8020f3bc 0103bc 000014 00  AX  0   0  4
  [468] .text._RNvXsq_NtCsakCY22H5bhg_4core6resultINtB5_6ResultuNtNtB7_3fmt5ErrorEINtNtNtB7_3ops9try_trait12FromResidualIBy_NtNtB7_7convert10InfallibleBL_EE13from_residualB7_ PROGBITS        8020f3d0 0103d0 000014 00  AX  0   0  4
  [469] .text._RINvMNtCsakCY22H5bhg_4core3stre13get_uncheckedINtNtNtB5_3ops5range5RangejEEB5_ PROGBITS        8020f3e4 0103e4 00004c 00  AX  0   0  4
  [470] .text._RINvMNtCsakCY22H5bhg_4core3stre13get_uncheckedINtNtNtB5_3ops5range7RangeTojEEB5_ PROGBITS        8020f430 010430 000038 00  AX  0   0  4
  [471] .text._RINvMNtCsakCY22H5bhg_4core3stre13get_uncheckedINtNtNtB5_3ops5range9RangeFromjEEB5_ PROGBITS        8020f468 010468 000038 00  AX  0   0  4
  [472] .text._RINvMNtCsakCY22H5bhg_4core3stre15split_inclusivecEB5_ PROGBITS        8020f4a0 0104a0 0000c8 00  AX  0   0  4
  [473] .text._RINvMNtCsakCY22H5bhg_4core3stre9ends_withcEB5_ PROGBITS        8020f568 010568 000038 00  AX  0   0  4
  [474] .text._RNvMNtCsakCY22H5bhg_4core3stre12char_indicesB4_ PROGBITS        8020f5a0 0105a0 000058 00  AX  0   0  4
  [475] .text._RNvMNtCsakCY22H5bhg_4core3stre16is_char_boundaryB4_ PROGBITS        8020f5f8 0105f8 0000ec 00  AX  0   0  4
  [476] .text._RNvMNtCsakCY22H5bhg_4core3stre18ceil_char_boundaryB4_ PROGBITS        8020f6e4 0106e4 000188 00  AX  0   0  4
  [477] .text._RNvMNtCsakCY22H5bhg_4core3stre19floor_char_boundaryB4_ PROGBITS        8020f86c 01086c 000164 00  AX  0   0  4
  [478] .text._RNvMNtCsakCY22H5bhg_4core3stre3lenB4_ PROGBITS        8020f9d0 0109d0 000028 00  AX  0   0  4
  [479] .text._RNvMNtCsakCY22H5bhg_4core3stre5charsB4_ PROGBITS        8020f9f8 0109f8 00002c 00  AX  0   0  4
  [480] .text._RNvMNtCsakCY22H5bhg_4core3stre8is_emptyB4_ PROGBITS        8020fa24 010a24 000028 00  AX  0   0  4
  [481] .text._RNvMNtNtCsakCY22H5bhg_4core4char7methodsc11encode_utf8B6_ PROGBITS        8020fa4c 010a4c 000030 00  AX  0   0  4
  [482] .text._RNvMNtNtCsakCY22H5bhg_4core4char7methodsc16escape_debug_extB6_ PROGBITS        8020fa7c 010a7c 0001c4 00  AX  0   0  4
  [483] .text._RNvMNtNtCsakCY22H5bhg_4core4char7methodsc18from_u32_uncheckedB6_ PROGBITS        8020fc40 010c40 000028 00  AX  0   0  4
  [484] .text._RNvMNtNtCsakCY22H5bhg_4core4char7methodsc20is_grapheme_extendedB6_ PROGBITS        8020fc68 010c68 000050 00  AX  0   0  4
  [485] .text._RNvMNtNtCsakCY22H5bhg_4core4char7methodsc8is_asciiB6_ PROGBITS        8020fcb8 010cb8 000018 00  AX  0   0  4
  [486] .text._RNvMNtNtCsakCY22H5bhg_4core4char7methodsc8len_utf8B6_ PROGBITS        8020fcd0 010cd0 000020 00  AX  0   0  4
  [487] .text._RNvMNtNtNtCsakCY22H5bhg_4core4iter8adapters3revINtB2_3RevINtNtNtB8_3ops5range5RangejEE3newB8_ PROGBITS        8020fcf0 010cf0 000014 00  AX  0   0  4
  [488] .text._RNvMse_NtNtCsakCY22H5bhg_4core3num7nonzeroINtB5_7NonZerojE3getB9_ PROGBITS        8020fd04 010d04 000010 00  AX  0   0  4
  [489] .text._RNvMse_NtNtCsakCY22H5bhg_4core3num7nonzeroINtB5_7NonZerojE3newB9_ PROGBITS        8020fd14 010d14 000010 00  AX  0   0  4
  [490] .text._RNvNtCsakCY22H5bhg_4core3str16slice_error_fail PROGBITS        8020fd24 010d24 00003c 00  AX  0   0  4
  [491] .text._RNvNtCsakCY22H5bhg_4core3str19slice_error_fail_rt PROGBITS        8020fd60 010d60 000510 00  AX  0   0  4
  [492] .text._RNvNtNtCsakCY22H5bhg_4core4char7convert17char_try_from_u32B5_ PROGBITS        80210270 011270 000060 00  AX  0   0  4
  [493] .text._RNvNtNtCsakCY22H5bhg_4core4char7convert18from_u32_uncheckedB5_ PROGBITS        802102d0 0112d0 000048 00  AX  0   0  4
  [494] .text._RNvNtNtCsakCY22H5bhg_4core4char7methods15encode_utf8_rawB5_ PROGBITS        80210318 011318 0000cc 00  AX  0   0  4
  [495] .text._RNvNtNtCsakCY22H5bhg_4core4char7methods25encode_utf8_raw_uncheckedB5_ PROGBITS        802103e4 0113e4 0002a8 00  AX  0   0  4
  [496] .text._RNvNtNtCsakCY22H5bhg_4core4char7methods8len_utf8B5_ PROGBITS        8021068c 01168c 000074 00  AX  0   0  4
  [497] .text._RNvNvNtNtCsakCY22H5bhg_4core4char7convert18from_u32_unchecked18precondition_checkB7_ PROGBITS        80210700 011700 000074 00  AX  0   0  4
  [498] .text._RNvNvNvNtNtCsakCY22H5bhg_4core4char7methods15encode_utf8_raw8do_panic7runtimeB9_ PROGBITS        80210774 011774 0000b0 00  AX  0   0  4
  [499] .text._RNvXNtNtNtCsakCY22H5bhg_4core4iter6traits7collectINtNtNtB6_8adapters3rev3RevINtNtNtB8_3ops5range5RangejEENtB2_12IntoIterator9into_iterB8_ PROGBITS        80210824 011824 000014 00  AX  0   0  4
  [500] .text._RNvXs_NtNtNtCsakCY22H5bhg_4core4iter8adapters3revINtB4_3RevINtNtNtBa_3ops5range5RangejEENtNtNtB8_6traits8iterator8Iterator4nextBa_ PROGBITS        80210838 011838 000020 00  AX  0   0  4
  [501] .text._RNvMNtNtCsakCY22H5bhg_4core5alloc6layoutNtB2_6Layout23is_size_alignment_valid PROGBITS        80210858 011858 000050 00  AX  0   0  4
  [502] .text._RNvMNtNtCsakCY22H5bhg_4core5panic10panic_infoNtB2_9PanicInfo3newB6_ PROGBITS        802108a8 0118a8 00002c 00  AX  0   0  4
  [503] .text._RNvMsa_NtNtNtCsakCY22H5bhg_4core3fmt3num3impm10__fmt_inner PROGBITS        802108d4 0118d4 000b28 00  AX  0   0  4
  [504] .text._RNvMsa_NtNtNtCsakCY22H5bhg_4core3fmt3num3impm4__fmt PROGBITS        802113fc 0123fc 000048 00  AX  0   0  4
  [505] .text._RNvMsf_NtNtNtCsakCY22H5bhg_4core3fmt3num3impj10__fmt_inner PROGBITS        80211444 012444 000b28 00  AX  0   0  4
  [506] .text._RNvMsf_NtNtNtCsakCY22H5bhg_4core3fmt3num3impj4__fmt PROGBITS        80211f6c 012f6c 000048 00  AX  0   0  4
  [507] .text._RNvXs8_NtNtNtCsakCY22H5bhg_4core3fmt3num3impmNtB9_7Display3fmt PROGBITS        80211fb4 012fb4 000054 00  AX  0   0  4
  [508] .text._RNvXs9_NtNtNtCsakCY22H5bhg_4core3fmt3num3implNtB9_7Display3fmt PROGBITS        80212008 013008 000068 00  AX  0   0  4
  [509] .text._RNvXsd_NtNtNtCsakCY22H5bhg_4core3fmt3num3impjNtB9_7Display3fmt PROGBITS        80212070 013070 000054 00  AX  0   0  4
  [510] .text._RINvMNtCsakCY22H5bhg_4core5sliceSNtNtNtB5_5ascii10ascii_char9AsciiChar13get_uncheckedINtNtNtB5_3ops5range5RangejEEB5_ PROGBITS        802120c4 0130c4 000044 00  AX  0   0  4
  [511] .text._RINvMs2_NtCsakCY22H5bhg_4core3fmtNtB6_9Arguments3newKj27_Kj2_EB8_ PROGBITS        80212108 013108 000014 00  AX  0   0  4
  [512] .text._RINvMs2_NtCsakCY22H5bhg_4core3fmtNtB6_9Arguments3newKj28_Kj2_EB8_ PROGBITS        8021211c 01311c 000014 00  AX  0   0  4
  [513] .text._RINvMs2_NtCsakCY22H5bhg_4core3fmtNtB6_9Arguments3newKj2_Kj1_EB8_ PROGBITS        80212130 013130 000014 00  AX  0   0  4
  [514] .text._RINvMs2_NtCsakCY22H5bhg_4core3fmtNtB6_9Arguments3newKj37_Kj2_EB8_ PROGBITS        80212144 013144 000014 00  AX  0   0  4
  [515] .text._RINvMs2_NtCsakCY22H5bhg_4core3fmtNtB6_9Arguments3newKj37_Kj3_EB8_ PROGBITS        80212158 013158 000014 00  AX  0   0  4
  [516] .text._RINvMs2_NtCsakCY22H5bhg_4core3fmtNtB6_9Arguments3newKj39_Kj2_EB8_ PROGBITS        8021216c 01316c 000014 00  AX  0   0  4
  [517] .text._RINvMs2_NtCsakCY22H5bhg_4core3fmtNtB6_9Arguments3newKj3b_Kj2_EB8_ PROGBITS        80212180 013180 000014 00  AX  0   0  4
  [518] .text._RINvMs2_NtCsakCY22H5bhg_4core3fmtNtB6_9Arguments3newKj3b_Kj4_EB8_ PROGBITS        80212194 013194 000014 00  AX  0   0  4
  [519] .text._RINvMs2_NtCsakCY22H5bhg_4core3fmtNtB6_9Arguments3newKj3d_Kj2_EB8_ PROGBITS        802121a8 0131a8 000014 00  AX  0   0  4
  [520] .text._RINvMs2_NtCsakCY22H5bhg_4core3fmtNtB6_9Arguments3newKj47_Kj3_EB8_ PROGBITS        802121bc 0131bc 000014 00  AX  0   0  4
  [521] .text._RINvMs2_NtCsakCY22H5bhg_4core3fmtNtB6_9Arguments3newKj50_Kj3_EB8_ PROGBITS        802121d0 0131d0 000014 00  AX  0   0  4
  [522] .text._RINvMs2_NtCsakCY22H5bhg_4core3fmtNtB6_9Arguments3newKj52_Kj3_EB8_ PROGBITS        802121e4 0131e4 000014 00  AX  0   0  4
  [523] .text._RINvMs2_NtCsakCY22H5bhg_4core3fmtNtB6_9Arguments3newKj53_Kj2_EB8_ PROGBITS        802121f8 0131f8 000014 00  AX  0   0  4
  [524] .text._RINvMs2_NtCsakCY22H5bhg_4core3fmtNtB6_9Arguments3newKj6_Kj2_EB8_ PROGBITS        8021220c 01320c 000014 00  AX  0   0  4
  [525] .text._RINvMs2_NtCsakCY22H5bhg_4core3fmtNtB6_9Arguments3newKja_Kj1_EB8_ PROGBITS        80212220 013220 000014 00  AX  0   0  4
  [526] .text._RINvMsa_NtCsakCY22H5bhg_4core3fmtNtB6_9Formatter8wrap_bufNCNvMs_NtB6_8buildersNtB10_10PadAdapter4wrap0EB8_ PROGBITS        80212234 013234 000084 00  AX  0   0  4
  [527] .text._RINvNtNtCsakCY22H5bhg_4core4sync6atomic11atomic_loadhEB6_ PROGBITS        802122b8 0132b8 0000cc 00  AX  0   0  4
  [528] .text._RINvXsK_NtNtNtCsakCY22H5bhg_4core4iter6traits5accumjNtB6_3Sum3sumINtNtNtBa_8adapters3map3MapINtNtNtBc_5slice4iter4IterhENCINvNvXs1_NtB16_6filterINtB25_6FilterppENtNtB8_8iterator8Iterator5count8to_usizeRhNCNvNtNtBc_3str5count23char_count_general_case PROGBITS        80212384 013384 000028 00  AX  0   0  4
  [529] .text._RNCINvXsK_NtNtNtCsakCY22H5bhg_4core4iter6traits5accumjNtB8_3Sum3sumINtNtNtBc_8adapters3map3MapINtNtNtBe_5slice4iter4IterhENCINvNvXs1_NtB18_6filterINtB27_6FilterppENtNtBa_8iterator8Iterator5count8to_usizeRhNCNvNtNtBe_3str5count23char_count_general_ca PROGBITS        802123ac 0133ac 00003c 00  AX  0   0  4
  [530] .text._RNCNvXsh_NtCsakCY22H5bhg_4core3fmteNtB7_5Debug3fmt0B9_ PROGBITS        802123e8 0133e8 00002c 00  AX  0   0  4
  [531] .text._RNvMs1_NtCsakCY22H5bhg_4core3fmtNtB5_9Formatter3new PROGBITS        80212414 013414 00002c 00  AX  0   0  4
  [532] .text._RNvMs1_NtNtCsakCY22H5bhg_4core3ptr9const_ptrPSNtNtNtB9_5ascii10ascii_char9AsciiChar3lenB9_ PROGBITS        80212440 013440 000024 00  AX  0   0  4
  [533] .text._RNvMs4_NtCsakCY22H5bhg_4core3fmtNtB5_9Arguments23as_statically_known_strB7_ PROGBITS        80212464 013464 000074 00  AX  0   0  4
  [534] .text._RNvMs4_NtCsakCY22H5bhg_4core3fmtNtB5_9Arguments6as_strB7_ PROGBITS        802124d8 0134d8 000080 00  AX  0   0  4
  [535] .text._RNvMs4_NtCsakCY22H5bhg_4core3fmtNtB5_9Arguments8from_strB7_ PROGBITS        80212558 013558 000040 00  AX  0   0  4
  [536] .text._RNvMs9_NtCsakCY22H5bhg_4core3fmtNtB5_11PostPadding3new PROGBITS        80212598 013598 000014 00  AX  0   0  4
  [537] .text._RNvMs9_NtCsakCY22H5bhg_4core3fmtNtB5_11PostPadding5write PROGBITS        802125ac 0135ac 0000a8 00  AX  0   0  4
  [538] .text._RNvMs_NtCsakCY22H5bhg_4core3fmtNtB4_17FormattingOptions13get_precision PROGBITS        80212654 013654 000050 00  AX  0   0  4
  [539] .text._RNvMs_NtCsakCY22H5bhg_4core3fmtNtB4_17FormattingOptions3new PROGBITS        802126a4 0136a4 000020 00  AX  0   0  4
  [540] .text._RNvMs_NtCsakCY22H5bhg_4core3fmtNtB4_17FormattingOptions4fill PROGBITS        802126c4 0136c4 00002c 00  AX  0   0  4
  [541] .text._RNvMs_NtCsakCY22H5bhg_4core3fmtNtB4_17FormattingOptions5align PROGBITS        802126f0 0136f0 0000a0 00  AX  0   0  4
  [542] .text._RNvMs_NtCsakCY22H5bhg_4core3fmtNtB4_17FormattingOptions8get_fill PROGBITS        80212790 013790 00002c 00  AX  0   0  4
  [543] .text._RNvMs_NtCsakCY22H5bhg_4core3fmtNtB4_17FormattingOptions9get_align PROGBITS        802127bc 0137bc 00007c 00  AX  0   0  4
  [544] .text._RNvMs_NtNtCsakCY22H5bhg_4core5ascii10ascii_charSNtB4_9AsciiChar6as_strB8_ PROGBITS        80212838 013838 000024 00  AX  0   0  4
  [545] .text._RNvMsa_NtCsakCY22H5bhg_4core3fmtNtB5_9Formatter12debug_struct PROGBITS        8021285c 01385c 000028 00  AX  0   0  4
  [546] .text._RNvMsa_NtCsakCY22H5bhg_4core3fmtNtB5_9Formatter12pad_integral PROGBITS        80212884 013884 0004f4 00  AX  0   0  4
  [547] .text._RNvMsa_NtCsakCY22H5bhg_4core3fmtNtB5_9Formatter15debug_lower_hex PROGBITS        80212d78 013d78 00001c 00  AX  0   0  4
  [548] .text._RNvMsa_NtCsakCY22H5bhg_4core3fmtNtB5_9Formatter15debug_upper_hex PROGBITS        80212d94 013d94 00001c 00  AX  0   0  4
  [549] .text._RNvMsa_NtCsakCY22H5bhg_4core3fmtNtB5_9Formatter19sign_aware_zero_pad PROGBITS        80212db0 013db0 000018 00  AX  0   0  4
  [550] .text._RNvMsa_NtCsakCY22H5bhg_4core3fmtNtB5_9Formatter25debug_tuple_field1_finish PROGBITS        80212dc8 013dc8 000070 00  AX  0   0  4
  [551] .text._RNvMsa_NtCsakCY22H5bhg_4core3fmtNtB5_9Formatter26debug_struct_field4_finish PROGBITS        80212e38 013e38 000198 00  AX  0   0  4
  [552] .text._RNvMsa_NtCsakCY22H5bhg_4core3fmtNtB5_9Formatter3pad PROGBITS        80212fd0 013fd0 000310 00  AX  0   0  4
  [553] .text._RNvMsa_NtCsakCY22H5bhg_4core3fmtNtB5_9Formatter7padding PROGBITS        802132e0 0142e0 0001a4 00  AX  0   0  4
  [554] .text._RNvMsa_NtCsakCY22H5bhg_4core3fmtNtB5_9Formatter9alternate PROGBITS        80213484 014484 000018 00  AX  0   0  4
  [555] .text._RNvMsa_NtCsakCY22H5bhg_4core3fmtNtB5_9Formatter9sign_plus PROGBITS        8021349c 01449c 00001c 00  AX  0   0  4
  [556] .text._RNvMsa_NtCsakCY22H5bhg_4core3fmtNtB5_9Formatter9write_fmtB7_ PROGBITS        802134b8 0144b8 000098 00  AX  0   0  4
  [557] .text._RNvMsa_NtCsakCY22H5bhg_4core3fmtNtB5_9Formatter9write_str PROGBITS        80213550 014550 000034 00  AX  0   0  4
  [558] .text._RNvNtCsakCY22H5bhg_4core3fmt5write PROGBITS        80213584 014584 0006e4 00  AX  0   0  4
  [559] .text._RNvNvMsa_NtCsakCY22H5bhg_4core3fmtNtB7_9Formatter12pad_integral12write_prefix PROGBITS        80213c68 014c68 0000c4 00  AX  0   0  4
  [560] .text._RNvNvXsh_NtCsakCY22H5bhg_4core3fmteNtB7_5Debug3fmt12needs_escape PROGBITS        80213d2c 014d2c 000078 00  AX  0   0  4
  [561] .text._RNvXs1_NtCsakCY22H5bhg_4core7converthINtB5_4IntojE4intoB7_ PROGBITS        80213da4 014da4 000014 00  AX  0   0  4
  [562] .text._RNvXs1g_NtCsakCY22H5bhg_4core3fmtRDNtB6_5DebugEL_Bx_3fmtB8_ PROGBITS        80213db8 014db8 000030 00  AX  0   0  4
  [563] .text._RNvXs1g_NtCsakCY22H5bhg_4core3fmtReNtB6_5Debug3fmtB8_ PROGBITS        80213de8 014de8 000034 00  AX  0   0  4
  [564] .text._RNvXs1g_NtCsakCY22H5bhg_4core3fmtRjNtB6_5Debug3fmtB8_ PROGBITS        80213e1c 014e1c 000028 00  AX  0   0  4
  [565] .text._RNvXs1g_NtCsakCY22H5bhg_4core3fmtRuNtB6_5Debug3fmtB8_ PROGBITS        80213e44 014e44 000028 00  AX  0   0  4
  [566] .text._RNvXs1i_NtCsakCY22H5bhg_4core3fmtReNtB6_7Display3fmtB8_ PROGBITS        80213e6c 014e6c 000034 00  AX  0   0  4
  [567] .text._RNvXs4_NtCsakCY22H5bhg_4core7convertjINtB5_7TryIntohE8try_intoB7_ PROGBITS        80213ea0 014ea0 000020 00  AX  0   0  4
  [568] .text._RNvXs4_NtCsakCY22H5bhg_4core7convertlINtB5_7TryIntojE8try_intoB7_ PROGBITS        80213ec0 014ec0 000020 00  AX  0   0  4
  [569] .text._RNvXs4_NtCsakCY22H5bhg_4core7convertlINtB5_7TryIntomE8try_intoB7_ PROGBITS        80213ee0 014ee0 000020 00  AX  0   0  4
  [570] .text._RNvXs7_NtCsakCY22H5bhg_4core3fmtNtB5_9ArgumentsNtB5_5Debug3fmt PROGBITS        80213f00 014f00 000024 00  AX  0   0  4
  [571] .text._RNvXs8_NtCsakCY22H5bhg_4core3fmtNtB5_9ArgumentsNtB5_7Display3fmt PROGBITS        80213f24 014f24 000038 00  AX  0   0  4
  [572] .text._RNvXsb_NtCsakCY22H5bhg_4core3fmtNtB5_9FormatterNtB5_5Write10write_char PROGBITS        80213f5c 014f5c 000030 00  AX  0   0  4
  [573] .text._RNvXsg_NtCsakCY22H5bhg_4core3fmtbNtB5_7Display3fmt PROGBITS        80213f8c 014f8c 000074 00  AX  0   0  4
  [574] .text._RNvXsh_NtCsakCY22H5bhg_4core3fmteNtB5_5Debug3fmt PROGBITS        80214000 015000 0003e8 00  AX  0   0  4
  [575] .text._RNvXsi_NtCsakCY22H5bhg_4core3fmteNtB5_7Display3fmt PROGBITS        802143e8 0153e8 000038 00  AX  0   0  4
  [576] .text._RNvXsj_NtCsakCY22H5bhg_4core3fmtcNtB5_5Debug3fmt PROGBITS        80214420 015420 00010c 00  AX  0   0  4
  [577] .text._RNvXss_NtCsakCY22H5bhg_4core3fmtuNtB5_5Debug3fmtB7_ PROGBITS        8021452c 01552c 00003c 00  AX  0   0  4
  [578] .text._RINvMNtNtCsakCY22H5bhg_4core3fmt2rtNtB3_8Argument11new_displayNtB5_9ArgumentsEB7_ PROGBITS        80214568 015568 000064 00  AX  0   0  4
  [579] .text._RINvMNtNtCsakCY22H5bhg_4core3fmt2rtNtB3_8Argument11new_displayReEB7_ PROGBITS        802145cc 0155cc 000064 00  AX  0   0  4
  [580] .text._RINvMNtNtCsakCY22H5bhg_4core3fmt2rtNtB3_8Argument11new_displayjEB7_ PROGBITS        80214630 015630 000064 00  AX  0   0  4
  [581] .text._RINvMNtNtCsakCY22H5bhg_4core3fmt2rtNtB3_8Argument13new_lower_hexjEB7_ PROGBITS        80214694 015694 000064 00  AX  0   0  4
  [582] .text._RINvMNtNtCsakCY22H5bhg_4core3fmt2rtNtB3_8Argument13new_upper_hexmEB7_ PROGBITS        802146f8 0156f8 000064 00  AX  0   0  4
  [583] .text._RINvMNtNtCsakCY22H5bhg_4core3fmt2rtNtB3_8Argument9new_debugINtNtNtB7_3ops5range5RangejEEB7_ PROGBITS        8021475c 01575c 000064 00  AX  0   0  4
  [584] .text._RINvMNtNtCsakCY22H5bhg_4core3fmt2rtNtB3_8Argument9new_debugRDNtB5_5DebugEL_EB7_ PROGBITS        802147c0 0157c0 000064 00  AX  0   0  4
  [585] .text._RINvMNtNtCsakCY22H5bhg_4core3fmt2rtNtB3_8Argument9new_debugcEB7_ PROGBITS        80214824 015824 000064 00  AX  0   0  4
  [586] .text._RINvNtCsakCY22H5bhg_4core3cmp3maxjEB4_ PROGBITS        80214888 015888 000024 00  AX  0   0  4
  [587] .text._RINvNtCsakCY22H5bhg_4core3cmp3minjEB4_ PROGBITS        802148ac 0158ac 000024 00  AX  0   0  4
  [588] .text._RNvMNtNtCsakCY22H5bhg_4core3fmt2rtNtB2_8Argument3fmtB6_ PROGBITS        802148d0 0158d0 00005c 00  AX  0   0  4
  [589] .text._RNvMNtNtCsakCY22H5bhg_4core3fmt2rtNtB2_8Argument6as_u16B6_ PROGBITS        8021492c 01592c 000050 00  AX  0   0  4
  [590] .text._RNvMNtNtCsakCY22H5bhg_4core3mem14maybe_danglingINtB2_13MaybeDanglingINtNvNtB6_4hint20select_unpredictable11DropOnPanicjEE3newB6_ PROGBITS        8021497c 01597c 000010 00  AX  0   0  4
  [591] .text._RNvMNtNtCsakCY22H5bhg_4core3mem14maybe_danglingINtB2_13MaybeDanglinghE3newB6_ PROGBITS        8021498c 01598c 000010 00  AX  0   0  4
  [592] .text._RNvMNtNtCsakCY22H5bhg_4core3mem14maybe_danglingINtB2_13MaybeDanglingjE3newB6_ PROGBITS        8021499c 01599c 000010 00  AX  0   0  4
  [593] .text._RNvMNtNtCsakCY22H5bhg_4core3str7patternNtB2_12CharSearcher9utf8_size PROGBITS        802149ac 0159ac 00002c 00  AX  0   0  4
  [594] .text._RNvMNtNtNtCsakCY22H5bhg_4core4iter8adapters6clonedINtB2_6ClonedINtNtNtB8_5slice4iter4IterhEE3newB8_ PROGBITS        802149d8 0159d8 000014 00  AX  0   0  4
  [595] .text._RNvNtNtCsakCY22H5bhg_4core5slice5index16slice_index_fail PROGBITS        802149ec 0159ec 0000b8 00  AX  0   0  4
  [596] .text._RNvNtNtCsakCY22H5bhg_4core5slice6memchr12memchr_naiveB5_ PROGBITS        80214aa4 015aa4 0000e8 00  AX  0   0  4
  [597] .text._RNvNtNtCsakCY22H5bhg_4core5slice6memchr14memchr_aligned PROGBITS        80214b8c 015b8c 000040 00  AX  0   0  4
  [598] .text._RNvNtNtCsakCY22H5bhg_4core5slice6memchr18contains_zero_byteB5_ PROGBITS        80214bcc 015bcc 000048 00  AX  0   0  4
  [599] .text._RNvNtNtCsakCY22H5bhg_4core5slice6memchr6memchrB5_ PROGBITS        80214c14 015c14 0000b4 00  AX  0   0  4
  [600] .text._RNvNtNtCsakCY22H5bhg_4core7unicode9printable12is_printable PROGBITS        80214cc8 015cc8 0002e4 00  AX  0   0  4
  [601] .text._RNvNtNtCsakCY22H5bhg_4core7unicode9printable5check PROGBITS        80214fac 015fac 000390 00  AX  0   0  4
  [602] .text._RNvNvNtNtCsakCY22H5bhg_4core5slice6memchr14memchr_aligned7runtimeB7_ PROGBITS        8021533c 01633c 0004c4 00  AX  0   0  4
  [603] .text._RNvNvNvNtNtCsakCY22H5bhg_4core5slice5index16slice_index_fail8do_panic7runtimeB9_ PROGBITS        80215800 016800 000084 00  AX  0   0  4
  [604] .text._RNvNvNvNtNtCsakCY22H5bhg_4core5slice5index16slice_index_fails0_8do_panic7runtimeB9_ PROGBITS        80215884 016884 000084 00  AX  0   0  4
  [605] .text._RNvNvNvNtNtCsakCY22H5bhg_4core5slice5index16slice_index_fails1_8do_panic7runtimeB9_ PROGBITS        80215908 016908 000084 00  AX  0   0  4
  [606] .text._RNvNvNvNtNtCsakCY22H5bhg_4core5slice5index16slice_index_fails_8do_panic7runtimeB9_ PROGBITS        8021598c 01698c 000084 00  AX  0   0  4
  [607] .text._RNvNvXs0_NtNtCsakCY22H5bhg_4core5slice5indexjINtB7_10SliceIndexSpE13get_unchecked18precondition_checkBb_ PROGBITS        80215a10 016a10 000060 00  AX  0   0  4
  [608] .text._RNvNvXs2_NtNtCsakCY22H5bhg_4core5slice5indexINtNtNtBb_3ops5range5RangejEINtB7_10SliceIndexSpE13get_unchecked18precondition_checkBb_ PROGBITS        80215a70 016a70 00007c 00  AX  0   0  4
  [609] .text._RNvXNtNtNtCsakCY22H5bhg_4core4iter6traits7collectINtNtNtB8_3ops5range5RangejENtB2_12IntoIterator9into_iterB8_ PROGBITS        80215aec 016aec 000014 00  AX  0   0  4
  [610] .text._RNvXNtNtNtCsakCY22H5bhg_4core4iter6traits7collectINtNtNtB8_3ops5range5RangetENtB2_12IntoIterator9into_iterB8_ PROGBITS        80215b00 016b00 000014 00  AX  0   0  4
  [611] .text._RNvXs0_NtNtCsakCY22H5bhg_4core5slice5indexjINtB5_10SliceIndexSNtNtNtB9_7unicode12unicode_data20ShortOffsetRunHeaderE13get_uncheckedB9_ PROGBITS        80215b14 016b14 000088 00  AX  0   0  4
  [612] .text._RNvXs0_NtNtCsakCY22H5bhg_4core5slice5indexjINtB5_10SliceIndexSNtNtNtB9_7unicode12unicode_data20ShortOffsetRunHeaderE3getB9_ PROGBITS        80215b9c 016b9c 000050 00  AX  0   0  4
  [613] .text._RNvXs0_NtNtCsakCY22H5bhg_4core5slice5indexjINtB5_10SliceIndexShE13get_uncheckedB9_ PROGBITS        80215bec 016bec 000084 00  AX  0   0  4
  [614] .text._RNvXs2_NtNtCsakCY22H5bhg_4core3str7patterncNtB5_7Pattern12is_suffix_ofB9_ PROGBITS        80215c70 016c70 000050 00  AX  0   0  4
  [615] .text._RNvXs2_NtNtCsakCY22H5bhg_4core3str7patterncNtB5_7Pattern13into_searcherB9_ PROGBITS        80215cc0 016cc0 0000fc 00  AX  0   0  4
  [616] .text._RNvXs2_NtNtCsakCY22H5bhg_4core5slice5indexINtNtNtB9_3ops5range5RangejEINtB5_10SliceIndexSINtNtNtB9_3mem12maybe_uninit11MaybeUninithEE13get_uncheckedB9_ PROGBITS        80215dbc 016dbc 00009c 00  AX  0   0  4
  [617] .text._RNvXs2_NtNtCsakCY22H5bhg_4core5slice5indexINtNtNtB9_3ops5range5RangejEINtB5_10SliceIndexSNtNtNtB9_5ascii10ascii_char9AsciiCharE13get_uncheckedB9_ PROGBITS        80215e58 016e58 00009c 00  AX  0   0  4
  [618] .text._RNvXs2_NtNtCsakCY22H5bhg_4core5slice5indexINtNtNtB9_3ops5range5RangejEINtB5_10SliceIndexShE3getB9_ PROGBITS        80215ef4 016ef4 0000c4 00  AX  0   0  4
  [619] .text._RNvXs3_NtNtCsakCY22H5bhg_4core4iter5rangeINtNtNtB9_3ops5range5RangejENtB5_17RangeIteratorImpl14spec_next_backB9_ PROGBITS        80215fb8 016fb8 000088 00  AX  0   0  4
  [620] .text._RNvXs3_NtNtCsakCY22H5bhg_4core4iter5rangeINtNtNtB9_3ops5range5RangejENtB5_17RangeIteratorImpl9spec_nextB9_ PROGBITS        80216040 017040 000090 00  AX  0   0  4
  [621] .text._RNvXs3_NtNtCsakCY22H5bhg_4core4iter5rangeINtNtNtB9_3ops5range5RangetENtB5_17RangeIteratorImpl9spec_nextB9_ PROGBITS        802160d0 0170d0 000090 00  AX  0   0  4
  [622] .text._RNvXs4_NtNtCsakCY22H5bhg_4core4iter5rangeINtNtNtB9_3ops5range5RangejENtNtNtB7_6traits8iterator8Iterator4nextB9_ PROGBITS        80216160 017160 000020 00  AX  0   0  4
  [623] .text._RNvXs4_NtNtCsakCY22H5bhg_4core4iter5rangeINtNtNtB9_3ops5range5RangetENtNtNtB7_6traits8iterator8Iterator4nextB9_ PROGBITS        80216180 017180 000020 00  AX  0   0  4
  [624] .text._RNvXs5_NtNtCsakCY22H5bhg_4core3str6traitsINtNtNtB9_3ops5range5RangejEINtNtNtB9_5slice5index10SliceIndexeE13get_uncheckedB9_ PROGBITS        802161a0 0171a0 0000f0 00  AX  0   0  4
  [625] .text._RNvXs5_NtNtCsakCY22H5bhg_4core3str6traitsINtNtNtB9_3ops5range5RangejEINtNtNtB9_5slice5index10SliceIndexeE3getB9_ PROGBITS        80216290 017290 0000b4 00  AX  0   0  4
  [626] .text._RNvXs5_NtNtCsakCY22H5bhg_4core3str6traitsINtNtNtB9_3ops5range5RangejEINtNtNtB9_5slice5index10SliceIndexeE5indexB9_ PROGBITS        80216344 017344 000088 00  AX  0   0  4
  [627] .text._RNvXs5_NtNtCsakCY22H5bhg_4core4iter5rangeINtNtNtB9_3ops5range5RangejENtNtNtB7_6traits12double_ended19DoubleEndedIterator9next_backB9_ PROGBITS        802163cc 0173cc 000020 00  AX  0   0  4
  [628] .text._RNvXs5_NtNtCsakCY22H5bhg_4core5slice5indexINtNtNtB9_3ops5range9RangeFromjEINtB5_10SliceIndexSINtNtNtB9_3mem12maybe_uninit11MaybeUninithEE13get_uncheckedB9_ PROGBITS        802163ec 0173ec 000064 00  AX  0   0  4
  [629] .text._RNvXs5_NtNtCsakCY22H5bhg_4core5slice5indexINtNtNtB9_3ops5range9RangeFromjEINtB5_10SliceIndexShE5indexB9_ PROGBITS        80216450 017450 000078 00  AX  0   0  4
  [630] .text._RNvXs8_NtNtCsakCY22H5bhg_4core3str6traitsINtNtNtB9_3ops5range7RangeTojEINtNtNtB9_5slice5index10SliceIndexeE13get_uncheckedB9_ PROGBITS        802164c8 0174c8 000040 00  AX  0   0  4
  [631] .text._RNvXs9_NtNtCsakCY22H5bhg_4core3str6traitsINtNtNtB9_3ops5range9RangeFromjEINtNtNtB9_5slice5index10SliceIndexeE13get_uncheckedB9_ PROGBITS        80216508 017508 000068 00  AX  0   0  4
  [632] .text._RNvXsF_NtNtCsakCY22H5bhg_4core4iter5rangetNtB5_4Step17forward_uncheckedB9_ PROGBITS        80216570 017570 00007c 00  AX  0   0  4
  [633] .text._RNvXsJ_NtNtCsakCY22H5bhg_4core4iter5rangejNtB5_4Step17forward_uncheckedB9_ PROGBITS        802165ec 0175ec 000064 00  AX  0   0  4
  [634] .text._RNvXsJ_NtNtCsakCY22H5bhg_4core4iter5rangejNtB5_4Step18backward_uncheckedB9_ PROGBITS        80216650 017650 000064 00  AX  0   0  4
  [635] .text._RNvXsL_NtNtCsakCY22H5bhg_4core3ops5rangeINtB5_5RangejENtNtB9_5clone5Clone5cloneB9_ PROGBITS        802166b4 0176b4 000028 00  AX  0   0  4
  [636] .text._RNvXs_NtNtCsakCY22H5bhg_4core3ops5rangeINtB4_5RangejENtNtB8_3fmt5Debug3fmtB8_ PROGBITS        802166dc 0176dc 0000f8 00  AX  0   0  4
  [637] .text._RNvXs_NtNtCsakCY22H5bhg_4core3str7patternNtB4_12CharSearcherNtB4_8Searcher10next_matchB8_ PROGBITS        802167d4 0177d4 0002a4 00  AX  0   0  4
  [638] .text._RNvXs_NtNtCsakCY22H5bhg_4core3str7patternNtB4_12CharSearcherNtB4_8Searcher8haystackB8_ PROGBITS        80216a78 017a78 00001c 00  AX  0   0  4
  [639] .text._RNvXs_NtNtNtCsakCY22H5bhg_4core4iter8adapters6clonedINtB4_6ClonedINtNtNtBa_5slice4iter4IterhEENtNtNtB8_6traits8iterator8Iterator4nextBa_ PROGBITS        80216a94 017a94 000028 00  AX  0   0  4
  [640] .text._RNvXsb_NtCsakCY22H5bhg_4core3cmpNtB5_8OrderingNtB5_9PartialEq2eqB7_ PROGBITS        80216abc 017abc 00002c 00  AX  0   0  4
  [641] .text._RNvXst_NtNtCsakCY22H5bhg_4core3str7patternReNtB5_7Pattern12is_suffix_ofB9_ PROGBITS        80216ae8 017ae8 000054 00  AX  0   0  4
  [642] .text._RNvYINtNtNtCsakCY22H5bhg_4core3ops5range5RangejENtNtNtNtB9_4iter6traits8iterator8Iterator3revB9_ PROGBITS        80216b3c 017b3c 000024 00  AX  0   0  4
  [643] .text._RNvYNvYhNtNtCsakCY22H5bhg_4core5clone5Clone5cloneINtNtNtBa_3ops8function6FnOnceTRhEE9call_onceBa_ PROGBITS        80216b60 017b60 00001c 00  AX  0   0  4
  [644] .text._RNvYjNtNtCsakCY22H5bhg_4core3cmp3Ord3maxB7_ PROGBITS        80216b7c 017b7c 0000a0 00  AX  0   0  4
  [645] .text._RNvYjNtNtCsakCY22H5bhg_4core3cmp3Ord3minB7_ PROGBITS        80216c1c 017c1c 0000a0 00  AX  0   0  4
  [646] .text._RNCNvXs_NvNtNtNtNtCsakCY22H5bhg_4core4iter6traits8iterator8Iterator10advance_byNtNtNtBg_3str4iter11CharIndicesNtB6_13SpecAdvanceBy15spec_advance_by0Bg_ PROGBITS        80216cbc 017cbc 000064 00  AX  0   0  4
  [647] .text._RINvNtNtNtCsakCY22H5bhg_4core4iter8adapters3map8map_foldRhjjNCINvNvXs1_NtB4_6filterINtB17_6FilterppENtNtNtB6_6traits8iterator8Iterator5count8to_usizeBS_NCNvNtNtB8_3str5count23char_count_general_case0E0NCINvXsK_NtB1E_5accumjNtB3m_3Sum3sumINtB2_3MapIN PROGBITS        80216d20 017d20 00000c 00  AX  0   0  4
  [648] .text._RINvXs0_NtNtNtCsakCY22H5bhg_4core4iter8adapters3mapINtB6_3MapINtNtNtBc_5slice4iter4IterhENCINvNvXs1_NtB8_6filterINtB1A_6FilterppENtNtNtBa_6traits8iterator8Iterator5count8to_usizeRhNCNvNtNtBc_3str5count23char_count_general_case0E0EB23_4foldjNCINvXsK_ PROGBITS        80216d2c 017d2c 000048 00  AX  0   0  4
  [649] .text._RINvYINtNtNtNtCsakCY22H5bhg_4core4iter8adapters3map3MapINtNtNtBc_5slice4iter4IterhENCINvNvXs1_NtB8_6filterINtB1u_6FilterppENtNtNtBa_6traits8iterator8Iterator5count8to_usizeRhNCNvNtNtBc_3str5count23char_count_general_case0E0EB1X_3sumjEBc_ PROGBITS        80216d74 017d74 000024 00  AX  0   0  4
  [650] .text._RINvYNtNtNtCsakCY22H5bhg_4core3str4iter11CharIndicesNtNtNtNtB9_4iter6traits8iterator8Iterator8try_foldINtNtNtB9_3num7nonzero7NonZerojENCNvXs_NvBO_10advance_byB3_NtB2f_13SpecAdvanceBy15spec_advance_by0INtNtB9_6option6OptionB1C_EEB9_ PROGBITS        80216d98 017d98 0000d4 00  AX  0   0  4
  [651] .text._RNCINvNtNtNtCsakCY22H5bhg_4core4iter8adapters3map8map_foldRhjjNCINvNvXs1_NtB6_6filterINtB19_6FilterppENtNtNtB8_6traits8iterator8Iterator5count8to_usizeBU_NCNvNtNtBa_3str5count23char_count_general_case0E0NCINvXsK_NtB1G_5accumjNtB3o_3Sum3sumINtB4_3Map PROGBITS        80216e6c 017e6c 000050 00  AX  0   0  4
  [652] .text._RNCNvXNtNtCsakCY22H5bhg_4core3str4iterNtB4_5CharsNtNtNtNtB8_4iter6traits8iterator8Iterator4next0B8_ PROGBITS        80216ebc 017ebc 000020 00  AX  0   0  4
  [653] .text._RNvMNtNtNtCsakCY22H5bhg_4core4iter8adapters3mapINtB2_3MapINtNtNtB8_5slice4iter4IterhENCINvNvXs1_NtB4_6filterINtB1w_6FilterppENtNtNtB6_6traits8iterator8Iterator5count8to_usizeRhNCNvNtNtB8_3str5count23char_count_general_case0E0E3newB8_ PROGBITS        80216edc 017edc 000014 00  AX  0   0  4
  [654] .text._RNvMs2_NtNtCsakCY22H5bhg_4core3str4iterNtB5_5Chars6as_strB9_ PROGBITS        80216ef0 017ef0 000028 00  AX  0   0  4
  [655] .text._RNvMs6_NtNtCsakCY22H5bhg_4core3str4iterNtB5_11CharIndices6offsetB9_ PROGBITS        80216f18 017f18 000014 00  AX  0   0  4
  [656] .text._RNvMsf_NtNtCsakCY22H5bhg_4core3str4iterINtB5_13SplitInternalcE14next_inclusiveB9_ PROGBITS        80216f2c 017f2c 0000e8 00  AX  0   0  4
  [657] .text._RNvMsf_NtNtCsakCY22H5bhg_4core3str4iterINtB5_13SplitInternalcE7get_endB9_ PROGBITS        80217014 018014 0000c8 00  AX  0   0  4
  [658] .text._RNvNtCsakCY22H5bhg_4core4hint21unreachable_uncheckedB3_ PROGBITS        802170dc 0180dc 000030 00  AX  0   0  4
  [659] .text._RNvNvNtCsakCY22H5bhg_4core4hint16assert_unchecked18precondition_checkB5_ PROGBITS        8021710c 01810c 00005c 00  AX  0   0  4
  [660] .text._RNvNvNtCsakCY22H5bhg_4core4hint21unreachable_unchecked18precondition_checkB5_ PROGBITS        80217168 018168 000038 00  AX  0   0  4
  [661] .text._RNvNvXs5_NtNtCsakCY22H5bhg_4core3str6traitsINtNtNtBb_3ops5range5RangejEINtNtNtBb_5slice5index10SliceIndexeE13get_unchecked18precondition_checkBb_ PROGBITS        802171a0 0181a0 00007c 00  AX  0   0  4
  [662] .text._RNvXNtNtCsakCY22H5bhg_4core3str4iterNtB2_5CharsNtNtNtNtB6_4iter6traits8iterator8Iterator4nextB6_ PROGBITS        8021721c 01821c 000028 00  AX  0   0  4
  [663] .text._RNvXNtNtCsakCY22H5bhg_4core3str4iterNtB2_5CharsNtNtNtNtB6_4iter6traits8iterator8Iterator5countB6_ PROGBITS        80217244 018244 000030 00  AX  0   0  4
  [664] .text._RNvXNtNtNtCsakCY22H5bhg_4core4iter6traits7collectINtNtNtB8_3str4iter14SplitInclusivecENtB2_12IntoIterator9into_iterB8_ PROGBITS        80217274 018274 000020 00  AX  0   0  4
  [665] .text._RNvXs2_NtNtCsakCY22H5bhg_4core3str6traitseINtNtNtB9_3ops5index5IndexINtNtBJ_5range5RangejEE5indexB9_ PROGBITS        80217294 018294 000044 00  AX  0   0  4
  [666] .text._RNvXs3_NtNtCsakCY22H5bhg_4core3str4iterNtB5_11CharIndicesNtNtNtNtB9_4iter6traits8iterator8Iterator4nextB9_ PROGBITS        802172d8 0182d8 000134 00  AX  0   0  4
  [667] .text._RNvXsH_NtNtCsakCY22H5bhg_4core3str4iterINtB5_14SplitInclusivecENtNtNtNtB9_4iter6traits8iterator8Iterator4nextB9_ PROGBITS        8021740c 01840c 000020 00  AX  0   0  4
  [668] .text._RNvXs_NvNtNtNtNtCsakCY22H5bhg_4core4iter6traits8iterator8Iterator10advance_byNtNtNtBe_3str4iter11CharIndicesNtB4_13SpecAdvanceBy15spec_advance_byBe_ PROGBITS        8021742c 01842c 000094 00  AX  0   0  4
  [669] .text._RNvYNtNtNtCsakCY22H5bhg_4core3str4iter11CharIndicesNtNtNtNtB8_4iter6traits8iterator8Iterator10advance_byB8_ PROGBITS        802174c0 0184c0 000024 00  AX  0   0  4
  [670] .text._RINvNtCsakCY22H5bhg_4core3ptr12align_offsethEB4_ PROGBITS        802174e4 0184e4 000200 00  AX  0   0  4
  [671] .text._RINvNtCsakCY22H5bhg_4core3ptr20slice_from_raw_partsAjj4_EB4_ PROGBITS        802176e4 0186e4 000024 00  AX  0   0  4
  [672] .text._RINvNtCsakCY22H5bhg_4core3ptr20slice_from_raw_partshEB4_ PROGBITS        80217708 018708 000024 00  AX  0   0  4
  [673] .text._RINvNtCsakCY22H5bhg_4core3ptr20slice_from_raw_partsjEB4_ PROGBITS        8021772c 01872c 000024 00  AX  0   0  4
  [674] .text._RINvNtCsakCY22H5bhg_4core3ptr24slice_from_raw_parts_muthEB4_ PROGBITS        80217750 018750 000024 00  AX  0   0  4
  [675] .text._RINvNtCsakCY22H5bhg_4core3ptr4readAhj2_EB4_ PROGBITS        80217774 018774 000074 00  AX  0   0  4
  [676] .text._RINvNtCsakCY22H5bhg_4core3ptr4readAhj4_EB4_ PROGBITS        802177e8 0187e8 0000a4 00  AX  0   0  4
  [677] .text._RINvNtCsakCY22H5bhg_4core3ptr4readhEB4_ PROGBITS        8021788c 01888c 000054 00  AX  0   0  4
  [678] .text._RINvNtCsakCY22H5bhg_4core3ptr4readjEB4_ PROGBITS        802178e0 0188e0 000054 00  AX  0   0  4
  [679] .text._RINvNtNtCsakCY22H5bhg_4core3str11validations15next_code_pointINtNtNtB6_5slice4iter4IterhEEB6_ PROGBITS        80217934 018934 0001e0 00  AX  0   0  4
  [680] .text._RINvNtNtCsakCY22H5bhg_4core5slice3raw14from_raw_partsAjj4_EB6_ PROGBITS        80217b14 018b14 000068 00  AX  0   0  4
  [681] .text._RINvNtNtCsakCY22H5bhg_4core5slice3raw14from_raw_partshEB6_ PROGBITS        80217b7c 018b7c 000068 00  AX  0   0  4
  [682] .text._RINvNtNtCsakCY22H5bhg_4core5slice3raw14from_raw_partsjEB6_ PROGBITS        80217be4 018be4 000068 00  AX  0   0  4
  [683] .text._RINvNtNtCsakCY22H5bhg_4core5slice3raw18from_raw_parts_muthEB6_ PROGBITS        80217c4c 018c4c 000068 00  AX  0   0  4
  [684] .text._RNvMNtNtCsakCY22H5bhg_4core3mem9alignmentNtB2_9Alignment16as_nonzero_usizeB6_ PROGBITS        80217cb4 018cb4 000010 00  AX  0   0  4
  [685] .text._RNvMNtNtCsakCY22H5bhg_4core3mem9alignmentNtB2_9Alignment8as_usizeB6_ PROGBITS        80217cc4 018cc4 000028 00  AX  0   0  4
  [686] .text._RNvMNtNtCsakCY22H5bhg_4core3ptr7mut_ptrOh20offset_from_unsignedB6_ PROGBITS        80217cec 018cec 000024 00  AX  0   0  4
  [687] .text._RNvMNtNtCsakCY22H5bhg_4core3ptr9const_ptrPh12align_offsetB6_ PROGBITS        80217d10 018d10 0000c8 00  AX  0   0  4
  [688] .text._RNvMNtNtCsakCY22H5bhg_4core3ptr9const_ptrPh20offset_from_unsignedB6_ PROGBITS        80217dd8 018dd8 000098 00  AX  0   0  4
  [689] .text._RNvMNtNtCsakCY22H5bhg_4core3ptr9const_ptrPj4readB6_ PROGBITS        80217e70 018e70 000020 00  AX  0   0  4
  [690] .text._RNvMNtNtCsakCY22H5bhg_4core3ptr9const_ptrPu13is_aligned_toB6_ PROGBITS        80217e90 018e90 0000f8 00  AX  0   0  4
  [691] .text._RNvMNtNtCsakCY22H5bhg_4core3ptr9const_ptrPu7is_nullB6_ PROGBITS        80217f88 018f88 000024 00  AX  0   0  4
  [692] .text._RNvMs1_NtNtCsakCY22H5bhg_4core3ptr9const_ptrPSh3lenB9_ PROGBITS        80217fac 018fac 000024 00  AX  0   0  4
  [693] .text._RNvMs1_NtNtCsakCY22H5bhg_4core3ptr9const_ptrPSh6as_ptrB9_ PROGBITS        80217fd0 018fd0 000014 00  AX  0   0  4
  [694] .text._RNvMs4_NtNtCsakCY22H5bhg_4core5panic8locationNtB5_8Location4file PROGBITS        80217fe4 018fe4 000030 00  AX  0   0  4
  [695] .text._RNvMs4_NtNtCsakCY22H5bhg_4core5panic8locationNtB5_8Location6callerB9_ PROGBITS        80218014 019014 000014 00  AX  0   0  4
  [696] .text._RNvNtCsakCY22H5bhg_4core9ub_checks16maybe_is_alignedB3_ PROGBITS        80218028 019028 000024 00  AX  0   0  4
  [697] .text._RNvNtCsakCY22H5bhg_4core9ub_checks17check_language_ubB3_ PROGBITS        8021804c 01904c 000040 00  AX  0   0  4
  [698] .text._RNvNtCsakCY22H5bhg_4core9ub_checks24is_valid_allocation_sizeB3_ PROGBITS        8021808c 01908c 000074 00  AX  0   0  4
  [699] .text._RNvNtCsakCY22H5bhg_4core9ub_checks29maybe_is_aligned_and_not_nullB3_ PROGBITS        80218100 019100 000080 00  AX  0   0  4
  [700] .text._RNvNtNtCsakCY22H5bhg_4core3str11validations15utf8_first_byteB5_ PROGBITS        80218180 019180 000054 00  AX  0   0  4
  [701] .text._RNvNtNtCsakCY22H5bhg_4core3str11validations17utf8_is_cont_byteB5_ PROGBITS        802181d4 0191d4 000020 00  AX  0   0  4
  [702] .text._RNvNtNtCsakCY22H5bhg_4core3str11validations18utf8_acc_cont_byteB5_ PROGBITS        802181f4 0191f4 000020 00  AX  0   0  4
  [703] .text._RNvNvMNtNtCsakCY22H5bhg_4core3ptr7mut_ptrOp3add18precondition_checkB8_ PROGBITS        80218214 019214 00006c 00  AX  0   0  4
  [704] .text._RNvNvMNtNtCsakCY22H5bhg_4core3ptr7mut_ptrOp3add18runtime_add_nowrapB8_ PROGBITS        80218280 019280 000040 00  AX  0   0  4
  [705] .text._RNvNvMNtNtCsakCY22H5bhg_4core3ptr9const_ptrPp20offset_from_unsigned14runtime_ptr_ge PROGBITS        802182c0 0192c0 000024 00  AX  0   0  4
  [706] .text._RNvNvMNtNtCsakCY22H5bhg_4core3ptr9const_ptrPp20offset_from_unsigned18precondition_checkB8_ PROGBITS        802182e4 0192e4 000068 00  AX  0   0  4
  [707] .text._RNvNvMNtNtCsakCY22H5bhg_4core3ptr9const_ptrPp3add18precondition_checkB8_ PROGBITS        8021834c 01934c 00006c 00  AX  0   0  4
  [708] .text._RNvNvMNtNtCsakCY22H5bhg_4core3ptr9const_ptrPp3add18runtime_add_nowrapB8_ PROGBITS        802183b8 0193b8 000040 00  AX  0   0  4
  [709] .text._RNvNvMNtNtCsakCY22H5bhg_4core3ptr9const_ptrPp7is_null7runtimeB8_ PROGBITS        802183f8 0193f8 00001c 00  AX  0   0  4
  [710] .text._RNvNvNtCsakCY22H5bhg_4core3ptr12align_offset7mod_invB5_ PROGBITS        80218414 019414 0000f8 00  AX  0   0  4
  [711] .text._RNvNvNtCsakCY22H5bhg_4core3ptr4read18precondition_checkB5_ PROGBITS        8021850c 01950c 00006c 00  AX  0   0  4
  [712] .text._RNvNvNtCsakCY22H5bhg_4core9ub_checks16maybe_is_aligned7runtimeB5_ PROGBITS        80218578 019578 000024 00  AX  0   0  4
  [713] .text._RNvNvNtCsakCY22H5bhg_4core9ub_checks17check_language_ub7runtimeB5_ PROGBITS        8021859c 01959c 000008 00  AX  0   0  4
  [714] .text._RNvNvNtNtCsakCY22H5bhg_4core5slice3raw14from_raw_parts18precondition_checkB7_ PROGBITS        802185a4 0195a4 0000a0 00  AX  0   0  4
  [715] .text._RNvNvNtNtCsakCY22H5bhg_4core5slice3raw18from_raw_parts_mut18precondition_checkB7_ PROGBITS        80218644 019644 0000a0 00  AX  0   0  4
  [716] .text._RNvNvNvMNtNtCsakCY22H5bhg_4core3ptr7mut_ptrOp3add18runtime_add_nowrap7runtimeBa_ PROGBITS        802186e4 0196e4 0000c8 00  AX  0   0  4
  [717] .text._RNvNvNvMNtNtCsakCY22H5bhg_4core3ptr9const_ptrPp20offset_from_unsigned14runtime_ptr_ge7runtimeBa_ PROGBITS        802187ac 0197ac 00001c 00  AX  0   0  4
  [718] .text._RNvNvNvMNtNtCsakCY22H5bhg_4core3ptr9const_ptrPp3add18runtime_add_nowrap7runtimeBa_ PROGBITS        802187c8 0197c8 0000c8 00  AX  0   0  4
  [719] .text._RNvXNtNtCsakCY22H5bhg_4core5slice3cmpShNtNtB6_3cmp9PartialEq2eqB6_ PROGBITS        80218890 019890 000080 00  AX  0   0  4
  [720] .text._RNvXs3_NtNtCsakCY22H5bhg_4core5panic8locationNtB5_8LocationNtNtB9_3fmt5Debug3fmt PROGBITS        80218910 019910 0000cc 00  AX  0   0  4
  [721] .text._RNvXs3_NtNtCsakCY22H5bhg_4core5slice3cmphINtB5_14SlicePartialEqhE17equal_same_lengthB9_ PROGBITS        802189dc 0199dc 000038 00  AX  0   0  4
  [722] .text._RNCNvNtNtCsakCY22H5bhg_4core3str5count23char_count_general_case0B7_ PROGBITS        80218a14 019a14 000034 00  AX  0   0  4
  [723] .text._RNvNtNtCsakCY22H5bhg_4core3str5count11count_charsB5_ PROGBITS        80218a48 019a48 0000a0 00  AX  0   0  4
  [724] .text._RNvNtNtCsakCY22H5bhg_4core3str5count14do_count_chars PROGBITS        80218ae8 019ae8 000408 00  AX  0   0  4
  [725] .text._RNvNtNtCsakCY22H5bhg_4core3str5count18sum_bytes_in_usizeB5_ PROGBITS        80218ef0 019ef0 0000b8 00  AX  0   0  4
  [726] .text._RNvNtNtCsakCY22H5bhg_4core3str5count23char_count_general_case PROGBITS        80218fa8 019fa8 000034 00  AX  0   0  4
  [727] .text._RNvNtNtCsakCY22H5bhg_4core3str5count30contains_non_continuation_byteB5_ PROGBITS        80218fdc 019fdc 000030 00  AX  0   0  4
  [728] .text._RNvXNtNtNtCsakCY22H5bhg_4core7convert3num18ptr_try_from_implshINtB6_7TryFromjE8try_fromB8_ PROGBITS        8021900c 01a00c 00004c 00  AX  0   0  4
  [729] .text._RNvXsn_NtNtNtCsakCY22H5bhg_4core7convert3num18ptr_try_from_implsjINtB9_7TryFromlE8try_fromBb_ PROGBITS        80219058 01a058 000044 00  AX  0   0  4
  [730] .text._RINvMNtCsakCY22H5bhg_4core5sliceSINtNtNtB5_3mem12maybe_uninit11MaybeUninithE13get_uncheckedINtNtNtB5_3ops5range9RangeFromjEEB5_ PROGBITS        8021909c 01a09c 000038 00  AX  0   0  4
  [731] .text._RNvMs1_NtNtCsakCY22H5bhg_4core3ptr9const_ptrPSINtNtNtB9_3mem12maybe_uninit11MaybeUninithE3lenB9_ PROGBITS        802190d4 01a0d4 000024 00  AX  0   0  4
  [732] .text._RNvXsb_NtCsakCY22H5bhg_4core5arrayRAjj4_NtNtNtNtB7_4iter6traits7collect12IntoIterator9into_iterB7_ PROGBITS        802190f8 01a0f8 000024 00  AX  0   0  4
  [733] .text._RNvXsd_NtCsakCY22H5bhg_4core5arrayAhj4_INtNtNtB7_3ops5index5IndexINtNtBG_5range5RangejEE5indexB7_ PROGBITS        8021911c 01a11c 0000dc 00  AX  0   0  4
  [734] .text._RINvMs0_NtNtCsakCY22H5bhg_4core3ptr8non_nullINtB6_7NonNullhE10cast_arrayKj2_EBa_ PROGBITS        802191f8 01a1f8 000020 00  AX  0   0  4
  [735] .text._RINvMs0_NtNtCsakCY22H5bhg_4core3ptr8non_nullINtB6_7NonNullhE10cast_arrayKj4_EBa_ PROGBITS        80219218 01a218 000020 00  AX  0   0  4
  [736] .text._RINvMs1_NtNtCsakCY22H5bhg_4core3ptr8non_nullINtB6_7NonNullINtNtNtBa_3ops5range5RangejEE4castuEBa_ PROGBITS        80219238 01a238 000014 00  AX  0   0  4
  [737] .text._RINvMs1_NtNtCsakCY22H5bhg_4core3ptr8non_nullINtB6_7NonNullNtNtBa_3fmt9ArgumentsE4castuEBa_ PROGBITS        8021924c 01a24c 000014 00  AX  0   0  4
  [738] .text._RINvMs1_NtNtCsakCY22H5bhg_4core3ptr8non_nullINtB6_7NonNullRDNtNtBa_3fmt5DebugEL_E4castuEBa_ PROGBITS        80219260 01a260 000014 00  AX  0   0  4
  [739] .text._RINvMs1_NtNtCsakCY22H5bhg_4core3ptr8non_nullINtB6_7NonNullReE4castuEBa_ PROGBITS        80219274 01a274 000014 00  AX  0   0  4
  [740] .text._RINvMs1_NtNtCsakCY22H5bhg_4core3ptr8non_nullINtB6_7NonNullSAjj4_E4castBV_EBa_ PROGBITS        80219288 01a288 00001c 00  AX  0   0  4
  [741] .text._RINvMs1_NtNtCsakCY22H5bhg_4core3ptr8non_nullINtB6_7NonNullSThhEE4castBV_EBa_ PROGBITS        802192a4 01a2a4 00001c 00  AX  0   0  4
  [742] .text._RINvMs1_NtNtCsakCY22H5bhg_4core3ptr8non_nullINtB6_7NonNullShE4casthEBa_ PROGBITS        802192c0 01a2c0 00001c 00  AX  0   0  4
  [743] .text._RINvMs1_NtNtCsakCY22H5bhg_4core3ptr8non_nullINtB6_7NonNullSjE4castjEBa_ PROGBITS        802192dc 01a2dc 00001c 00  AX  0   0  4
  [744] .text._RINvMs1_NtNtCsakCY22H5bhg_4core3ptr8non_nullINtB6_7NonNullcE4castuEBa_ PROGBITS        802192f8 01a2f8 000014 00  AX  0   0  4
  [745] .text._RINvMs1_NtNtCsakCY22H5bhg_4core3ptr8non_nullINtB6_7NonNullhE4castAhj2_EBa_ PROGBITS        8021930c 01a30c 000014 00  AX  0   0  4
  [746] .text._RINvMs1_NtNtCsakCY22H5bhg_4core3ptr8non_nullINtB6_7NonNullhE4castAhj4_EBa_ PROGBITS        80219320 01a320 000014 00  AX  0   0  4
  [747] .text._RINvMs1_NtNtCsakCY22H5bhg_4core3ptr8non_nullINtB6_7NonNulljE4castuEBa_ PROGBITS        80219334 01a334 000014 00  AX  0   0  4
  [748] .text._RINvMs1_NtNtCsakCY22H5bhg_4core3ptr8non_nullINtB6_7NonNullmE4castuEBa_ PROGBITS        80219348 01a348 000014 00  AX  0   0  4
  [749] .text._RINvXs2J_NtNtCsakCY22H5bhg_4core5slice4iterINtB7_4IterhENtNtNtNtBb_4iter6traits8iterator8Iterator4foldjNCINvNtNtBY_8adapters3map8map_foldRhjjNCINvNvXs1_NtB1K_6filterINtB2q_6FilterppEBS_5count8to_usizeB2b_NCNvNtNtBb_3str5count23char_count_general_cas PROGBITS        8021935c 01a35c 000130 00  AX  0   0  4
  [750] .text._RINvXs2J_NtNtCsakCY22H5bhg_4core5slice4iterINtB7_4IterhENtNtNtNtBb_4iter6traits8iterator8Iterator8positionNCNvXsh_NtBb_3fmteNtB1O_5Debug3fmt0EBb_ PROGBITS        8021948c 01a48c 00011c 00  AX  0   0  4
  [751] .text._RINvYINtNtNtCsakCY22H5bhg_4core5slice4iter4IterhENtNtNtNtBa_4iter6traits8iterator8Iterator3mapjNCINvNvXs1_NtNtBR_8adapters6filterINtB1G_6FilterppEBL_5count8to_usizeRhNCNvNtNtBa_3str5count23char_count_general_case0E0EBa_ PROGBITS        802195a8 01a5a8 000024 00  AX  0   0  4
  [752] .text._RINvYINtNtNtCsakCY22H5bhg_4core5slice4iter4IterhENtNtNtNtBa_4iter6traits8iterator8Iterator6clonedhEBa_ PROGBITS        802195cc 01a5cc 000024 00  AX  0   0  4
  [753] .text._RINvYINtNtNtCsakCY22H5bhg_4core5slice4iter4IterhENtNtNtNtBa_4iter6traits8iterator8Iterator6filterNCNvNtNtBa_3str5count23char_count_general_case0EBa_ PROGBITS        802195f0 01a5f0 000024 00  AX  0   0  4
  [754] .text._RNvMs15_NtNtCsakCY22H5bhg_4core5slice4iterINtB6_6ChunksjE3newBa_ PROGBITS        80219614 01a614 000024 00  AX  0   0  4
  [755] .text._RNvMs1_NtNtCsakCY22H5bhg_4core3ptr8non_nullINtB5_7NonNullAhj2_E4readB9_ PROGBITS        80219638 01a638 000048 00  AX  0   0  4
  [756] .text._RNvMs1_NtNtCsakCY22H5bhg_4core3ptr8non_nullINtB5_7NonNullAhj4_E4readB9_ PROGBITS        80219680 01a680 000060 00  AX  0   0  4
  [757] .text._RNvMs1_NtNtCsakCY22H5bhg_4core3ptr8non_nullINtB5_7NonNullINtNtNtB9_3ops5range5RangejEE8from_refB9_ PROGBITS        802196e0 01a6e0 000010 00  AX  0   0  4
  [758] .text._RNvMs1_NtNtCsakCY22H5bhg_4core3ptr8non_nullINtB5_7NonNullNtNtB9_3fmt9ArgumentsE8from_refB9_ PROGBITS        802196f0 01a6f0 000010 00  AX  0   0  4
  [759] .text._RNvMs1_NtNtCsakCY22H5bhg_4core3ptr8non_nullINtB5_7NonNullRDNtNtB9_3fmt5DebugEL_E8from_refB9_ PROGBITS        80219700 01a700 000010 00  AX  0   0  4
  [760] .text._RNvMs1_NtNtCsakCY22H5bhg_4core3ptr8non_nullINtB5_7NonNullReE8from_refB9_ PROGBITS        80219710 01a710 000010 00  AX  0   0  4
  [761] .text._RNvMs1_NtNtCsakCY22H5bhg_4core3ptr8non_nullINtB5_7NonNullSAjj4_E8from_refB9_ PROGBITS        80219720 01a720 000014 00  AX  0   0  4
  [762] .text._RNvMs1_NtNtCsakCY22H5bhg_4core3ptr8non_nullINtB5_7NonNullSThhEE8from_refB9_ PROGBITS        80219734 01a734 000014 00  AX  0   0  4
  [763] .text._RNvMs1_NtNtCsakCY22H5bhg_4core3ptr8non_nullINtB5_7NonNullShE8from_refB9_ PROGBITS        80219748 01a748 000014 00  AX  0   0  4
  [764] .text._RNvMs1_NtNtCsakCY22H5bhg_4core3ptr8non_nullINtB5_7NonNullSjE8from_refB9_ PROGBITS        8021975c 01a75c 000014 00  AX  0   0  4
  [765] .text._RNvMs1_NtNtCsakCY22H5bhg_4core3ptr8non_nullINtB5_7NonNullcE8from_refB9_ PROGBITS        80219770 01a770 000010 00  AX  0   0  4
  [766] .text._RNvMs1_NtNtCsakCY22H5bhg_4core3ptr8non_nullINtB5_7NonNullhE20offset_from_unsignedB9_ PROGBITS        80219780 01a780 000034 00  AX  0   0  4
  [767] .text._RNvMs1_NtNtCsakCY22H5bhg_4core3ptr8non_nullINtB5_7NonNullhE4readB9_ PROGBITS        802197b4 01a7b4 00002c 00  AX  0   0  4
  [768] .text._RNvMs1_NtNtCsakCY22H5bhg_4core3ptr8non_nullINtB5_7NonNulljE8from_refB9_ PROGBITS        802197e0 01a7e0 000010 00  AX  0   0  4
  [769] .text._RNvMs1_NtNtCsakCY22H5bhg_4core3ptr8non_nullINtB5_7NonNullmE8from_refB9_ PROGBITS        802197f0 01a7f0 000010 00  AX  0   0  4
  [770] .text._RNvMs4_NtNtCsakCY22H5bhg_4core5slice4iterINtB5_4IterAjj4_E3newB9_ PROGBITS        80219800 01a800 0000a8 00  AX  0   0  4
  [771] .text._RNvMs4_NtNtCsakCY22H5bhg_4core5slice4iterINtB5_4IterThhEE3newB9_ PROGBITS        802198a8 01a8a8 0000a8 00  AX  0   0  4
  [772] .text._RNvMs4_NtNtCsakCY22H5bhg_4core5slice4iterINtB5_4IterhE3newB9_ PROGBITS        80219950 01a950 0000a4 00  AX  0   0  4
  [773] .text._RNvMs4_NtNtCsakCY22H5bhg_4core5slice4iterINtB5_4IterhE8as_sliceB9_ PROGBITS        802199f4 01a9f4 000060 00  AX  0   0  4
  [774] .text._RNvMs4_NtNtCsakCY22H5bhg_4core5slice4iterINtB5_4IterjE3newB9_ PROGBITS        80219a54 01aa54 0000a8 00  AX  0   0  4
  [775] .text._RNvXNtNtNtCsakCY22H5bhg_4core4iter6traits7collectINtNtNtB8_5slice4iter6ChunksjENtB2_12IntoIterator9into_iterB8_ PROGBITS        80219afc 01aafc 000030 00  AX  0   0  4
  [776] .text._RNvXs17_NtNtCsakCY22H5bhg_4core5slice4iterINtB6_6ChunksjENtNtNtNtBa_4iter6traits8iterator8Iterator4nextBa_ PROGBITS        80219b2c 01ab2c 0000c0 00  AX  0   0  4
  [777] .text._RNvXs2J_NtNtCsakCY22H5bhg_4core5slice4iterINtB6_4IterAjj4_ENtNtNtNtBa_4iter6traits8iterator8Iterator4nextBa_ PROGBITS        80219bec 01abec 0000ac 00  AX  0   0  4
  [778] .text._RNvXs2J_NtNtCsakCY22H5bhg_4core5slice4iterINtB6_4IterThhEENtNtNtNtBa_4iter6traits8iterator8Iterator4nextBa_ PROGBITS        80219c98 01ac98 0000ac 00  AX  0   0  4
  [779] .text._RNvXs2J_NtNtCsakCY22H5bhg_4core5slice4iterINtB6_4IterhENtNtNtNtBa_4iter6traits8iterator8Iterator4nextBa_ PROGBITS        80219d44 01ad44 0000ac 00  AX  0   0  4
  [780] .text._RNvXs2J_NtNtCsakCY22H5bhg_4core5slice4iterINtB6_4IterhENtNtNtNtBa_4iter6traits8iterator8Iterator9size_hintBa_ PROGBITS        80219df0 01adf0 00005c 00  AX  0   0  4
  [781] .text._RNvXs2J_NtNtCsakCY22H5bhg_4core5slice4iterINtB6_4IterjENtNtNtNtBa_4iter6traits8iterator8Iterator4nextBa_ PROGBITS        80219e4c 01ae4c 0000ac 00  AX  0   0  4
  [782] .text._RNvXs5_NtNtCsakCY22H5bhg_4core3num5errorNtB5_15TryFromIntErrorNtNtB9_3fmt5Debug3fmtB9_ PROGBITS        80219ef8 01aef8 00004c 00  AX  0   0  4
  [783] .text._RNvXs8_NtNtNtCsakCY22H5bhg_4core4iter8adapters6filterINtNtNtBb_5slice4iter4IterhENtB5_15SpecAssumeCount27assume_count_le_upper_boundBb_ PROGBITS        80219f44 01af44 000058 00  AX  0   0  4
  [784] .text._RNvXs_NtNtCsakCY22H5bhg_4core5slice4iterRSAjj4_NtNtNtNtB8_4iter6traits7collect12IntoIterator9into_iterB8_ PROGBITS        80219f9c 01af9c 000024 00  AX  0   0  4
  [785] .text._RNvXs_NtNtCsakCY22H5bhg_4core5slice4iterRSThhENtNtNtNtB8_4iter6traits7collect12IntoIterator9into_iterB8_ PROGBITS        80219fc0 01afc0 000024 00  AX  0   0  4
  [786] .text._RNvXs_NtNtCsakCY22H5bhg_4core5slice4iterRShNtNtNtNtB8_4iter6traits7collect12IntoIterator9into_iterB8_ PROGBITS        80219fe4 01afe4 000024 00  AX  0   0  4
  [787] .text._RNvXs_NtNtCsakCY22H5bhg_4core5slice4iterRSjNtNtNtNtB8_4iter6traits7collect12IntoIterator9into_iterB8_ PROGBITS        8021a008 01b008 000024 00  AX  0   0  4
  [788] .text._RNvXsd_NtNtCsakCY22H5bhg_4core3ptr8non_nullINtB5_7NonNullAjj4_ENtNtB9_3cmp9PartialEq2eqB9_ PROGBITS        8021a02c 01b02c 00002c 00  AX  0   0  4
  [789] .text._RNvXsd_NtNtCsakCY22H5bhg_4core3ptr8non_nullINtB5_7NonNullThhEENtNtB9_3cmp9PartialEq2eqB9_ PROGBITS        8021a058 01b058 00002c 00  AX  0   0  4
  [790] .text._RNvXsd_NtNtCsakCY22H5bhg_4core3ptr8non_nullINtB5_7NonNullhENtNtB9_3cmp9PartialEq2eqB9_ PROGBITS        8021a084 01b084 00002c 00  AX  0   0  4
  [791] .text._RNvXsd_NtNtCsakCY22H5bhg_4core3ptr8non_nullINtB5_7NonNulljENtNtB9_3cmp9PartialEq2eqB9_ PROGBITS        8021a0b0 01b0b0 00002c 00  AX  0   0  4
  [792] .text._RINvMs1_NtNtCsakCY22H5bhg_4core3fmt8buildersNtB6_11DebugStruct10field_withNCNvB2_5field0EBa_ PROGBITS        8021a0dc 01b0dc 000068 00  AX  0   0  4
  [793] .text._RINvMs2_NtNtCsakCY22H5bhg_4core3fmt8buildersNtB6_10DebugTuple10field_withNCNvB2_5field0EBa_ PROGBITS        8021a144 01b144 000080 00  AX  0   0  4
  [794] .text._RINvNtNtCsakCY22H5bhg_4core3ptr8metadata14from_raw_partsSAjj4_BT_EB6_ PROGBITS        8021a1c4 01b1c4 000014 00  AX  0   0  4
  [795] .text._RINvNtNtCsakCY22H5bhg_4core3ptr8metadata14from_raw_partsShhEB6_ PROGBITS        8021a1d8 01b1d8 000014 00  AX  0   0  4
  [796] .text._RINvNtNtCsakCY22H5bhg_4core3ptr8metadata14from_raw_partsSjjEB6_ PROGBITS        8021a1ec 01b1ec 000014 00  AX  0   0  4
  [797] .text._RINvNtNtCsakCY22H5bhg_4core3ptr8metadata14from_raw_partsehEB6_ PROGBITS        8021a200 01b200 000014 00  AX  0   0  4
  [798] .text._RINvNtNtCsakCY22H5bhg_4core3ptr8metadata18from_raw_parts_mutShhEB6_ PROGBITS        8021a214 01b214 000014 00  AX  0   0  4
  [799] .text._RINvNtNtCsakCY22H5bhg_4core3ptr8metadata8metadataSINtNtNtB6_3mem12maybe_uninit11MaybeUninithEEB6_ PROGBITS        8021a228 01b228 000020 00  AX  0   0  4
  [800] .text._RINvNtNtCsakCY22H5bhg_4core3ptr8metadata8metadataSNtNtNtB6_5ascii10ascii_char9AsciiCharEB6_ PROGBITS        8021a248 01b248 000020 00  AX  0   0  4
  [801] .text._RINvNtNtCsakCY22H5bhg_4core3ptr8metadata8metadataSNtNtNtB6_7unicode12unicode_data20ShortOffsetRunHeaderEB6_ PROGBITS        8021a268 01b268 000020 00  AX  0   0  4
  [802] .text._RINvNtNtCsakCY22H5bhg_4core3ptr8metadata8metadataShEB6_ PROGBITS        8021a288 01b288 000020 00  AX  0   0  4
  [803] .text._RINvNvXs1_NtNtNtCsakCY22H5bhg_4core4iter8adapters6filterINtB8_6FilterppENtNtNtBc_6traits8iterator8Iterator5count8to_usizeRhNCNvNtNtBe_3str5count23char_count_general_case0EBe_ PROGBITS        8021a2a8 01b2a8 00000c 00  AX  0   0  4
  [804] .text._RNCINvMs1_NtNtCsakCY22H5bhg_4core3fmt8buildersNtB8_11DebugStruct10field_withNCNvB4_5field0E0Bc_ PROGBITS        8021a2b4 01b2b4 00031c 00  AX  0   0  4
  [805] .text._RNCINvMs2_NtNtCsakCY22H5bhg_4core3fmt8buildersNtB8_10DebugTuple10field_withNCNvB4_5field0E0Bc_ PROGBITS        8021a5d0 01b5d0 00020c 00  AX  0   0  4
  [806] .text._RNCINvNvXs1_NtNtNtCsakCY22H5bhg_4core4iter8adapters6filterINtBa_6FilterppENtNtNtBe_6traits8iterator8Iterator5count8to_usizeRhNCNvNtNtBg_3str5count23char_count_general_case0E0Bg_ PROGBITS        8021a7dc 01b7dc 000028 00  AX  0   0  4
  [807] .text._RNCNvMs1_NtNtCsakCY22H5bhg_4core3fmt8buildersNtB7_11DebugStruct5field0Bb_ PROGBITS        8021a804 01b804 000034 00  AX  0   0  4
  [808] .text._RNCNvMs1_NtNtCsakCY22H5bhg_4core3fmt8buildersNtB7_11DebugStruct6finish0Bb_ PROGBITS        8021a838 01b838 000078 00  AX  0   0  4
  [809] .text._RNCNvMs2_NtNtCsakCY22H5bhg_4core3fmt8buildersNtB7_10DebugTuple5field0Bb_ PROGBITS        8021a8b0 01b8b0 000034 00  AX  0   0  4
  [810] .text._RNCNvMs2_NtNtCsakCY22H5bhg_4core3fmt8buildersNtB7_10DebugTuple6finish0Bb_ PROGBITS        8021a8e4 01b8e4 0000c0 00  AX  0   0  4
  [811] .text._RNCNvMs_NtNtCsakCY22H5bhg_4core3fmt8buildersNtB6_10PadAdapter4wrap0Ba_ PROGBITS        8021a9a4 01b9a4 000044 00  AX  0   0  4
  [812] .text._RNvMNtNtNtCsakCY22H5bhg_4core4iter8adapters6filterINtB2_6FilterINtNtNtB8_5slice4iter4IterhENCNvNtNtB8_3str5count23char_count_general_case0E3newB8_ PROGBITS        8021a9e8 01b9e8 000014 00  AX  0   0  4
  [813] .text._RNvMs1_NtNtCsakCY22H5bhg_4core3fmt8buildersNtB5_11DebugStruct5field PROGBITS        8021a9fc 01b9fc 000030 00  AX  0   0  4
  [814] .text._RNvMs1_NtNtCsakCY22H5bhg_4core3fmt8buildersNtB5_11DebugStruct6finish PROGBITS        8021aa2c 01ba2c 000050 00  AX  0   0  4
  [815] .text._RNvMs1_NtNtCsakCY22H5bhg_4core3fmt8buildersNtB5_11DebugStruct9is_pretty PROGBITS        8021aa7c 01ba7c 000024 00  AX  0   0  4
  [816] .text._RNvMs2_NtNtCsakCY22H5bhg_4core3fmt8buildersNtB5_10DebugTuple5field PROGBITS        8021aaa0 01baa0 000028 00  AX  0   0  4
  [817] .text._RNvMs2_NtNtCsakCY22H5bhg_4core3fmt8buildersNtB5_10DebugTuple6finish PROGBITS        8021aac8 01bac8 00004c 00  AX  0   0  4
  [818] .text._RNvMs2_NtNtCsakCY22H5bhg_4core3fmt8buildersNtB5_10DebugTuple9is_pretty PROGBITS        8021ab14 01bb14 000024 00  AX  0   0  4
  [819] .text._RNvMs_NtNtCsakCY22H5bhg_4core3fmt8buildersNtB4_10PadAdapter4wrap PROGBITS        8021ab38 01bb38 000028 00  AX  0   0  4
  [820] .text._RNvNtNtCsakCY22H5bhg_4core3fmt8builders15debug_tuple_new PROGBITS        8021ab60 01bb60 00008c 00  AX  0   0  4
  [821] .text._RNvNtNtCsakCY22H5bhg_4core3fmt8builders16debug_struct_new PROGBITS        8021abec 01bbec 00006c 00  AX  0   0  4
  [822] .text._RNvNtNtNtCsakCY22H5bhg_4core7unicode12unicode_data15grapheme_extend11lookup_slow PROGBITS        8021ac58 01bc58 000338 00  AX  0   0  4
  [823] .text._RNvNtNtNtCsakCY22H5bhg_4core7unicode12unicode_data15grapheme_extend6lookupB7_ PROGBITS        8021af90 01bf90 00007c 00  AX  0   0  4
  [824] .text._RNvXNtNtCsakCY22H5bhg_4core3fmt8buildersNtB2_15PadAdapterStateNtNtB6_7default7Default7default PROGBITS        8021b00c 01c00c 000008 00  AX  0   0  4
  [825] .text._RNvXs0_NtNtCsakCY22H5bhg_4core3fmt8buildersNtB5_10PadAdapterNtB7_5Write10write_char PROGBITS        8021b014 01c014 0000b4 00  AX  0   0  4
  [826] .text._RNvXs0_NtNtCsakCY22H5bhg_4core3fmt8buildersNtB5_10PadAdapterNtB7_5Write9write_str PROGBITS        8021b0c8 01c0c8 00016c 00  AX  0   0  4
  [827] .text._RNvXs1_NtNtNtCsakCY22H5bhg_4core4iter8adapters6filterINtB5_6FilterINtNtNtBb_5slice4iter4IterhENCNvNtNtBb_3str5count23char_count_general_case0ENtNtNtB9_6traits8iterator8Iterator5countBb_ PROGBITS        8021b234 01c234 000090 00  AX  0   0  4
  [828] .text._RNvXs2X_NtNtCsakCY22H5bhg_4core7convert3nummINtB8_7TryFromlE8try_fromBa_ PROGBITS        8021b2c4 01c2c4 000044 00  AX  0   0  4
  [829] .text._RNvXs_NvNtNtCsakCY22H5bhg_4core3fmt5Write9write_fmtQNtNtB8_8builders10PadAdapterNtB4_12SpecWriteFmt14spec_write_fmtBa_ PROGBITS        8021b308 01c308 000090 00  AX  0   0  4
  [830] .text._RNvYNtNtNtCsakCY22H5bhg_4core3fmt8builders10PadAdapterNtB6_5Write9write_fmtB8_ PROGBITS        8021b398 01c398 000028 00  AX  0   0  4
  [831] .text._RINvMNtCsakCY22H5bhg_4core6optionINtB3_6OptionRhE3maphNvYhNtNtB5_5clone5Clone5cloneEB5_ PROGBITS        8021b3c0 01c3c0 000084 00  AX  0   0  4
  [832] .text._RINvMNtCsakCY22H5bhg_4core6optionINtB3_6OptionjE3mapmNCINvNtNtB5_7unicode12unicode_data11skip_searchKj21_Kj2ff_Es_0EB5_ PROGBITS        8021b444 01c444 000094 00  AX  0   0  4
  [833] .text._RINvMNtCsakCY22H5bhg_4core6optionINtB3_6OptionmE3mapcNCNvXNtNtB5_3str4iterNtBU_5CharsNtNtNtNtB5_4iter6traits8iterator8Iterator4next0EB5_ PROGBITS        8021b4d8 01c4d8 00007c 00  AX  0   0  4
  [834] .text._RINvNtCsakCY22H5bhg_4core6escape14escape_unicodeKja_EB4_ PROGBITS        8021b554 01c554 000528 00  AX  0   0  4
  [835] .text._RINvNtCsakCY22H5bhg_4core6escape9backslashKja_EB4_ PROGBITS        8021ba7c 01ca7c 000078 00  AX  0   0  4
  [836] .text._RINvNtCsakCY22H5bhg_4core9panicking13assert_failedjjEB4_ PROGBITS        8021baf4 01caf4 000040 00  AX  0   0  4
  [837] .text._RINvNtCsakCY22H5bhg_4core9panicking13panic_displayReEB4_ PROGBITS        8021bb34 01cb34 000054 00  AX  0   0  4
  [838] .text._RNvMNtCsakCY22H5bhg_4core6escapeINtB2_15EscapeIterInnerKja_NtB2_12MaybeEscapedE16to_str_uncheckedB4_ PROGBITS        8021bb88 01cb88 000078 00  AX  0   0  4
  [839] .text._RNvMNtCsakCY22H5bhg_4core6escapeINtB2_15EscapeIterInnerKja_NtB2_12MaybeEscapedE3lenB4_ PROGBITS        8021bc00 01cc00 000048 00  AX  0   0  4
  [840] .text._RNvMNtCsakCY22H5bhg_4core6escapeINtB2_15EscapeIterInnerKja_NtB2_12MaybeEscapedE3newB4_ PROGBITS        8021bc48 01cc48 000088 00  AX  0   0  4
  [841] .text._RNvMNtCsakCY22H5bhg_4core6escapeINtB2_15EscapeIterInnerKja_NtB2_12MaybeEscapedE7to_charB4_ PROGBITS        8021bcd0 01ccd0 000044 00  AX  0   0  4
  [842] .text._RNvMNtCsakCY22H5bhg_4core6escapeINtB2_15EscapeIterInnerKja_NtB2_12MaybeEscapedE7unicodeB4_ PROGBITS        8021bd14 01cd14 0000cc 00  AX  0   0  4
  [843] .text._RNvMNtCsakCY22H5bhg_4core6escapeINtB2_15EscapeIterInnerKja_NtB2_12MaybeEscapedE9backslashB4_ PROGBITS        8021bde0 01cde0 0000cc 00  AX  0   0  4
  [844] .text._RNvMNtCsakCY22H5bhg_4core6optionINtB2_6OptionNtNtB4_3fmt9AlignmentE9unwrap_orB4_ PROGBITS        8021beac 01ceac 000078 00  AX  0   0  4
  [845] .text._RNvMNtCsakCY22H5bhg_4core6optionINtB2_6OptionNtNtNtB4_3fmt8builders10PadAdapterE6as_mutB4_ PROGBITS        8021bf24 01cf24 000040 00  AX  0   0  4
  [846] .text._RNvMNtCsakCY22H5bhg_4core6optionINtB2_6OptionNtNtNtB4_3fmt8builders10PadAdapterE6insertB4_ PROGBITS        8021bf64 01cf64 000060 00  AX  0   0  4
  [847] .text._RNvMNtCsakCY22H5bhg_4core6optionINtB2_6OptionQNtNtNtB4_3fmt8builders10PadAdapterE16unwrap_uncheckedB4_ PROGBITS        8021bfc4 01cfc4 000034 00  AX  0   0  4
  [848] .text._RNvMNtCsakCY22H5bhg_4core6optionINtB2_6OptionReE7is_someB4_ PROGBITS        8021bff8 01cff8 000038 00  AX  0   0  4
  [849] .text._RNvMNtCsakCY22H5bhg_4core6optionINtB2_6OptionRhE16unwrap_uncheckedB4_ PROGBITS        8021c030 01d030 000034 00  AX  0   0  4
  [850] .text._RNvMNtCsakCY22H5bhg_4core6optionINtB2_6OptionjE9unwrap_orB4_ PROGBITS        8021c064 01d064 000074 00  AX  0   0  4
  [851] .text._RNvMNtCsakCY22H5bhg_4core6optionINtB2_6OptionmE9unwrap_orB4_ PROGBITS        8021c0d8 01d0d8 000074 00  AX  0   0  4
  [852] .text._RNvMNtCsakCY22H5bhg_4core6optionINtB2_6OptiontE16unwrap_uncheckedB4_ PROGBITS        8021c14c 01d14c 00003c 00  AX  0   0  4
  [853] .text._RNvMs0_NtCsakCY22H5bhg_4core6escapeINtB5_15EscapeIterInnerKja_NtB5_12MaybeEscapedE9printableB7_ PROGBITS        8021c188 01d188 000048 00  AX  0   0  4
  [854] .text._RNvMs1_NtCsakCY22H5bhg_4core6optionINtB5_6OptionRhE6clonedB7_ PROGBITS        8021c1d0 01d1d0 000020 00  AX  0   0  4
  [855] .text._RNvNtCsakCY22H5bhg_4core6option13expect_failed PROGBITS        8021c1f0 01d1f0 000030 00  AX  0   0  4
  [856] .text._RNvNtCsakCY22H5bhg_4core6option13unwrap_failed PROGBITS        8021c220 01d220 000018 00  AX  0   0  4
  [857] .text._RNvNtCsakCY22H5bhg_4core9panicking14panic_nounwind PROGBITS        8021c238 01d238 00002c 00  AX  0   0  4
  [858] .text._RNvNtCsakCY22H5bhg_4core9panicking18panic_bounds_check PROGBITS        8021c264 01d264 000084 00  AX  0   0  4
  [859] .text._RNvNtCsakCY22H5bhg_4core9panicking18panic_nounwind_fmt PROGBITS        8021c2e8 01d2e8 000030 00  AX  0   0  4
  [860] .text._RNvNtCsakCY22H5bhg_4core9panicking19assert_failed_inner PROGBITS        8021c318 01d318 00020c 00  AX  0   0  4
  [861] .text._RNvNtCsakCY22H5bhg_4core9panicking30panic_null_pointer_dereference PROGBITS        8021c524 01d524 000030 00  AX  0   0  4
  [862] .text._RNvNtCsakCY22H5bhg_4core9panicking36panic_misaligned_pointer_dereference PROGBITS        8021c554 01d554 000088 00  AX  0   0  4
  [863] .text._RNvNtCsakCY22H5bhg_4core9panicking5panic PROGBITS        8021c5dc 01d5dc 000028 00  AX  0   0  4
  [864] .text._RNvNtCsakCY22H5bhg_4core9panicking9panic_fmt PROGBITS        8021c604 01d604 000050 00  AX  0   0  4
  [865] .text._RNvNvNtCsakCY22H5bhg_4core9panicking18panic_nounwind_fmt7runtimeB5_ PROGBITS        8021c654 01d654 000058 00  AX  0   0  4
  [866] .text._RNvXs11_NtNtCsakCY22H5bhg_4core3cmp5implsmNtB8_3Ord3cmpBa_ PROGBITS        8021c6ac 01d6ac 000028 00  AX  0   0  4
  [867] .text._RNvXs2_NtCsakCY22H5bhg_4core6escapeINtB5_15EscapeIterInnerKja_NtB5_12MaybeEscapedENtNtB7_3fmt7Display3fmtB7_ PROGBITS        8021c6d4 01d6d4 000090 00  AX  0   0  4
  [868] .text._RNvXs7_NtNtCsakCY22H5bhg_4core3cmp5implsRShNtB7_9PartialEq2eqB9_ PROGBITS        8021c764 01d764 00003c 00  AX  0   0  4
  [869] .text._RNvXsJ_NtCsakCY22H5bhg_4core6optionINtB5_6OptionINtNtNtB7_3num7nonzero7NonZerojEENtNtNtB7_3ops9try_trait3Try11from_outputB7_ PROGBITS        8021c7a0 01d7a0 000010 00  AX  0   0  4
  [870] .text._RNvXsJ_NtCsakCY22H5bhg_4core6optionINtB5_6OptionINtNtNtB7_3num7nonzero7NonZerojEENtNtNtB7_3ops9try_trait3Try6branchB7_ PROGBITS        8021c7b0 01d7b0 00003c 00  AX  0   0  4
  [871] .text._RNvXsJ_NtCsakCY22H5bhg_4core6optionINtB5_6OptionRShENtNtNtB7_3ops9try_trait3Try6branchB7_ PROGBITS        8021c7ec 01d7ec 000050 00  AX  0   0  4
  [872] .text._RNvXsJ_NtCsakCY22H5bhg_4core6optionINtB5_6OptionRhENtNtNtB7_3ops9try_trait3Try6branchB7_ PROGBITS        8021c83c 01d83c 00003c 00  AX  0   0  4
  [873] .text._RNvXsJ_NtCsakCY22H5bhg_4core6optionINtB5_6OptionmENtNtNtB7_3ops9try_trait3Try6branchB7_ PROGBITS        8021c878 01d878 000050 00  AX  0   0  4
  [874] .text._RNvXsK_NtCsakCY22H5bhg_4core6optionINtB5_6OptionINtNtNtB7_3num7nonzero7NonZerojEEINtNtNtB7_3ops9try_trait12FromResidualIBy_NtNtB7_7convert10InfallibleEE13from_residualB7_ PROGBITS        8021c8c8 01d8c8 000014 00  AX  0   0  4
  [875] .text._RNvXsK_NtCsakCY22H5bhg_4core6optionINtB5_6OptionTjjEEINtNtNtB7_3ops9try_trait12FromResidualIBy_NtNtB7_7convert10InfallibleEE13from_residualB7_ PROGBITS        8021c8dc 01d8dc 000020 00  AX  0   0  4
  [876] .text._RNvXsK_NtCsakCY22H5bhg_4core6optionINtB5_6OptionmEINtNtNtB7_3ops9try_trait12FromResidualIBy_NtNtB7_7convert10InfallibleEE13from_residualB7_ PROGBITS        8021c8fc 01d8fc 000014 00  AX  0   0  4
  [877] .text.memcmp      PROGBITS        8021c910 01d910 000028 00  AX  0   0  4
  [878] .text.memset      PROGBITS        8021c938 01d938 000028 00  AX  0   0  4
  [879] .text._RINvNtNtCsakCY22H5bhg_4core3ptr8metadata14from_raw_partshuECsljoIIpsrd6v_17compiler_builtins PROGBITS        8021c960 01d960 000010 00  AX  0   0  4
  [880] .text._RINvNtNtCsakCY22H5bhg_4core3ptr8metadata14from_raw_partsjuECsljoIIpsrd6v_17compiler_builtins PROGBITS        8021c970 01d970 000010 00  AX  0   0  4
  [881] .text._RINvNtNtCsakCY22H5bhg_4core3ptr8metadata18from_raw_parts_mutjuECsljoIIpsrd6v_17compiler_builtins PROGBITS        8021c980 01d980 000010 00  AX  0   0  4
  [882] .text._RINvNtNtCsakCY22H5bhg_4core3ptr8metadata8metadatahECsljoIIpsrd6v_17compiler_builtins PROGBITS        8021c990 01d990 000010 00  AX  0   0  4
  [883] .text._RINvNtNtCsakCY22H5bhg_4core3ptr8metadata8metadatajECsljoIIpsrd6v_17compiler_builtins PROGBITS        8021c9a0 01d9a0 000010 00  AX  0   0  4
  [884] .text._RINvMNtNtCsakCY22H5bhg_4core3ptr9const_ptrPh16with_metadata_ofhECsljoIIpsrd6v_17compiler_builtins PROGBITS        8021c9b0 01d9b0 000040 00  AX  0   0  4
  [885] .text._RINvMNtNtCsakCY22H5bhg_4core3ptr9const_ptrPh16with_metadata_ofjECsljoIIpsrd6v_17compiler_builtins PROGBITS        8021c9f0 01d9f0 000040 00  AX  0   0  4
  [886] .text._RNvNtCsljoIIpsrd6v_17compiler_builtins3mem6memcmp PROGBITS        8021ca30 01da30 000124 00  AX  0   0  4
  [887] .text._RNvNtCsljoIIpsrd6v_17compiler_builtins3mem6memcpy PROGBITS        8021cb54 01db54 000c34 00  AX  0   0  4
  [888] .text._RNvNtCsljoIIpsrd6v_17compiler_builtins3mem6memset PROGBITS        8021d788 01e788 000348 00  AX  0   0  4
  [889] .text._RINvMNtNtCsakCY22H5bhg_4core3ptr7mut_ptrOh16with_metadata_ofjECsljoIIpsrd6v_17compiler_builtins PROGBITS        8021dad0 01ead0 000040 00  AX  0   0  4
  [890] .text._RNvNtNtNtCsljoIIpsrd6v_17compiler_builtins4math9libm_math7support9cold_path PROGBITS        8021db10 01eb10 000004 00  AX  0   0  4
  [891] .text.memcpy      PROGBITS        8021db14 01eb14 000028 00  AX  0   0  4
  [892] .rodata           PROGBITS        8021db3c 01eb3c 006050 00 AMS  0   0  4
  [893] .eh_frame         PROGBITS        80223b8c 024b8c 000040 00   A  0   0  4
  [894] .data             PROGBITS        80223bcc 024bcc 000000 00   A  0   0  1
  [895] .bss              NOBITS          80223bcc 024bcc 0000cc 00  WA  0   0  4
  [896] .debug_abbrev     PROGBITS        00000000 024bcc 009e59 00      0   0  1
  [897] .debug_info       PROGBITS        00000000 02ea25 0f5fea 00      0   0  1
  [898] .debug_aranges    PROGBITS        00000000 124a0f 00d470 00      0   0  1
  [899] .debug_ranges     PROGBITS        00000000 131e7f 023e00 00      0   0  1
  [900] .debug_str        PROGBITS        00000000 155c7f 0fa284 01  MS  0   0  1
  [901] .comment          PROGBITS        00000000 24ff03 000093 01  MS  0   0  1
  [902] .riscv.attributes RISCV_ATTRIBUTES 00000000 24ff96 000042 00      0   0  1
  [903] .debug_frame      PROGBITS        00000000 24ffd8 02bc68 00      0   0  4
  [904] .debug_line       PROGBITS        00000000 27bc40 07b948 00      0   0  1
  [905] .debug_loc        PROGBITS        00000000 2f7588 0032ff 00      0   0  1
  [906] .symtab           SYMTAB          00000000 2fa888 033010 10     908 12614  4
  [907] .shstrtab         STRTAB          00000000 32d898 013fee 00      0   0  1
  [908] .strtab           STRTAB          00000000 341886 025fe4 00      0   0  1
Key to Flags:
  W (write), A (alloc), X (execute), M (merge), S (strings), I (info),
  L (link order), O (extra OS processing required), G (group), T (TLS),
  C (compressed), x (unknown), o (OS specific), E (exclude),
  D (mbind), p (processor specific)

There are no section groups in this file.

Program Headers:
  Type           Offset   VirtAddr   PhysAddr   FileSiz MemSiz  Flg Align
  LOAD           0x001000 0x80200000 0x80200000 0x00014 0x00014 R E 0x1000
  LOAD           0x002000 0x80201000 0x80201000 0x1cb3c 0x1cb3c R E 0x1000
  LOAD           0x01eb3c 0x8021db3c 0x8021db3c 0x06090 0x06090 R   0x1000
  LOAD           0x024bcc 0x80223bcc 0x80223bcc 0x00000 0x000cc RW  0x1000
  GNU_STACK      0x000000 0x00000000 0x00000000 0x00000 0x00000 RW  0
  RISCV_ATTRIBUT 0x24ff96 0x00000000 0x00000000 0x00042 0x00042 R   0x1

 Section to Segment mapping:
  Segment Sections...
   00     .text.boot 
   01     .trampsec .text._RNvMNtCsg1amJnYx2jd_4main6kernelNtB2_6Kernel8initproc .text._RNvMNtCsg1amJnYx2jd_4main6kernelNtB2_6Kernel9allocproc .text._RNvXs_NtCsg1amJnYx2jd_4main6kernelNtB4_6KernelNtNtCsakCY22H5bhg_4core7default7Default7defaultB6_ .text._RNvMNtCsevzKAMQQtOE_5alloc5allocNtB2_6Global10alloc_implCsg1amJnYx2jd_4main .text._RNvMNtCsevzKAMQQtOE_5alloc5allocNtB2_6Global18alloc_impl_runtimeCsg1amJnYx2jd_4main .text._RNvNtCsevzKAMQQtOE_5alloc5alloc12alloc_zeroedCsg1amJnYx2jd_4main .text._RNvNtCsevzKAMQQtOE_5alloc5alloc5allocCsg1amJnYx2jd_4main .text._RNvXs_NtCsevzKAMQQtOE_5alloc5allocNtB4_6GlobalNtNtCsakCY22H5bhg_4core5alloc9Allocator8allocateCsg1amJnYx2jd_4main .text._RINvYINtNtNtCsakCY22H5bhg_4core5slice4iter4IterhENtNtNtNtBa_4iter6traits8iterator8Iterator6copiedhECsg1amJnYx2jd_4main .text._RNvMsa_NtNtCsakCY22H5bhg_4core5slice4iterINtB5_7IterMutNtNtCsg1amJnYx2jd_4main7process7ProcessE3newBV_ .text._RNvXNtNtNtCsakCY22H5bhg_4core4iter6traits7collectINtNtNtB8_5slice4iter7IterMutNtNtCsg1amJnYx2jd_4main7process7ProcessENtB2_12IntoIterator9into_iterB1i_ .text._RNvXs2R_NtNtCsakCY22H5bhg_4core5slice4iterINtB6_7IterMutNtNtCsg1amJnYx2jd_4main7process7ProcessENtNtNtNtBa_4iter6traits8iterator8Iterator4nextBW_ .text._RNvMs2_NtNtCsakCY22H5bhg_4core4sync6atomicINtB5_6AtomicbE16compare_exchangeCsg1amJnYx2jd_4main .text._RNvMs2_NtNtCsakCY22H5bhg_4core4sync6atomicINtB5_6AtomicbE21compare_exchange_weakCsg1amJnYx2jd_4main .text._RNvMs2_NtNtCsakCY22H5bhg_4core4sync6atomicINtB5_6AtomicbE4loadCsg1amJnYx2jd_4main .text._RNvMs2_NtNtCsakCY22H5bhg_4core4sync6atomicINtB5_6AtomicbE4swapCsg1amJnYx2jd_4main .text._RNvMs2_NtNtCsakCY22H5bhg_4core4sync6atomicINtB5_6AtomicbE5storeCsg1amJnYx2jd_4main .text._RNvMs2_NtNtCsakCY22H5bhg_4core4sync6atomicINtB5_6AtomicbE8fetch_orCsg1amJnYx2jd_4main .text._RNvMs2_NtNtCsakCY22H5bhg_4core4sync6atomicINtB5_6AtomicbE9fetch_andCsg1amJnYx2jd_4main .text._RNvNtNtCsakCY22H5bhg_4core4sync6atomic14spin_loop_hintCsg1amJnYx2jd_4main .text._RINvMs1_NtNtCsakCY22H5bhg_4core3ptr8non_nullINtB6_7NonNullRNtNtNtBa_5panic10panic_info9PanicInfoE4castuECsg1amJnYx2jd_4main .text._RINvMs1_NtNtCsakCY22H5bhg_4core3ptr8non_nullINtB6_7NonNullSNtNtCsg1amJnYx2jd_4main7process7ProcessE4castBV_EBZ_ .text._RINvMs1_NtNtCsakCY22H5bhg_4core3ptr8non_nullINtB6_7NonNullhE4castNtNtCsg1amJnYx2jd_4main7process7ProcessEB15_ .text._RINvMs1_NtNtCsakCY22H5bhg_4core3ptr8non_nullINtB6_7NonNulllE4castuECsg1amJnYx2jd_4main .text._RNvMs1_NtNtCsakCY22H5bhg_4core3ptr8non_nullINtB5_7NonNullRNtNtNtB9_5panic10panic_info9PanicInfoE8from_refCsg1amJnYx2jd_4main .text._RNvMs1_NtNtCsakCY22H5bhg_4core3ptr8non_nullINtB5_7NonNullSNtNtCsg1amJnYx2jd_4main7process7ProcessE8from_mutBY_ .text._RNvMs1_NtNtCsakCY22H5bhg_4core3ptr8non_nullINtB5_7NonNulllE8from_refCsg1amJnYx2jd_4main .text._RNvXsd_NtNtCsakCY22H5bhg_4core3ptr8non_nullINtB5_7NonNullNtNtCsg1amJnYx2jd_4main7process7ProcessENtNtB9_3cmp9PartialEq2eqBX_ .text._RNvMNtCsakCY22H5bhg_4core5sliceSNtNtCsg1amJnYx2jd_4main7process7Process8iter_mutBy_ .text._RNvMNtNtCsakCY22H5bhg_4core3ptr7mut_ptrONtNtCsg1amJnYx2jd_4main7process7Process7is_nullBG_ .text._RNvMNtNtCsakCY22H5bhg_4core3ptr9const_ptrPNtNtCsg1amJnYx2jd_4main7process7Process7is_nullBI_ .text._RNvXs4_NtNtCsakCY22H5bhg_4core3ptr7mut_ptrONtNtCsg1amJnYx2jd_4main7process7ProcessNtNtB9_7default7Default7defaultBJ_ .text._RNvXsH_NtNtCsakCY22H5bhg_4core4iter5rangemNtB5_4Step17forward_uncheckedCsg1amJnYx2jd_4main .text._RNvXsI_NtNtCsakCY22H5bhg_4core4iter5rangelNtB5_4Step17forward_uncheckedCsg1amJnYx2jd_4main .text._RNvXsa_NtCsj4ivliY6BXz_4spin5mutexINtB5_10MutexGuardINtCsigOxFuwXbws_22buddy_system_allocator4HeapKj20_EENtNtNtCsakCY22H5bhg_4core3ops5deref8DerefMut9deref_mutCsg1amJnYx2jd_4main .text._RNvNvMNtNtCsakCY22H5bhg_4core3ptr9const_ptrPp7is_null7runtimeCsg1amJnYx2jd_4main .text._RINvMNtNtCsakCY22H5bhg_4core3mem9alignmentNtB3_9Alignment2ofNtNtCsg1amJnYx2jd_4main7process7ProcessEB10_ .text._RNvNtCsg1amJnYx2jd_4main4trap9kernelvec .text._RNvNtCsg1amJnYx2jd_4main4trap12interrupt_on .text._RNvNtCsg1amJnYx2jd_4main4trap13interrupt_off .text._RNvNtCsg1amJnYx2jd_4main4trap9init_trap .text.kerneltrap .text._RNCNvXs3_CsigOxFuwXbws_22buddy_system_allocatorINtB7_10LockedHeapKj20_ENtNtNtCsakCY22H5bhg_4core5alloc6global11GlobalAlloc5alloc0Csg1amJnYx2jd_4main .text._RNvMCsigOxFuwXbws_22buddy_system_allocatorINtB2_4HeapKj20_E11add_to_heapCsg1amJnYx2jd_4main .text._RNvMCsigOxFuwXbws_22buddy_system_allocatorINtB2_4HeapKj20_E4initCsg1amJnYx2jd_4main .text._RNvMCsigOxFuwXbws_22buddy_system_allocatorINtB2_4HeapKj20_E5allocCsg1amJnYx2jd_4main .text._RNvMCsigOxFuwXbws_22buddy_system_allocatorINtB2_4HeapKj20_E7deallocCsg1amJnYx2jd_4main .text._RNvXs2_CsigOxFuwXbws_22buddy_system_allocatorINtB5_10LockedHeapKj20_ENtNtNtCsakCY22H5bhg_4core3ops5deref5Deref5derefCsg1amJnYx2jd_4main .text._RNvXs3_CsigOxFuwXbws_22buddy_system_allocatorINtB5_10LockedHeapKj20_ENtNtNtCsakCY22H5bhg_4core5alloc6global11GlobalAlloc5allocCsg1amJnYx2jd_4main .text._RNvXs3_CsigOxFuwXbws_22buddy_system_allocatorINtB5_10LockedHeapKj20_ENtNtNtCsakCY22H5bhg_4core5alloc6global11GlobalAlloc7deallocCsg1amJnYx2jd_4main .text._RNvYINtCsigOxFuwXbws_22buddy_system_allocator10LockedHeapKj20_ENtNtNtCsakCY22H5bhg_4core5alloc6global11GlobalAlloc12alloc_zeroedCsg1amJnYx2jd_4main .text._RNvYINtCsigOxFuwXbws_22buddy_system_allocator10LockedHeapKj20_ENtNtNtCsakCY22H5bhg_4core5alloc6global11GlobalAlloc7reallocCsg1amJnYx2jd_4main .text._RNvMNtCsevzKAMQQtOE_5alloc3vecINtB2_3VecNtNtCsg1amJnYx2jd_4main7process7ProcessE3newBG_ .text._RNvMsF_NtCsevzKAMQQtOE_5alloc3vecINtB5_3VecNtNtCsg1amJnYx2jd_4main7process7ProcessE4pushBJ_ .text._RNvMsF_NtCsevzKAMQQtOE_5alloc3vecINtB5_3VecNtNtCsg1amJnYx2jd_4main7process7ProcessE8push_mutBJ_ .text._RNvMs_NtCsevzKAMQQtOE_5alloc3vecINtB4_3VecNtNtCsg1amJnYx2jd_4main7process7ProcessE10as_mut_ptrBI_ .text._RNvMs_NtCsevzKAMQQtOE_5alloc3vecINtB4_3VecNtNtCsg1amJnYx2jd_4main7process7ProcessE12as_mut_sliceBI_ .text._RNvMs_NtCsevzKAMQQtOE_5alloc3vecINtB4_3VecNtNtCsg1amJnYx2jd_4main7process7ProcessE3lenBI_ .text._RNvXs8_NtCsevzKAMQQtOE_5alloc3vecINtB5_3VecNtNtCsg1amJnYx2jd_4main7process7ProcessENtNtNtCsakCY22H5bhg_4core3ops5deref8DerefMut9deref_mutBJ_ .text._RNvXsh_NtCsevzKAMQQtOE_5alloc3vecQINtB5_3VecNtNtCsg1amJnYx2jd_4main7process7ProcessENtNtNtNtCsakCY22H5bhg_4core4iter6traits7collect12IntoIterator9into_iterBK_ .text._RNvXsp_NtCsevzKAMQQtOE_5alloc3vecINtB5_3VecNtNtCsg1amJnYx2jd_4main7process7ProcessENtNtCsakCY22H5bhg_4core7default7Default7defaultBJ_ .text._RNCNvNtCsevzKAMQQtOE_5alloc3fmt6format0Csg1amJnYx2jd_4main .text._RNvXNtNtNtCsakCY22H5bhg_4core4iter6traits7collectINtNtNtB8_3ops5range5RangelENtB2_12IntoIterator9into_iterCsg1amJnYx2jd_4main .text._RNvXNtNtNtCsakCY22H5bhg_4core4iter6traits7collectINtNtNtB8_3ops5range5RangemENtB2_12IntoIterator9into_iterCsg1amJnYx2jd_4main .text._RNvXs3_NtNtCsakCY22H5bhg_4core4iter5rangeINtNtNtB9_3ops5range5RangelENtB5_17RangeIteratorImpl9spec_nextCsg1amJnYx2jd_4main .text._RNvXs3_NtNtCsakCY22H5bhg_4core4iter5rangeINtNtNtB9_3ops5range5RangemENtB5_17RangeIteratorImpl9spec_nextCsg1amJnYx2jd_4main .text._RNvXs4_NtNtCsakCY22H5bhg_4core4iter5rangeINtNtNtB9_3ops5range5RangelENtNtNtB7_6traits8iterator8Iterator4nextCsg1amJnYx2jd_4main .text._RNvXs4_NtNtCsakCY22H5bhg_4core4iter5rangeINtNtNtB9_3ops5range5RangemENtNtNtB7_6traits8iterator8Iterator4nextCsg1amJnYx2jd_4main .text._RNvXNtNtNtCsakCY22H5bhg_4core4iter6traits7collectNtNtNtB8_3str4iter5BytesNtB2_12IntoIterator9into_iterCsg1amJnYx2jd_4main .text._RINvMNtCsakCY22H5bhg_4core6optionINtB3_6OptionINtNtNtB5_3ptr8non_null7NonNullhEE6map_orOhNCNvXs3_CsigOxFuwXbws_22buddy_system_allocatorINtB1x_10LockedHeapKj20_ENtNtNtB5_5alloc6global11GlobalAlloc5alloc0ECsg1amJnYx2jd_4main .text._RINvMNtCsakCY22H5bhg_4core6optionINtB3_6OptionOmE5ok_oruECsg1amJnYx2jd_4main .text._RINvMNtCsakCY22H5bhg_4core6optionINtB3_6OptionReE11map_or_elseNtNtCsevzKAMQQtOE_5alloc6string6StringNCNvNtB12_3fmt6format0NvYeNtNtB12_6borrow7ToOwned8to_ownedECsg1amJnYx2jd_4main .text._RNvMNtCsakCY22H5bhg_4core6optionINtB2_6OptionOjE6expectCsg1amJnYx2jd_4main .text._RNvMNtCsakCY22H5bhg_4core6optionINtB2_6OptionlE16unwrap_uncheckedCsg1amJnYx2jd_4main .text._RNvMs1_NtCsakCY22H5bhg_4core6optionINtB5_6OptionRhE6copiedCsg1amJnYx2jd_4main .text._RNvXs7_NtCsakCY22H5bhg_4core6optionINtB5_6OptionNtNtCsg1amJnYx2jd_4main10virtmemory3UvmENtNtB7_7default7Default7defaultBO_ .text._RNvXs7_NtCsakCY22H5bhg_4core6optionINtB5_6OptionmENtNtB7_7default7Default7defaultCsg1amJnYx2jd_4main .text._RNvXsK_NtCsakCY22H5bhg_4core6optionINtB5_6OptionOmEINtNtNtB7_3ops9try_trait12FromResidualIBy_NtNtB7_7convert10InfallibleEE13from_residualCsg1amJnYx2jd_4main .text._RNvNtCsakCY22H5bhg_4core9ub_checks16maybe_is_alignedCsg1amJnYx2jd_4main .text._RNvNtCsakCY22H5bhg_4core9ub_checks17check_language_ubCsg1amJnYx2jd_4main .text._RNvNtCsakCY22H5bhg_4core9ub_checks23maybe_is_nonoverlappingCsg1amJnYx2jd_4main .text._RNvNtCsakCY22H5bhg_4core9ub_checks29maybe_is_aligned_and_not_nullCsg1amJnYx2jd_4main .text._RNvNvNtCsakCY22H5bhg_4core9ub_checks16maybe_is_aligned7runtimeCsg1amJnYx2jd_4main .text._RNvNvNtCsakCY22H5bhg_4core9ub_checks17check_language_ub7runtimeCsg1amJnYx2jd_4main .text._RNvNvNtCsakCY22H5bhg_4core9ub_checks23maybe_is_nonoverlapping7runtimeCsg1amJnYx2jd_4main .text._RNvMNtNtCsakCY22H5bhg_4core5alloc6layoutNtB2_6Layout12dangling_ptrCsg1amJnYx2jd_4main .text._RNvMNtNtCsakCY22H5bhg_4core5alloc6layoutNtB2_6Layout29from_size_alignment_uncheckedCsg1amJnYx2jd_4main .text._RNvMNtNtCsakCY22H5bhg_4core5alloc6layoutNtB2_6Layout4sizeCsg1amJnYx2jd_4main .text._RNvMNtNtCsakCY22H5bhg_4core5alloc6layoutNtB2_6Layout5alignCsg1amJnYx2jd_4main .text._RNvMNtNtCsakCY22H5bhg_4core5alloc6layoutNtB2_6Layout9alignmentCsg1amJnYx2jd_4main .text._RNvNvMNtNtCsakCY22H5bhg_4core5alloc6layoutNtB4_6Layout29from_size_alignment_unchecked18precondition_checkCsg1amJnYx2jd_4main .text._RNvMNtCsakCY22H5bhg_4core3stre3lenCsg1amJnYx2jd_4main .text._RNvMNtCsakCY22H5bhg_4core3stre5bytesCsg1amJnYx2jd_4main .text._RNvNtCsg1amJnYx2jd_4main7process6switch .text._RNvMs_NtCsg1amJnYx2jd_4main7processNtB4_7Process3new .text._RNvMs_NtCsg1amJnYx2jd_4main7processNtB4_7Process4yeld .text._RNvMs_NtCsg1amJnYx2jd_4main7processNtB4_7Process5sched .text._RNvNtCsg1amJnYx2jd_4main7process9scheduler .text._RNvXs4_NtCsg1amJnYx2jd_4main7processNtB5_9ProcStateNtNtCsakCY22H5bhg_4core7default7Default7defaultB7_ .text._RNvXs6_NtCsg1amJnYx2jd_4main7processNtB5_9ProcStateNtNtCsakCY22H5bhg_4core3cmp9PartialEq2eqB7_ .text._RNvXsb_NtCsg1amJnYx2jd_4main7processNtB5_7ContextNtNtCsakCY22H5bhg_4core7default7Default7defaultB7_ .text._RNvXsc_NtCsg1amJnYx2jd_4main7processNtB5_3CpuNtNtCsakCY22H5bhg_4core7default7Default7defaultB7_ .text._RNvXsd_NtCsg1amJnYx2jd_4main7processNtB5_7ProcessNtNtCsakCY22H5bhg_4core7default7Default7defaultB7_ .text._RNvXs2_NtCsevzKAMQQtOE_5alloc3streNtNtB7_6borrow7ToOwned8to_ownedCsg1amJnYx2jd_4main .text._RNvMNtCsevzKAMQQtOE_5alloc6stringNtB2_6String19from_utf8_uncheckedCsg1amJnYx2jd_4main .text._RNvMNtCsevzKAMQQtOE_5alloc6stringNtB2_6String6as_strCsg1amJnYx2jd_4main .text._RNvXsx_NtCsevzKAMQQtOE_5alloc6stringNtB5_6StringNtNtNtCsakCY22H5bhg_4core3ops5deref5Deref5derefCsg1amJnYx2jd_4main .text._RNvXNtNtNtCsakCY22H5bhg_4core4iter6traits7collectNtNtCsigOxFuwXbws_22buddy_system_allocator11linked_list7IterMutNtB2_12IntoIterator9into_iterCsg1amJnYx2jd_4main .text._RNvNtNtCsakCY22H5bhg_4core9core_arch12riscv_shared5pauseCsg1amJnYx2jd_4main .text._RNvXsc_NtNtCsj4ivliY6BXz_4spin5mutex4spinINtB5_14SpinMutexGuardINtCsigOxFuwXbws_22buddy_system_allocator4HeapKj20_EENtNtNtCsakCY22H5bhg_4core3ops5deref8DerefMut9deref_mutCsg1amJnYx2jd_4main .text._RNvNvMNtNtCsakCY22H5bhg_4core3ptr7mut_ptrOp3add18precondition_checkCsg1amJnYx2jd_4main .text._RNvNvMNtNtCsakCY22H5bhg_4core3ptr7mut_ptrOp3add18runtime_add_nowrapCsg1amJnYx2jd_4main .text._RNvNvNvMNtNtCsakCY22H5bhg_4core3ptr7mut_ptrOp3add18runtime_add_nowrap7runtimeCsg1amJnYx2jd_4main .text._RNvMNtNtCsakCY22H5bhg_4core3mem9alignmentNtB2_9Alignment16as_nonzero_usizeCsg1amJnYx2jd_4main .text._RNvMNtNtCsakCY22H5bhg_4core3mem9alignmentNtB2_9Alignment8as_usizeCsg1amJnYx2jd_4main .text._RNvNtCsevzKAMQQtOE_5alloc5boxed14box_new_uninitCsg1amJnYx2jd_4main .text._RNvXs1g_NtCsakCY22H5bhg_4core3fmtRNtNtNtB8_5panic8location8LocationNtB6_5Debug3fmtCsg1amJnYx2jd_4main .text._RINvMs2_NtCsakCY22H5bhg_4core3fmtNtB6_9Arguments3newKj1b_Kj1_ECsg1amJnYx2jd_4main .text._RINvMs2_NtCsakCY22H5bhg_4core3fmtNtB6_9Arguments3newKj23_Kj2_ECsg1amJnYx2jd_4main .text._RINvMs2_NtCsakCY22H5bhg_4core3fmtNtB6_9Arguments3newKj32_Kj3_ECsg1amJnYx2jd_4main .text._RINvMs2_NtCsakCY22H5bhg_4core3fmtNtB6_9Arguments3newKj4_Kj1_ECsg1amJnYx2jd_4main .text._RINvMs2_NtCsakCY22H5bhg_4core3fmtNtB6_9Arguments3newKjc_Kj1_ECsg1amJnYx2jd_4main .text._RNvXs1g_NtCsakCY22H5bhg_4core3fmtRNtB6_9ArgumentsNtB6_5Debug3fmtCsg1amJnYx2jd_4main .text._RNvXs1g_NtCsakCY22H5bhg_4core3fmtRbNtB6_5Debug3fmtCsg1amJnYx2jd_4main .text._RNvXs1_NtNtCsg1amJnYx2jd_4main7process9trapframeNtB5_9TrapframeNtNtCsakCY22H5bhg_4core7default7Default7defaultB9_ .text._RNvMs4_NtCsakCY22H5bhg_4core3fmtNtB5_9Arguments6as_strCsg1amJnYx2jd_4main .text._RNvMs4_NtCsakCY22H5bhg_4core3fmtNtB5_9Arguments8from_strCsg1amJnYx2jd_4main .text._RNvXsf_NtCsakCY22H5bhg_4core3fmtbNtB5_5Debug3fmtCsg1amJnYx2jd_4main .text._RNvXss_NtCsakCY22H5bhg_4core3fmtuNtB5_5Debug3fmtCsg1amJnYx2jd_4main .text._RNvNtCsevzKAMQQtOE_5alloc3fmt6formatCsg1amJnYx2jd_4main .text._RNvXs7_NtNtCsakCY22H5bhg_4core3str4iterNtB5_5BytesNtNtNtNtB9_4iter6traits8iterator8Iterator4nextCsg1amJnYx2jd_4main .text._RNvNtCsakCY22H5bhg_4core4hint21unreachable_uncheckedCsg1amJnYx2jd_4main .text._RNvNvNtCsakCY22H5bhg_4core4hint21unreachable_unchecked18precondition_checkCsg1amJnYx2jd_4main .text._RNvMNtNtNtCsakCY22H5bhg_4core4iter8adapters6copiedINtB2_6CopiedINtNtNtB8_5slice4iter4IterhEE3newCsg1amJnYx2jd_4main .text._RNvXs_NtNtNtCsakCY22H5bhg_4core4iter8adapters6copiedINtB4_6CopiedINtNtNtBa_5slice4iter4IterhEENtNtNtB8_6traits8iterator8Iterator4nextCsg1amJnYx2jd_4main .text._RINvNtCsakCY22H5bhg_4core3ptr13drop_in_placeINtNtCsj4ivliY6BXz_4spin5mutex10MutexGuardINtCsigOxFuwXbws_22buddy_system_allocator4HeapKj20_EEECsg1amJnYx2jd_4main .text._RINvNtCsakCY22H5bhg_4core3ptr13drop_in_placeINtNtNtCsj4ivliY6BXz_4spin5mutex4spin14SpinMutexGuardINtCsigOxFuwXbws_22buddy_system_allocator4HeapKj20_EEECsg1amJnYx2jd_4main .text._RNvXsd_NtNtCsj4ivliY6BXz_4spin5mutex4spinINtB5_14SpinMutexGuardINtCsigOxFuwXbws_22buddy_system_allocator4HeapKj20_EENtNtNtCsakCY22H5bhg_4core3ops4drop4Drop4dropCsg1amJnYx2jd_4main .text._RNvYNvYeNtNtCsevzKAMQQtOE_5alloc6borrow7ToOwned8to_ownedINtNtNtCsakCY22H5bhg_4core3ops8function6FnOnceTReEE9call_onceCsg1amJnYx2jd_4main .text._RINvMs2_NtCsevzKAMQQtOE_5alloc7raw_vecNtB6_11RawVecInner3ptrNtNtCsg1amJnYx2jd_4main7process7ProcessEB10_ .text._RINvMs2_NtCsevzKAMQQtOE_5alloc7raw_vecNtB6_11RawVecInner8non_nullNtNtCsg1amJnYx2jd_4main7process7ProcessEB15_ .text._RNvMNtCsevzKAMQQtOE_5alloc7raw_vecINtB2_6RawVecNtNtCsg1amJnYx2jd_4main7process7ProcessE3newBN_ .text._RNvMs0_NtCsevzKAMQQtOE_5alloc7raw_vecINtB5_6RawVecNtNtCsg1amJnYx2jd_4main7process7ProcessE3ptrBQ_ .text._RNvMs0_NtCsevzKAMQQtOE_5alloc7raw_vecINtB5_6RawVecNtNtCsg1amJnYx2jd_4main7process7ProcessE6new_inBQ_ .text._RNvMs0_NtCsevzKAMQQtOE_5alloc7raw_vecINtB5_6RawVecNtNtCsg1amJnYx2jd_4main7process7ProcessE8capacityBQ_ .text._RNvMs3_NtCsevzKAMQQtOE_5alloc7raw_vecINtB5_6RawVecNtNtCsg1amJnYx2jd_4main7process7ProcessE8grow_oneBQ_ .text._RNvXs1g_NtCsakCY22H5bhg_4core3fmtRNtNtNtB8_5panic10panic_info9PanicInfoNtB6_5Debug3fmtCsg1amJnYx2jd_4main .text._RNvNvNtCsakCY22H5bhg_4core3ptr11write_bytes18precondition_checkCsg1amJnYx2jd_4main .text._RNvNvNtCsakCY22H5bhg_4core3ptr14write_volatile18precondition_checkCsg1amJnYx2jd_4main .text._RNvNvNtCsakCY22H5bhg_4core3ptr19copy_nonoverlapping18precondition_checkCsg1amJnYx2jd_4main .text._RNvNvNtCsakCY22H5bhg_4core3ptr4read18precondition_checkCsg1amJnYx2jd_4main .text._RNvNvNtCsakCY22H5bhg_4core3ptr5write18precondition_checkCsg1amJnYx2jd_4main .text._RNvMNtCsakCY22H5bhg_4core6resultINtB2_6ResultINtNtNtB4_3ptr8non_null7NonNullhEuE2okCsg1amJnYx2jd_4main .text._RNvMNtCsakCY22H5bhg_4core6resultINtB2_6ResultbbE5is_okCsg1amJnYx2jd_4main .text._RNvXsp_NtCsakCY22H5bhg_4core6resultINtB5_6ResultNtNtCsg1amJnYx2jd_4main10virtmemory3UvmuENtNtNtB7_3ops9try_trait3Try6branchBO_ .text._RNvXsp_NtCsakCY22H5bhg_4core6resultINtB5_6ResultNtNtCsg1amJnYx2jd_4main7process7ProcessuENtNtNtB7_3ops9try_trait3Try6branchBO_ .text._RNvXsp_NtCsakCY22H5bhg_4core6resultINtB5_6ResultOmuENtNtNtB7_3ops9try_trait3Try6branchCsg1amJnYx2jd_4main .text._RNvXsp_NtCsakCY22H5bhg_4core6resultINtB5_6ResultuuENtNtNtB7_3ops9try_trait3Try6branchCsg1amJnYx2jd_4main .text._RNvXsq_NtCsakCY22H5bhg_4core6resultINtB5_6ResultNtNtCsg1amJnYx2jd_4main10virtmemory3KvmuEINtNtNtB7_3ops9try_trait12FromResidualIBy_NtNtB7_7convert10InfallibleuEE13from_residualBO_ .text._RNvXsq_NtCsakCY22H5bhg_4core6resultINtB5_6ResultNtNtCsg1amJnYx2jd_4main7process7ProcessuEINtNtNtB7_3ops9try_trait12FromResidualIBy_NtNtB7_7convert10InfallibleuEE13from_residualBO_ .text._RNvXsq_NtCsakCY22H5bhg_4core6resultINtB5_6ResultuuEINtNtNtB7_3ops9try_trait12FromResidualIBy_NtNtB7_7convert10InfallibleuEE13from_residualCsg1amJnYx2jd_4main .text._RNvNtNtCsakCY22H5bhg_4core3str8converts19from_utf8_uncheckedCsg1amJnYx2jd_4main .text._RNvCsbSr5EDxESP4_7___rustc12___rust_alloc .text._RNvCsbSr5EDxESP4_7___rustc14___rust_dealloc .text._RNvCsbSr5EDxESP4_7___rustc14___rust_realloc .text._RNvCsbSr5EDxESP4_7___rustc17rust_begin_unwind .text._RNvCsbSr5EDxESP4_7___rustc19___rust_alloc_zeroed .text._RNvCsg1amJnYx2jd_4main10uart_print .text._RNvCsg1amJnYx2jd_4main5proc0 .text._RNvCsg1amJnYx2jd_4main5proc1 .text.main .text._RINvMs1_NtNtCsakCY22H5bhg_4core3ptr6uniqueINtB6_6UniquehE4castNtNtCsg1amJnYx2jd_4main7process7ProcessEB12_ .text._RNvMs1_NtNtCsakCY22H5bhg_4core3ptr6uniqueINtB5_6UniqueNtNtCsg1amJnYx2jd_4main7process7ProcessE15as_non_null_ptrBU_ .text._RNvMs0_NtCsg1amJnYx2jd_4main10virtmemoryNtB5_3PTE7from_paB7_ .text._RNvMs3_NtCsg1amJnYx2jd_4main10virtmemoryNtB5_2VA3vpn .text._RNvMs7_NtCsg1amJnYx2jd_4main10virtmemoryNtB5_3Kvm12alloc_kstack .text._RNvMs7_NtCsg1amJnYx2jd_4main10virtmemoryNtB5_3Kvm4init .text._RNvMs7_NtCsg1amJnYx2jd_4main10virtmemoryNtB5_3Kvm9start_kvm .text._RNvMs8_NtCsg1amJnYx2jd_4main10virtmemoryNtB5_3Uvm3new .text._RNvMs8_NtCsg1amJnYx2jd_4main10virtmemoryNtB5_3Uvm9init_proc .text._RNvNtCsg1amJnYx2jd_4main10virtmemory3map .text._RNvNtCsg1amJnYx2jd_4main10virtmemory4walk .text._RNvXNtCsg1amJnYx2jd_4main10virtmemoryNtB2_3PTEINtNtCsakCY22H5bhg_4core7convert4FrommE4from .text._RNvXs2_NtCsg1amJnYx2jd_4main10virtmemoryNtB5_4SATPINtNtCsakCY22H5bhg_4core7convert4IntomE4into .text._RNvXs4_NtCsg1amJnYx2jd_4main10virtmemoryNtB5_2VAINtNtCsakCY22H5bhg_4core7convert4FrommE4from .text._RNvXs6_NtCsg1amJnYx2jd_4main10virtmemoryNtB5_3KvmNtNtCsakCY22H5bhg_4core7default7Default7default .text._RNvXs_NtCsg1amJnYx2jd_4main10virtmemoryNtB4_3PTEINtNtCsakCY22H5bhg_4core7convert4IntomE4into .text._RINvNtNtCsakCY22H5bhg_4core3ptr8metadata18from_raw_parts_mutNtNtCsg1amJnYx2jd_4main7process7ProcessuEB10_ .text._RINvNtNtCsakCY22H5bhg_4core3ptr8metadata18from_raw_parts_muthuECsg1amJnYx2jd_4main .text._RNvXs3_NtNtCsakCY22H5bhg_4core5panic10panic_infoNtB5_9PanicInfoNtNtB9_3fmt5Debug3fmtCsg1amJnYx2jd_4main .text._RINvMNtNtCsakCY22H5bhg_4core3fmt2rtNtB3_8Argument10new_binaryjECsg1amJnYx2jd_4main .text._RINvMNtNtCsakCY22H5bhg_4core3fmt2rtNtB3_8Argument11new_displaylECsg1amJnYx2jd_4main .text._RINvMNtNtCsakCY22H5bhg_4core3fmt2rtNtB3_8Argument9new_debugRNtNtNtB7_5panic10panic_info9PanicInfoECsg1amJnYx2jd_4main .text._RINvNtNtCsakCY22H5bhg_4core4sync6atomic10atomic_andhhECsg1amJnYx2jd_4main .text._RINvNtNtCsakCY22H5bhg_4core4sync6atomic12atomic_storehECsg1amJnYx2jd_4main .text._RINvNtNtCsakCY22H5bhg_4core4sync6atomic9atomic_orhhECsg1amJnYx2jd_4main .text._RINvNtCsakCY22H5bhg_4core3ptr14write_volatilehECsg1amJnYx2jd_4main .text._RINvNtCsakCY22H5bhg_4core3ptr4readmECsg1amJnYx2jd_4main .text._RINvNtCsakCY22H5bhg_4core3ptr5writeNtNtCsg1amJnYx2jd_4main7process7ProcessEBB_ .text._RINvNtCsakCY22H5bhg_4core3ptr5writemECsg1amJnYx2jd_4main .text._RNvMs0_NtCsakCY22H5bhg_4core3numl12unsigned_absCsg1amJnYx2jd_4main .text._RNvMs0_NtCsakCY22H5bhg_4core3numl12wrapping_absCsg1amJnYx2jd_4main .text._RNvMs0_NtCsakCY22H5bhg_4core3numl20checked_add_unsignedCsg1amJnYx2jd_4main .text._RNvMs0_NtCsakCY22H5bhg_4core3numl24overflowing_add_unsignedCsg1amJnYx2jd_4main .text._RNvMs9_NtCsakCY22H5bhg_4core3numj11checked_mulCsg1amJnYx2jd_4main .text._RNvMs9_NtCsakCY22H5bhg_4core3numj17next_power_of_twoCsg1amJnYx2jd_4main .text._RNvMs9_NtCsakCY22H5bhg_4core3numj31one_less_than_next_power_of_twoCsg1amJnYx2jd_4main .text._RNvMs9_NtCsakCY22H5bhg_4core3numj8abs_diffCsg1amJnYx2jd_4main .text._RNvNvMs6_NtCsakCY22H5bhg_4core3numm13unchecked_add18precondition_checkCsg1amJnYx2jd_4main .text._RNvCsbSr5EDxESP4_7___rustc26___rust_alloc_error_handler .text._RNvCsbSr5EDxESP4_7___rustc35___rust_no_alloc_shim_is_unstable_v2 .text._RNvCsigOxFuwXbws_22buddy_system_allocator17prev_power_of_two .text._RNvMNtNtCsakCY22H5bhg_4core3ptr7mut_ptrOj7is_nullCsigOxFuwXbws_22buddy_system_allocator .text._RNvMNtNtCsakCY22H5bhg_4core3ptr9const_ptrPj7is_nullCsigOxFuwXbws_22buddy_system_allocator .text._RNvMs3_NtCsigOxFuwXbws_22buddy_system_allocator11linked_listNtB5_8ListNode3pop .text._RNvMs3_NtCsigOxFuwXbws_22buddy_system_allocator11linked_listNtB5_8ListNode5value .text._RNvMs_NtCsigOxFuwXbws_22buddy_system_allocator11linked_listNtB4_10LinkedList3pop .text._RNvMs_NtCsigOxFuwXbws_22buddy_system_allocator11linked_listNtB4_10LinkedList4push .text._RNvMs_NtCsigOxFuwXbws_22buddy_system_allocator11linked_listNtB4_10LinkedList8is_empty .text._RNvMs_NtCsigOxFuwXbws_22buddy_system_allocator11linked_listNtB4_10LinkedList8iter_mut .text._RNvNvMNtNtCsakCY22H5bhg_4core3ptr9const_ptrPp7is_null7runtimeCsigOxFuwXbws_22buddy_system_allocator .text._RNvXs4_NtCsigOxFuwXbws_22buddy_system_allocator11linked_listNtB5_7IterMutNtNtNtNtCsakCY22H5bhg_4core4iter6traits8iterator8Iterator4next .text._RINvMs1_NtNtCsakCY22H5bhg_4core3ptr8non_nullINtB6_7NonNullhE4casthECsevzKAMQQtOE_5alloc .text._RINvMs2_NtCsakCY22H5bhg_4core3fmtNtB6_9Arguments3newKj26_Kj1_ECsevzKAMQQtOE_5alloc .text._RINvMs2_NtCsevzKAMQQtOE_5alloc7raw_vecNtB6_11RawVecInner3ptrhEB8_ .text._RINvMs2_NtCsevzKAMQQtOE_5alloc7raw_vecNtB6_11RawVecInner8non_nullhEB8_ .text._RINvNvMs2_NtCsevzKAMQQtOE_5alloc7raw_vecINtB8_11RawVecInnerpE7reserve21do_reserve_and_handleNtNtBa_5alloc6GlobalEBa_ .text._RNvMNtCsevzKAMQQtOE_5alloc6stringNtB2_6String13with_capacityB4_ .text._RNvMNtCsevzKAMQQtOE_5alloc6stringNtB2_6String3lenB4_ .text._RNvMNtCsevzKAMQQtOE_5alloc6stringNtB2_6String4pushB4_ .text._RNvMNtCsevzKAMQQtOE_5alloc6stringNtB2_6String7reserveB4_ .text._RNvMNtCsevzKAMQQtOE_5alloc6stringNtB2_6String8push_strB4_ .text._RNvMs0_NtCsevzKAMQQtOE_5alloc7raw_vecINtB5_6RawVechE3ptrB7_ .text._RNvMs0_NtCsevzKAMQQtOE_5alloc7raw_vecINtB5_6RawVechE7reserveB7_ .text._RNvMs0_NtCsevzKAMQQtOE_5alloc7raw_vecINtB5_6RawVechE8capacityB7_ .text._RNvMs0_NtNtCsakCY22H5bhg_4core3ptr8non_nullINtB5_7NonNullhE18without_provenanceCsevzKAMQQtOE_5alloc .text._RNvMs1_NtNtCsakCY22H5bhg_4core3ptr8non_nullINtB5_7NonNullShE13new_uncheckedCsevzKAMQQtOE_5alloc .text._RNvMs1_NtNtCsakCY22H5bhg_4core3ptr8non_nullINtB5_7NonNullhE13new_uncheckedCsevzKAMQQtOE_5alloc .text._RNvMs1_NtNtCsakCY22H5bhg_4core3ptr8non_nullINtB5_7NonNullhE3newCsevzKAMQQtOE_5alloc .text._RNvMs2_NtCsevzKAMQQtOE_5alloc7raw_vecNtB5_11RawVecInner10deallocateB7_ .text._RNvMs2_NtCsevzKAMQQtOE_5alloc7raw_vecNtB5_11RawVecInner13needs_to_growB7_ .text._RNvMs2_NtCsevzKAMQQtOE_5alloc7raw_vecNtB5_11RawVecInner14current_memoryB7_ .text._RNvMs2_NtCsevzKAMQQtOE_5alloc7raw_vecNtB5_11RawVecInner15set_ptr_and_capB7_ .text._RNvMs2_NtCsevzKAMQQtOE_5alloc7raw_vecNtB5_11RawVecInner6new_inB7_ .text._RNvMs2_NtCsevzKAMQQtOE_5alloc7raw_vecNtB5_11RawVecInner7reserveB7_ .text._RNvMs2_NtCsevzKAMQQtOE_5alloc7raw_vecNtB5_11RawVecInner8capacityB7_ .text._RNvMs3_NtCsakCY22H5bhg_4core3fmtNtB5_9Arguments18estimated_capacityCsevzKAMQQtOE_5alloc .text._RNvMs3_NtCsevzKAMQQtOE_5alloc7raw_vecINtB5_6RawVechE16with_capacity_inB7_ .text._RNvMs4_NtCsakCY22H5bhg_4core3fmtNtB5_9Arguments23as_statically_known_strCsevzKAMQQtOE_5alloc .text._RNvMs4_NtCsakCY22H5bhg_4core3fmtNtB5_9Arguments6as_strCsevzKAMQQtOE_5alloc .text._RNvMs4_NtCsakCY22H5bhg_4core3fmtNtB5_9Arguments8from_strCsevzKAMQQtOE_5alloc .text._RNvMs4_NtCsevzKAMQQtOE_5alloc7raw_vecNtB5_11RawVecInner11finish_growB7_ .text._RNvMs4_NtCsevzKAMQQtOE_5alloc7raw_vecNtB5_11RawVecInner14grow_amortizedB7_ .text._RNvMs4_NtCsevzKAMQQtOE_5alloc7raw_vecNtB5_11RawVecInner15try_allocate_inB7_ .text._RNvMs4_NtCsevzKAMQQtOE_5alloc7raw_vecNtB5_11RawVecInner16with_capacity_inB7_ .text._RNvMs4_NtCsevzKAMQQtOE_5alloc7raw_vecNtB5_11RawVecInner8grow_oneB7_ .text._RNvMs4_NtNtCsakCY22H5bhg_4core3ptr8non_nullINtB5_7NonNullShE10as_mut_ptrCsevzKAMQQtOE_5alloc .text._RNvMs4_NtNtCsakCY22H5bhg_4core3ptr8non_nullINtB5_7NonNullShE15as_non_null_ptrCsevzKAMQQtOE_5alloc .text._RNvMs4_NtNtCsakCY22H5bhg_4core3ptr8non_nullINtB5_7NonNullShE20slice_from_raw_partsCsevzKAMQQtOE_5alloc .text._RNvNtCsevzKAMQQtOE_5alloc7raw_vec12handle_error .text._RNvNtCsevzKAMQQtOE_5alloc7raw_vec12layout_arrayB3_ .text._RNvNtCsevzKAMQQtOE_5alloc7raw_vec16min_non_zero_cap .text._RNvNtCsevzKAMQQtOE_5alloc7raw_vec17capacity_overflow .text._RNvNvMs1_NtNtCsakCY22H5bhg_4core3ptr8non_nullINtB7_7NonNullpE13new_unchecked18precondition_checkCsevzKAMQQtOE_5alloc .text._RNvNvNtCsakCY22H5bhg_4core4hint16assert_unchecked18precondition_checkCsevzKAMQQtOE_5alloc .text._RNvXs1_NtCsevzKAMQQtOE_5alloc7raw_vecINtB5_6RawVechENtNtNtCsakCY22H5bhg_4core3ops4drop4Drop4dropB7_ .text._RNvXsK_NtCsakCY22H5bhg_4core3fmtNtB5_5ErrorNtB5_5Debug3fmtCsevzKAMQQtOE_5alloc .text._RNvXsZ_NtCsevzKAMQQtOE_5alloc6stringNtB5_6StringNtNtCsakCY22H5bhg_4core3fmt5Write10write_charB7_ .text._RNvXsZ_NtCsevzKAMQQtOE_5alloc6stringNtB5_6StringNtNtCsakCY22H5bhg_4core3fmt5Write9write_strB7_ .text._RNvXs_NvNtNtCsakCY22H5bhg_4core3fmt5Write9write_fmtQNtNtCsevzKAMQQtOE_5alloc6string6StringNtB4_12SpecWriteFmt14spec_write_fmtBS_ .text._RNvXsh_NtNtCsakCY22H5bhg_4core3ptr8non_nullINtB5_7NonNullhEINtNtB9_7convert4FromINtNtB7_6unique6UniquehEE4fromCsevzKAMQQtOE_5alloc .text._RNvYNtNtCsevzKAMQQtOE_5alloc6string6StringNtNtCsakCY22H5bhg_4core3fmt5Write9write_fmtB6_ .text._RNvMNtNtCsakCY22H5bhg_4core5alloc6layoutNtB2_6Layout12dangling_ptrCsevzKAMQQtOE_5alloc .text._RNvMNtNtCsakCY22H5bhg_4core5alloc6layoutNtB2_6Layout12pad_to_alignCsevzKAMQQtOE_5alloc .text._RNvMNtNtCsakCY22H5bhg_4core5alloc6layoutNtB2_6Layout13repeat_packedCsevzKAMQQtOE_5alloc .text._RNvMNtNtCsakCY22H5bhg_4core5alloc6layoutNtB2_6Layout19from_size_alignmentCsevzKAMQQtOE_5alloc .text._RNvMNtNtCsakCY22H5bhg_4core5alloc6layoutNtB2_6Layout19is_size_align_validCsevzKAMQQtOE_5alloc .text._RNvMNtNtCsakCY22H5bhg_4core5alloc6layoutNtB2_6Layout25from_size_align_uncheckedCsevzKAMQQtOE_5alloc .text._RNvMNtNtCsakCY22H5bhg_4core5alloc6layoutNtB2_6Layout29from_size_alignment_uncheckedCsevzKAMQQtOE_5alloc .text._RNvMNtNtCsakCY22H5bhg_4core5alloc6layoutNtB2_6Layout35size_rounded_up_to_custom_alignmentCsevzKAMQQtOE_5alloc .text._RNvMNtNtCsakCY22H5bhg_4core5alloc6layoutNtB2_6Layout4sizeCsevzKAMQQtOE_5alloc .text._RNvMNtNtCsakCY22H5bhg_4core5alloc6layoutNtB2_6Layout5alignCsevzKAMQQtOE_5alloc .text._RNvMNtNtCsakCY22H5bhg_4core5alloc6layoutNtB2_6Layout9alignmentCsevzKAMQQtOE_5alloc .text._RNvMs0_NtCsakCY22H5bhg_4core3numl12unsigned_absCsevzKAMQQtOE_5alloc .text._RNvMs0_NtCsakCY22H5bhg_4core3numl12wrapping_absCsevzKAMQQtOE_5alloc .text._RNvMs5_NtCsakCY22H5bhg_4core3numt13from_le_bytesCsevzKAMQQtOE_5alloc .text._RNvMs5_NtCsakCY22H5bhg_4core3numt13from_ne_bytesCsevzKAMQQtOE_5alloc .text._RNvMs9_NtCsakCY22H5bhg_4core3numj11checked_addCsevzKAMQQtOE_5alloc .text._RNvMs9_NtCsakCY22H5bhg_4core3numj11checked_mulCsevzKAMQQtOE_5alloc .text._RNvMs9_NtCsakCY22H5bhg_4core3numj8abs_diffCsevzKAMQQtOE_5alloc .text._RNvNtCsakCY22H5bhg_4core9ub_checks16maybe_is_alignedCsevzKAMQQtOE_5alloc .text._RNvNtCsakCY22H5bhg_4core9ub_checks17check_language_ubCsevzKAMQQtOE_5alloc .text._RNvNtCsakCY22H5bhg_4core9ub_checks23maybe_is_nonoverlappingCsevzKAMQQtOE_5alloc .text._RNvNtCsakCY22H5bhg_4core9ub_checks29maybe_is_aligned_and_not_nullCsevzKAMQQtOE_5alloc .text._RNvNvMNtNtCsakCY22H5bhg_4core5alloc6layoutNtB4_6Layout25from_size_align_unchecked18precondition_checkCsevzKAMQQtOE_5alloc .text._RNvNvMNtNtCsakCY22H5bhg_4core5alloc6layoutNtB4_6Layout29from_size_alignment_unchecked18precondition_checkCsevzKAMQQtOE_5alloc .text._RNvNvMs9_NtCsakCY22H5bhg_4core3numj13unchecked_mul18precondition_checkCsevzKAMQQtOE_5alloc .text._RNvNvNtCsakCY22H5bhg_4core9ub_checks16maybe_is_aligned7runtimeCsevzKAMQQtOE_5alloc .text._RNvNvNtCsakCY22H5bhg_4core9ub_checks17check_language_ub7runtimeCsevzKAMQQtOE_5alloc .text._RNvNvNtCsakCY22H5bhg_4core9ub_checks23maybe_is_nonoverlapping7runtimeCsevzKAMQQtOE_5alloc .text._RINvMNtCsevzKAMQQtOE_5alloc5sliceSh9to_vec_inNtNtB5_5alloc6GlobalEB5_ .text._RINvMs1_NtNtCsakCY22H5bhg_4core3ptr6uniqueINtB6_6UniquehE4casthECsevzKAMQQtOE_5alloc .text._RINvNtCsakCY22H5bhg_4core3ptr13drop_in_placeINtNtCsevzKAMQQtOE_5alloc3vec3VechEEBL_ .text._RINvNtCsakCY22H5bhg_4core3ptr13drop_in_placeINtNtCsevzKAMQQtOE_5alloc7raw_vec6RawVechEEBL_ .text._RINvNtCsakCY22H5bhg_4core3ptr13drop_in_placeNtNtCsevzKAMQQtOE_5alloc6string6StringEBK_ .text._RINvXs_NvMNtCsevzKAMQQtOE_5alloc5sliceSp9to_vec_inhNtB5_10ConvertVec6to_vecNtNtBa_5alloc6GlobalEBa_ .text._RNvMNtCsakCY22H5bhg_4core6resultINtB2_6ResultuNtNtB4_3fmt5ErrorE6expectCsevzKAMQQtOE_5alloc .text._RNvMNtCsevzKAMQQtOE_5alloc5sliceSh6to_vecB4_ .text._RNvMs1_NtNtCsakCY22H5bhg_4core3ptr6uniqueINtB5_6UniquehE13from_non_nullCsevzKAMQQtOE_5alloc .text._RNvMs1_NtNtCsakCY22H5bhg_4core3ptr6uniqueINtB5_6UniquehE15as_non_null_ptrCsevzKAMQQtOE_5alloc .text._RNvMs1z_NtNtCsakCY22H5bhg_4core3num11niche_typesNtB6_14UsizeNoHighBit13new_uncheckedCsevzKAMQQtOE_5alloc .text._RNvMs1z_NtNtCsakCY22H5bhg_4core3num11niche_typesNtB6_14UsizeNoHighBit8as_innerCsevzKAMQQtOE_5alloc .text._RNvXs1_NtCsakCY22H5bhg_4core7convertINtNtNtB7_3ptr6unique6UniquehEINtB5_4IntoINtNtBD_8non_null7NonNullhEE4intoCsevzKAMQQtOE_5alloc .text._RNvXs7_NtCsevzKAMQQtOE_5alloc5sliceShNtNtB7_6borrow7ToOwned8to_ownedB7_ .text._RNvXsa_NtNtCsakCY22H5bhg_4core3ptr6uniqueINtB5_6UniquehEINtNtB9_7convert4FromINtNtB7_8non_null7NonNullhEE4fromCsevzKAMQQtOE_5alloc .text._RNvXsp_NtCsakCY22H5bhg_4core6resultINtB5_6ResultINtNtNtB7_3ptr8non_null7NonNullShENtNtB7_5alloc10AllocErrorENtNtNtB7_3ops9try_trait3Try6branchCsevzKAMQQtOE_5alloc .text._RNvXsp_NtCsakCY22H5bhg_4core6resultINtB5_6ResultINtNtNtB7_3ptr8non_null7NonNullShENtNtCsevzKAMQQtOE_5alloc11collections15TryReserveErrorENtNtNtB7_3ops9try_trait3Try6branchB1m_ .text._RNvXsp_NtCsakCY22H5bhg_4core6resultINtB5_6ResultINtNtNtB7_3ptr8non_null7NonNullhENtNtB7_5alloc10AllocErrorENtNtNtB7_3ops9try_trait3Try6branchCsevzKAMQQtOE_5alloc .text._RNvXsp_NtCsakCY22H5bhg_4core6resultINtB5_6ResultNtNtNtB7_5alloc6layout6LayoutNtNtCsevzKAMQQtOE_5alloc11collections15TryReserveErrorENtNtNtB7_3ops9try_trait3Try6branchB1h_ .text._RNvXsp_NtCsakCY22H5bhg_4core6resultINtB5_6ResultjNtNtCsevzKAMQQtOE_5alloc11collections19TryReserveErrorKindENtNtNtB7_3ops9try_trait3Try6branchBP_ .text._RNvXsq_NtCsakCY22H5bhg_4core6resultINtB5_6ResultINtNtNtB7_3ptr8non_null7NonNullShENtNtB7_5alloc10AllocErrorEINtNtNtB7_3ops9try_trait12FromResidualIBy_NtNtB7_7convert10InfallibleB1i_EE13from_residualCsevzKAMQQtOE_5alloc .text._RNvXsq_NtCsakCY22H5bhg_4core6resultINtB5_6ResultINtNtNtB7_3ptr8non_null7NonNullShENtNtCsevzKAMQQtOE_5alloc11collections15TryReserveErrorEINtNtNtB7_3ops9try_trait12FromResidualIBy_NtNtB7_7convert10InfallibleB1i_EE13from_residualB1m_ .text._RNvXsq_NtCsakCY22H5bhg_4core6resultINtB5_6ResultuNtNtCsevzKAMQQtOE_5alloc11collections15TryReserveErrorEINtNtNtB7_3ops9try_trait12FromResidualIBy_NtNtB7_7convert10InfallibleBL_EE13from_residualBP_ .text._RNvXsq_NtCsakCY22H5bhg_4core6resultINtB5_6ResultuNtNtCsevzKAMQQtOE_5alloc11collections15TryReserveErrorEINtNtNtB7_3ops9try_trait12FromResidualIBy_NtNtB7_7convert10InfallibleNtBN_19TryReserveErrorKindEE13from_residualBP_ .text._RINvMNtCsakCY22H5bhg_4core6optionINtB3_6OptionINtNtNtB5_3ptr8non_null7NonNullhEE5ok_orNtNtB5_5alloc10AllocErrorECsevzKAMQQtOE_5alloc .text._RINvMNtCsakCY22H5bhg_4core6optionINtB3_6OptionjE5ok_orNtNtCsevzKAMQQtOE_5alloc11collections19TryReserveErrorKindEBU_ .text._RNvCsbSr5EDxESP4_7___rustc25___rdl_alloc_error_handler .text._RNvMNtCsakCY22H5bhg_4core3stre3lenCsevzKAMQQtOE_5alloc .text._RNvMNtCsevzKAMQQtOE_5alloc11collectionsNtB2_15TryReserveError4kindB4_ .text._RNvMNtCsevzKAMQQtOE_5alloc3vecINtB2_3VechE13with_capacityB4_ .text._RNvMNtCsevzKAMQQtOE_5alloc5allocNtB2_6Global10alloc_implB4_ .text._RNvMNtCsevzKAMQQtOE_5alloc5allocNtB2_6Global15deallocate_implB4_ .text._RNvMNtCsevzKAMQQtOE_5alloc5allocNtB2_6Global17grow_impl_runtimeB4_ .text._RNvMNtCsevzKAMQQtOE_5alloc5allocNtB2_6Global18alloc_impl_runtimeB4_ .text._RNvMNtCsevzKAMQQtOE_5alloc5allocNtB2_6Global23deallocate_impl_runtimeB4_ .text._RNvMNtCsevzKAMQQtOE_5alloc5allocNtB2_6Global9grow_implB4_ .text._RNvMNtNtCsakCY22H5bhg_4core3mem9alignmentNtB2_9Alignment13new_uncheckedCsevzKAMQQtOE_5alloc .text._RNvMNtNtCsakCY22H5bhg_4core3mem9alignmentNtB2_9Alignment16as_nonzero_usizeCsevzKAMQQtOE_5alloc .text._RNvMNtNtCsakCY22H5bhg_4core3mem9alignmentNtB2_9Alignment3newCsevzKAMQQtOE_5alloc .text._RNvMNtNtCsakCY22H5bhg_4core3mem9alignmentNtB2_9Alignment8as_usizeCsevzKAMQQtOE_5alloc .text._RNvMNtNtCsakCY22H5bhg_4core3ptr7mut_ptrOh7is_nullCsevzKAMQQtOE_5alloc .text._RNvMNtNtCsakCY22H5bhg_4core3ptr7mut_ptrOu7is_nullCsevzKAMQQtOE_5alloc .text._RNvMNtNtCsakCY22H5bhg_4core3ptr9const_ptrPh22copy_to_nonoverlappingCsevzKAMQQtOE_5alloc .text._RNvMNtNtCsakCY22H5bhg_4core3ptr9const_ptrPh7is_nullCsevzKAMQQtOE_5alloc .text._RNvMNtNtCsakCY22H5bhg_4core4char7methodsc8len_utf8CsevzKAMQQtOE_5alloc .text._RNvMs1_NtCsevzKAMQQtOE_5alloc3vecINtB5_3VechE17extend_from_sliceB7_ .text._RNvMsF_NtCsevzKAMQQtOE_5alloc3vecINtB5_3VechE16with_capacity_inB7_ .text._RNvMs_NtCsevzKAMQQtOE_5alloc3vecINtB4_3VechE10as_mut_ptrB6_ .text._RNvMs_NtCsevzKAMQQtOE_5alloc3vecINtB4_3VechE15append_elementsB6_ .text._RNvMs_NtCsevzKAMQQtOE_5alloc3vecINtB4_3VechE3lenB6_ .text._RNvMs_NtCsevzKAMQQtOE_5alloc3vecINtB4_3VechE6as_ptrB6_ .text._RNvMs_NtCsevzKAMQQtOE_5alloc3vecINtB4_3VechE7reserveB6_ .text._RNvMs_NtCsevzKAMQQtOE_5alloc3vecINtB4_3VechE7set_lenB6_ .text._RNvMs_NtCsevzKAMQQtOE_5alloc3vecINtB4_3VechE8as_sliceB6_ .text._RNvMs_NtCsevzKAMQQtOE_5alloc3vecINtB4_3VechE8capacityB6_ .text._RNvNtCsevzKAMQQtOE_5alloc5alloc12alloc_zeroedB3_ .text._RNvNtCsevzKAMQQtOE_5alloc5alloc15dealloc_nonnullB3_ .text._RNvNtCsevzKAMQQtOE_5alloc5alloc15realloc_nonnullB3_ .text._RNvNtCsevzKAMQQtOE_5alloc5alloc18handle_alloc_error .text._RNvNtCsevzKAMQQtOE_5alloc5alloc5allocB3_ .text._RNvNtNtCsakCY22H5bhg_4core3str8converts19from_utf8_uncheckedCsevzKAMQQtOE_5alloc .text._RNvNtNtCsakCY22H5bhg_4core4char7methods25encode_utf8_raw_uncheckedCsevzKAMQQtOE_5alloc .text._RNvNtNtCsakCY22H5bhg_4core4char7methods8len_utf8CsevzKAMQQtOE_5alloc .text._RNvNvMNtNtCsakCY22H5bhg_4core3mem9alignmentNtB4_9Alignment13new_unchecked18precondition_checkCsevzKAMQQtOE_5alloc .text._RNvNvMNtNtCsakCY22H5bhg_4core3ptr7mut_ptrOp3add18precondition_checkCsevzKAMQQtOE_5alloc .text._RNvNvMNtNtCsakCY22H5bhg_4core3ptr7mut_ptrOp3add18runtime_add_nowrapCsevzKAMQQtOE_5alloc .text._RNvNvMNtNtCsakCY22H5bhg_4core3ptr9const_ptrPp7is_null7runtimeCsevzKAMQQtOE_5alloc .text._RNvNvMs_NtCsevzKAMQQtOE_5alloc3vecINtB6_3VecppE7set_len18precondition_checkB8_ .text._RNvNvNtCsakCY22H5bhg_4core3ptr11write_bytes18precondition_checkCsevzKAMQQtOE_5alloc .text._RNvNvNtCsakCY22H5bhg_4core3ptr19copy_nonoverlapping18precondition_checkCsevzKAMQQtOE_5alloc .text._RNvNvNtCsevzKAMQQtOE_5alloc3fmt6format12format_inner .text._RNvNvNtCsevzKAMQQtOE_5alloc5alloc18handle_alloc_error8rt_errorB5_ .text._RNvNvNvMNtNtCsakCY22H5bhg_4core3ptr7mut_ptrOp3add18runtime_add_nowrap7runtimeCsevzKAMQQtOE_5alloc .text._RNvXs0_NtCsevzKAMQQtOE_5alloc11collectionsNtB5_15TryReserveErrorINtNtCsakCY22H5bhg_4core7convert4FromNtB5_19TryReserveErrorKindE4fromB7_ .text._RNvXs1_NtCsakCY22H5bhg_4core7convertNtNtCsevzKAMQQtOE_5alloc11collections19TryReserveErrorKindINtB5_4IntoNtBA_15TryReserveErrorE4intoBC_ .text._RNvXs2_NtNtCsevzKAMQQtOE_5alloc3vec11spec_extendINtB7_3VechEINtB5_10SpecExtendRhINtNtNtCsakCY22H5bhg_4core5slice4iter4IterhEE11spec_extendB9_ .text._RNvXs_NtCsevzKAMQQtOE_5alloc11collectionsNtB4_19TryReserveErrorKindNtNtCsakCY22H5bhg_4core5clone5Clone5clone .text._RNvXs_NtCsevzKAMQQtOE_5alloc5allocNtB4_6GlobalNtNtCsakCY22H5bhg_4core5alloc9Allocator10deallocateB6_ .text._RNvXs_NtCsevzKAMQQtOE_5alloc5allocNtB4_6GlobalNtNtCsakCY22H5bhg_4core5alloc9Allocator15allocate_zeroedB6_ .text._RNvXs_NtCsevzKAMQQtOE_5alloc5allocNtB4_6GlobalNtNtCsakCY22H5bhg_4core5alloc9Allocator4growB6_ .text._RNvXs_NtCsevzKAMQQtOE_5alloc5allocNtB4_6GlobalNtNtCsakCY22H5bhg_4core5alloc9Allocator8allocateB6_ .text._RNvXso_NtCsevzKAMQQtOE_5alloc3vecINtB5_3VechENtNtNtCsakCY22H5bhg_4core3ops4drop4Drop4dropB7_ .text._RNvNtNtCsakCY22H5bhg_4core3fmt3num19slice_buffer_to_str .text._RNvXs2_NtNtCsakCY22H5bhg_4core3fmt3numjNtB7_6Binary3fmt .text._RNvXs6_NtNtCsakCY22H5bhg_4core3fmt3numjNtB7_8LowerHex3fmt .text._RNvXs8_NtNtCsakCY22H5bhg_4core3fmt3numjNtB7_8UpperHex3fmt .text._RNvXsW_NtNtCsakCY22H5bhg_4core3fmt3nummNtB7_5Debug3fmtB9_ .text._RNvXsZ_NtNtCsakCY22H5bhg_4core3fmt3numjNtB7_5Debug3fmtB9_ .text._RNvXsu_NtNtCsakCY22H5bhg_4core3fmt3nummNtB7_8LowerHex3fmt .text._RNvXsw_NtNtCsakCY22H5bhg_4core3fmt3nummNtB7_8UpperHex3fmt .text._RNvMs0_NtCsakCY22H5bhg_4core3numl12unsigned_absB7_ .text._RNvMs0_NtCsakCY22H5bhg_4core3numl12wrapping_absB7_ .text._RNvMs4_NtCsakCY22H5bhg_4core3numh21is_utf8_char_boundaryB7_ .text._RNvMs5_NtCsakCY22H5bhg_4core3numt13from_le_bytesB7_ .text._RNvMs5_NtCsakCY22H5bhg_4core3numt13from_ne_bytesB7_ .text._RNvMs6_NtCsakCY22H5bhg_4core3numm13from_le_bytesB7_ .text._RNvMs6_NtCsakCY22H5bhg_4core3numm13from_ne_bytesB7_ .text._RNvMs9_NtCsakCY22H5bhg_4core3numj11checked_mulB7_ .text._RNvMs9_NtCsakCY22H5bhg_4core3numj11checked_subB7_ .text._RNvMs9_NtCsakCY22H5bhg_4core3numj13from_ne_bytesB7_ .text._RNvMs9_NtCsakCY22H5bhg_4core3numj14is_multiple_ofB7_ .text._RNvMsa_NtCsakCY22H5bhg_4core3numj9repeat_u8B7_ .text._RNvNvMs5_NtCsakCY22H5bhg_4core3numt13unchecked_add18precondition_checkB9_ .text._RNvNvMs9_NtCsakCY22H5bhg_4core3numj13unchecked_add18precondition_checkB9_ .text._RNvNvMs9_NtCsakCY22H5bhg_4core3numj13unchecked_sub18precondition_checkB9_ .text._RNvMs8_NtCsakCY22H5bhg_4core4charNtB5_11EscapeDebug7unicodeB7_ .text._RNvMs8_NtCsakCY22H5bhg_4core4charNtB5_11EscapeDebug9backslashB7_ .text._RNvMs8_NtCsakCY22H5bhg_4core4charNtB5_11EscapeDebug9printableB7_ .text._RNvNtNtCsakCY22H5bhg_4core9panicking11panic_const23panic_const_div_by_zero .text._RNvNtNtCsakCY22H5bhg_4core9panicking11panic_const23panic_const_rem_by_zero .text._RNvNtNtCsakCY22H5bhg_4core9panicking11panic_const24panic_const_add_overflow .text._RNvNtNtCsakCY22H5bhg_4core9panicking11panic_const24panic_const_mul_overflow .text._RNvNtNtCsakCY22H5bhg_4core9panicking11panic_const24panic_const_shl_overflow .text._RNvNtNtCsakCY22H5bhg_4core9panicking11panic_const24panic_const_shr_overflow .text._RNvNtNtCsakCY22H5bhg_4core9panicking11panic_const24panic_const_sub_overflow .text._RNvXsa_NtCsakCY22H5bhg_4core4charNtB5_11EscapeDebugNtNtNtNtB7_4iter6traits10exact_size17ExactSizeIterator3len .text._RNvXsc_NtCsakCY22H5bhg_4core4charNtB5_11EscapeDebugNtNtB7_3fmt7Display3fmtB7_ .text._RINvMNtCsakCY22H5bhg_4core5sliceSNtNtNtB5_7unicode12unicode_data20ShortOffsetRunHeader13get_uncheckedjEB5_ .text._RINvMNtCsakCY22H5bhg_4core5sliceSNtNtNtB5_7unicode12unicode_data20ShortOffsetRunHeader16binary_search_byNCINvB2_20binary_search_by_keymNCINvBx_11skip_searchKj21_Kj2ff_E0E0EB5_ .text._RINvMNtCsakCY22H5bhg_4core5sliceSNtNtNtB5_7unicode12unicode_data20ShortOffsetRunHeader20binary_search_by_keymNCINvBx_11skip_searchKj21_Kj2ff_E0EB5_ .text._RINvMNtCsakCY22H5bhg_4core5sliceSNtNtNtB5_7unicode12unicode_data20ShortOffsetRunHeader3getjEB5_ .text._RINvMNtCsakCY22H5bhg_4core5sliceSh13get_uncheckedjEB5_ .text._RINvMNtCsakCY22H5bhg_4core5sliceSh16align_to_offsetsjEB5_ .text._RINvMNtCsakCY22H5bhg_4core5sliceSh3getINtNtNtB5_3ops5range5RangejEEB5_ .text._RINvMNtCsakCY22H5bhg_4core5sliceSh8align_tojEB5_ .text._RINvMNtCsakCY22H5bhg_4core5sliceSj19as_chunks_uncheckedKj4_EB5_ .text._RINvMNtCsakCY22H5bhg_4core5sliceSj9as_chunksKj4_EB5_ .text._RINvMNtCsakCY22H5bhg_4core6resultINtB3_6ResultuNtNtB5_3fmt5ErrorE8and_thenuNCINvMs1_NtBL_8buildersNtB1k_11DebugStruct10field_withNCNvB1g_5field0E0EB5_ .text._RINvMNtCsakCY22H5bhg_4core6resultINtB3_6ResultuNtNtB5_3fmt5ErrorE8and_thenuNCINvMs2_NtBL_8buildersNtB1k_10DebugTuple10field_withNCNvB1g_5field0E0EB5_ .text._RINvMNtCsakCY22H5bhg_4core6resultINtB3_6ResultuNtNtB5_3fmt5ErrorE8and_thenuNCNvMs1_NtBL_8buildersNtB1j_11DebugStruct6finish0EB5_ .text._RINvMNtCsakCY22H5bhg_4core6resultINtB3_6ResultuNtNtB5_3fmt5ErrorE8and_thenuNCNvMs2_NtBL_8buildersNtB1j_10DebugTuple6finish0EB5_ .text._RINvNtCsakCY22H5bhg_4core3mem6forgetINtNvNtB4_4hint20select_unpredictable11DropOnPanicjEEB4_ .text._RNCINvMNtCsakCY22H5bhg_4core5sliceSNtNtNtB7_7unicode12unicode_data20ShortOffsetRunHeader20binary_search_by_keymNCINvBz_11skip_searchKj21_Kj2ff_E0E0B7_ .text._RNCINvNtNtCsakCY22H5bhg_4core7unicode12unicode_data11skip_searchKj21_Kj2ff_E0B8_ .text._RNCINvNtNtCsakCY22H5bhg_4core7unicode12unicode_data11skip_searchKj21_Kj2ff_Es_0B8_ .text._RNvMNtCsakCY22H5bhg_4core5sliceSAjj4_4iterB4_ .text._RNvMNtCsakCY22H5bhg_4core5sliceSThhE4iterB4_ .text._RNvMNtCsakCY22H5bhg_4core5sliceSh16split_at_checkedB4_ .text._RNvMNtCsakCY22H5bhg_4core5sliceSh18split_at_uncheckedB4_ .text._RNvMNtCsakCY22H5bhg_4core5sliceSh4iterB4_ .text._RNvMNtCsakCY22H5bhg_4core5sliceSh8split_atB4_ .text._RNvMNtCsakCY22H5bhg_4core5sliceSh9ends_withB4_ .text._RNvMNtCsakCY22H5bhg_4core5sliceSj16split_at_checkedB4_ .text._RNvMNtCsakCY22H5bhg_4core5sliceSj18split_at_uncheckedB4_ .text._RNvMNtCsakCY22H5bhg_4core5sliceSj4iterB4_ .text._RNvMNtCsakCY22H5bhg_4core5sliceSj6chunksB4_ .text._RNvMNtCsakCY22H5bhg_4core5sliceSj8is_emptyB4_ .text._RNvMNtCsakCY22H5bhg_4core5sliceSj8split_atB4_ .text._RNvMNtCsakCY22H5bhg_4core6resultINtB2_6ResultcNtNtNtB4_4char7convert16CharTryFromErrorE5is_okB4_ .text._RNvMNtCsakCY22H5bhg_4core6resultINtB2_6ResulthNtNtNtB4_3num5error15TryFromIntErrorE6expectB4_ .text._RNvMNtCsakCY22H5bhg_4core6resultINtB2_6ResultjNtNtNtB4_3num5error15TryFromIntErrorE6expectB4_ .text._RNvMNtCsakCY22H5bhg_4core6resultINtB2_6ResultmNtNtNtB4_3num5error15TryFromIntErrorE6expectB4_ .text._RNvMNtNtCsakCY22H5bhg_4core7unicode12unicode_dataNtB2_20ShortOffsetRunHeader10prefix_sumB6_ .text._RNvMNtNtCsakCY22H5bhg_4core7unicode12unicode_dataNtB2_20ShortOffsetRunHeader11start_indexB6_ .text._RNvMs1_NtNtCsakCY22H5bhg_4core3ptr9const_ptrPSNtNtNtB9_7unicode12unicode_data20ShortOffsetRunHeader3lenB9_ .text._RNvNtCsakCY22H5bhg_4core6result13unwrap_failed .text._RNvNtNtCsakCY22H5bhg_4core3str8converts14from_raw_partsB5_ .text._RNvNtNtCsakCY22H5bhg_4core3str8converts19from_utf8_uncheckedB5_ .text._RNvNtNtCsakCY22H5bhg_4core3str8converts23from_utf8_unchecked_mutB5_ .text._RNvNvMNtCsakCY22H5bhg_4core5sliceSp18split_at_unchecked18precondition_checkB6_ .text._RNvNvMNtCsakCY22H5bhg_4core5sliceSp19as_chunks_unchecked18precondition_checkB6_ .text._RNvXsp_NtCsakCY22H5bhg_4core6resultINtB5_6ResultNtNtB7_3fmt11PostPaddingNtBM_5ErrorENtNtNtB7_3ops9try_trait3Try6branchB7_ .text._RNvXsp_NtCsakCY22H5bhg_4core6resultINtB5_6ResultuNtNtB7_3fmt5ErrorENtNtNtB7_3ops9try_trait3Try6branchB7_ .text._RNvXsq_NtCsakCY22H5bhg_4core6resultINtB5_6ResultNtNtB7_3fmt11PostPaddingNtBM_5ErrorEINtNtNtB7_3ops9try_trait12FromResidualIBy_NtNtB7_7convert10InfallibleB18_EE13from_residualB7_ .text._RNvXsq_NtCsakCY22H5bhg_4core6resultINtB5_6ResultuNtNtB7_3fmt5ErrorEINtNtNtB7_3ops9try_trait12FromResidualIBy_NtNtB7_7convert10InfallibleBL_EE13from_residualB7_ .text._RINvMNtCsakCY22H5bhg_4core3stre13get_uncheckedINtNtNtB5_3ops5range5RangejEEB5_ .text._RINvMNtCsakCY22H5bhg_4core3stre13get_uncheckedINtNtNtB5_3ops5range7RangeTojEEB5_ .text._RINvMNtCsakCY22H5bhg_4core3stre13get_uncheckedINtNtNtB5_3ops5range9RangeFromjEEB5_ .text._RINvMNtCsakCY22H5bhg_4core3stre15split_inclusivecEB5_ .text._RINvMNtCsakCY22H5bhg_4core3stre9ends_withcEB5_ .text._RNvMNtCsakCY22H5bhg_4core3stre12char_indicesB4_ .text._RNvMNtCsakCY22H5bhg_4core3stre16is_char_boundaryB4_ .text._RNvMNtCsakCY22H5bhg_4core3stre18ceil_char_boundaryB4_ .text._RNvMNtCsakCY22H5bhg_4core3stre19floor_char_boundaryB4_ .text._RNvMNtCsakCY22H5bhg_4core3stre3lenB4_ .text._RNvMNtCsakCY22H5bhg_4core3stre5charsB4_ .text._RNvMNtCsakCY22H5bhg_4core3stre8is_emptyB4_ .text._RNvMNtNtCsakCY22H5bhg_4core4char7methodsc11encode_utf8B6_ .text._RNvMNtNtCsakCY22H5bhg_4core4char7methodsc16escape_debug_extB6_ .text._RNvMNtNtCsakCY22H5bhg_4core4char7methodsc18from_u32_uncheckedB6_ .text._RNvMNtNtCsakCY22H5bhg_4core4char7methodsc20is_grapheme_extendedB6_ .text._RNvMNtNtCsakCY22H5bhg_4core4char7methodsc8is_asciiB6_ .text._RNvMNtNtCsakCY22H5bhg_4core4char7methodsc8len_utf8B6_ .text._RNvMNtNtNtCsakCY22H5bhg_4core4iter8adapters3revINtB2_3RevINtNtNtB8_3ops5range5RangejEE3newB8_ .text._RNvMse_NtNtCsakCY22H5bhg_4core3num7nonzeroINtB5_7NonZerojE3getB9_ .text._RNvMse_NtNtCsakCY22H5bhg_4core3num7nonzeroINtB5_7NonZerojE3newB9_ .text._RNvNtCsakCY22H5bhg_4core3str16slice_error_fail .text._RNvNtCsakCY22H5bhg_4core3str19slice_error_fail_rt .text._RNvNtNtCsakCY22H5bhg_4core4char7convert17char_try_from_u32B5_ .text._RNvNtNtCsakCY22H5bhg_4core4char7convert18from_u32_uncheckedB5_ .text._RNvNtNtCsakCY22H5bhg_4core4char7methods15encode_utf8_rawB5_ .text._RNvNtNtCsakCY22H5bhg_4core4char7methods25encode_utf8_raw_uncheckedB5_ .text._RNvNtNtCsakCY22H5bhg_4core4char7methods8len_utf8B5_ .text._RNvNvNtNtCsakCY22H5bhg_4core4char7convert18from_u32_unchecked18precondition_checkB7_ .text._RNvNvNvNtNtCsakCY22H5bhg_4core4char7methods15encode_utf8_raw8do_panic7runtimeB9_ .text._RNvXNtNtNtCsakCY22H5bhg_4core4iter6traits7collectINtNtNtB6_8adapters3rev3RevINtNtNtB8_3ops5range5RangejEENtB2_12IntoIterator9into_iterB8_ .text._RNvXs_NtNtNtCsakCY22H5bhg_4core4iter8adapters3revINtB4_3RevINtNtNtBa_3ops5range5RangejEENtNtNtB8_6traits8iterator8Iterator4nextBa_ .text._RNvMNtNtCsakCY22H5bhg_4core5alloc6layoutNtB2_6Layout23is_size_alignment_valid .text._RNvMNtNtCsakCY22H5bhg_4core5panic10panic_infoNtB2_9PanicInfo3newB6_ .text._RNvMsa_NtNtNtCsakCY22H5bhg_4core3fmt3num3impm10__fmt_inner .text._RNvMsa_NtNtNtCsakCY22H5bhg_4core3fmt3num3impm4__fmt .text._RNvMsf_NtNtNtCsakCY22H5bhg_4core3fmt3num3impj10__fmt_inner .text._RNvMsf_NtNtNtCsakCY22H5bhg_4core3fmt3num3impj4__fmt .text._RNvXs8_NtNtNtCsakCY22H5bhg_4core3fmt3num3impmNtB9_7Display3fmt .text._RNvXs9_NtNtNtCsakCY22H5bhg_4core3fmt3num3implNtB9_7Display3fmt .text._RNvXsd_NtNtNtCsakCY22H5bhg_4core3fmt3num3impjNtB9_7Display3fmt .text._RINvMNtCsakCY22H5bhg_4core5sliceSNtNtNtB5_5ascii10ascii_char9AsciiChar13get_uncheckedINtNtNtB5_3ops5range5RangejEEB5_ .text._RINvMs2_NtCsakCY22H5bhg_4core3fmtNtB6_9Arguments3newKj27_Kj2_EB8_ .text._RINvMs2_NtCsakCY22H5bhg_4core3fmtNtB6_9Arguments3newKj28_Kj2_EB8_ .text._RINvMs2_NtCsakCY22H5bhg_4core3fmtNtB6_9Arguments3newKj2_Kj1_EB8_ .text._RINvMs2_NtCsakCY22H5bhg_4core3fmtNtB6_9Arguments3newKj37_Kj2_EB8_ .text._RINvMs2_NtCsakCY22H5bhg_4core3fmtNtB6_9Arguments3newKj37_Kj3_EB8_ .text._RINvMs2_NtCsakCY22H5bhg_4core3fmtNtB6_9Arguments3newKj39_Kj2_EB8_ .text._RINvMs2_NtCsakCY22H5bhg_4core3fmtNtB6_9Arguments3newKj3b_Kj2_EB8_ .text._RINvMs2_NtCsakCY22H5bhg_4core3fmtNtB6_9Arguments3newKj3b_Kj4_EB8_ .text._RINvMs2_NtCsakCY22H5bhg_4core3fmtNtB6_9Arguments3newKj3d_Kj2_EB8_ .text._RINvMs2_NtCsakCY22H5bhg_4core3fmtNtB6_9Arguments3newKj47_Kj3_EB8_ .text._RINvMs2_NtCsakCY22H5bhg_4core3fmtNtB6_9Arguments3newKj50_Kj3_EB8_ .text._RINvMs2_NtCsakCY22H5bhg_4core3fmtNtB6_9Arguments3newKj52_Kj3_EB8_ .text._RINvMs2_NtCsakCY22H5bhg_4core3fmtNtB6_9Arguments3newKj53_Kj2_EB8_ .text._RINvMs2_NtCsakCY22H5bhg_4core3fmtNtB6_9Arguments3newKj6_Kj2_EB8_ .text._RINvMs2_NtCsakCY22H5bhg_4core3fmtNtB6_9Arguments3newKja_Kj1_EB8_ .text._RINvMsa_NtCsakCY22H5bhg_4core3fmtNtB6_9Formatter8wrap_bufNCNvMs_NtB6_8buildersNtB10_10PadAdapter4wrap0EB8_ .text._RINvNtNtCsakCY22H5bhg_4core4sync6atomic11atomic_loadhEB6_ .text._RINvXsK_NtNtNtCsakCY22H5bhg_4core4iter6traits5accumjNtB6_3Sum3sumINtNtNtBa_8adapters3map3MapINtNtNtBc_5slice4iter4IterhENCINvNvXs1_NtB16_6filterINtB25_6FilterppENtNtB8_8iterator8Iterator5count8to_usizeRhNCNvNtNtBc_3str5count23char_count_general_case .text._RNCINvXsK_NtNtNtCsakCY22H5bhg_4core4iter6traits5accumjNtB8_3Sum3sumINtNtNtBc_8adapters3map3MapINtNtNtBe_5slice4iter4IterhENCINvNvXs1_NtB18_6filterINtB27_6FilterppENtNtBa_8iterator8Iterator5count8to_usizeRhNCNvNtNtBe_3str5count23char_count_general_ca .text._RNCNvXsh_NtCsakCY22H5bhg_4core3fmteNtB7_5Debug3fmt0B9_ .text._RNvMs1_NtCsakCY22H5bhg_4core3fmtNtB5_9Formatter3new .text._RNvMs1_NtNtCsakCY22H5bhg_4core3ptr9const_ptrPSNtNtNtB9_5ascii10ascii_char9AsciiChar3lenB9_ .text._RNvMs4_NtCsakCY22H5bhg_4core3fmtNtB5_9Arguments23as_statically_known_strB7_ .text._RNvMs4_NtCsakCY22H5bhg_4core3fmtNtB5_9Arguments6as_strB7_ .text._RNvMs4_NtCsakCY22H5bhg_4core3fmtNtB5_9Arguments8from_strB7_ .text._RNvMs9_NtCsakCY22H5bhg_4core3fmtNtB5_11PostPadding3new .text._RNvMs9_NtCsakCY22H5bhg_4core3fmtNtB5_11PostPadding5write .text._RNvMs_NtCsakCY22H5bhg_4core3fmtNtB4_17FormattingOptions13get_precision .text._RNvMs_NtCsakCY22H5bhg_4core3fmtNtB4_17FormattingOptions3new .text._RNvMs_NtCsakCY22H5bhg_4core3fmtNtB4_17FormattingOptions4fill .text._RNvMs_NtCsakCY22H5bhg_4core3fmtNtB4_17FormattingOptions5align .text._RNvMs_NtCsakCY22H5bhg_4core3fmtNtB4_17FormattingOptions8get_fill .text._RNvMs_NtCsakCY22H5bhg_4core3fmtNtB4_17FormattingOptions9get_align .text._RNvMs_NtNtCsakCY22H5bhg_4core5ascii10ascii_charSNtB4_9AsciiChar6as_strB8_ .text._RNvMsa_NtCsakCY22H5bhg_4core3fmtNtB5_9Formatter12debug_struct .text._RNvMsa_NtCsakCY22H5bhg_4core3fmtNtB5_9Formatter12pad_integral .text._RNvMsa_NtCsakCY22H5bhg_4core3fmtNtB5_9Formatter15debug_lower_hex .text._RNvMsa_NtCsakCY22H5bhg_4core3fmtNtB5_9Formatter15debug_upper_hex .text._RNvMsa_NtCsakCY22H5bhg_4core3fmtNtB5_9Formatter19sign_aware_zero_pad .text._RNvMsa_NtCsakCY22H5bhg_4core3fmtNtB5_9Formatter25debug_tuple_field1_finish .text._RNvMsa_NtCsakCY22H5bhg_4core3fmtNtB5_9Formatter26debug_struct_field4_finish .text._RNvMsa_NtCsakCY22H5bhg_4core3fmtNtB5_9Formatter3pad .text._RNvMsa_NtCsakCY22H5bhg_4core3fmtNtB5_9Formatter7padding .text._RNvMsa_NtCsakCY22H5bhg_4core3fmtNtB5_9Formatter9alternate .text._RNvMsa_NtCsakCY22H5bhg_4core3fmtNtB5_9Formatter9sign_plus .text._RNvMsa_NtCsakCY22H5bhg_4core3fmtNtB5_9Formatter9write_fmtB7_ .text._RNvMsa_NtCsakCY22H5bhg_4core3fmtNtB5_9Formatter9write_str .text._RNvNtCsakCY22H5bhg_4core3fmt5write .text._RNvNvMsa_NtCsakCY22H5bhg_4core3fmtNtB7_9Formatter12pad_integral12write_prefix .text._RNvNvXsh_NtCsakCY22H5bhg_4core3fmteNtB7_5Debug3fmt12needs_escape .text._RNvXs1_NtCsakCY22H5bhg_4core7converthINtB5_4IntojE4intoB7_ .text._RNvXs1g_NtCsakCY22H5bhg_4core3fmtRDNtB6_5DebugEL_Bx_3fmtB8_ .text._RNvXs1g_NtCsakCY22H5bhg_4core3fmtReNtB6_5Debug3fmtB8_ .text._RNvXs1g_NtCsakCY22H5bhg_4core3fmtRjNtB6_5Debug3fmtB8_ .text._RNvXs1g_NtCsakCY22H5bhg_4core3fmtRuNtB6_5Debug3fmtB8_ .text._RNvXs1i_NtCsakCY22H5bhg_4core3fmtReNtB6_7Display3fmtB8_ .text._RNvXs4_NtCsakCY22H5bhg_4core7convertjINtB5_7TryIntohE8try_intoB7_ .text._RNvXs4_NtCsakCY22H5bhg_4core7convertlINtB5_7TryIntojE8try_intoB7_ .text._RNvXs4_NtCsakCY22H5bhg_4core7convertlINtB5_7TryIntomE8try_intoB7_ .text._RNvXs7_NtCsakCY22H5bhg_4core3fmtNtB5_9ArgumentsNtB5_5Debug3fmt .text._RNvXs8_NtCsakCY22H5bhg_4core3fmtNtB5_9ArgumentsNtB5_7Display3fmt .text._RNvXsb_NtCsakCY22H5bhg_4core3fmtNtB5_9FormatterNtB5_5Write10write_char .text._RNvXsg_NtCsakCY22H5bhg_4core3fmtbNtB5_7Display3fmt .text._RNvXsh_NtCsakCY22H5bhg_4core3fmteNtB5_5Debug3fmt .text._RNvXsi_NtCsakCY22H5bhg_4core3fmteNtB5_7Display3fmt .text._RNvXsj_NtCsakCY22H5bhg_4core3fmtcNtB5_5Debug3fmt .text._RNvXss_NtCsakCY22H5bhg_4core3fmtuNtB5_5Debug3fmtB7_ .text._RINvMNtNtCsakCY22H5bhg_4core3fmt2rtNtB3_8Argument11new_displayNtB5_9ArgumentsEB7_ .text._RINvMNtNtCsakCY22H5bhg_4core3fmt2rtNtB3_8Argument11new_displayReEB7_ .text._RINvMNtNtCsakCY22H5bhg_4core3fmt2rtNtB3_8Argument11new_displayjEB7_ .text._RINvMNtNtCsakCY22H5bhg_4core3fmt2rtNtB3_8Argument13new_lower_hexjEB7_ .text._RINvMNtNtCsakCY22H5bhg_4core3fmt2rtNtB3_8Argument13new_upper_hexmEB7_ .text._RINvMNtNtCsakCY22H5bhg_4core3fmt2rtNtB3_8Argument9new_debugINtNtNtB7_3ops5range5RangejEEB7_ .text._RINvMNtNtCsakCY22H5bhg_4core3fmt2rtNtB3_8Argument9new_debugRDNtB5_5DebugEL_EB7_ .text._RINvMNtNtCsakCY22H5bhg_4core3fmt2rtNtB3_8Argument9new_debugcEB7_ .text._RINvNtCsakCY22H5bhg_4core3cmp3maxjEB4_ .text._RINvNtCsakCY22H5bhg_4core3cmp3minjEB4_ .text._RNvMNtNtCsakCY22H5bhg_4core3fmt2rtNtB2_8Argument3fmtB6_ .text._RNvMNtNtCsakCY22H5bhg_4core3fmt2rtNtB2_8Argument6as_u16B6_ .text._RNvMNtNtCsakCY22H5bhg_4core3mem14maybe_danglingINtB2_13MaybeDanglingINtNvNtB6_4hint20select_unpredictable11DropOnPanicjEE3newB6_ .text._RNvMNtNtCsakCY22H5bhg_4core3mem14maybe_danglingINtB2_13MaybeDanglinghE3newB6_ .text._RNvMNtNtCsakCY22H5bhg_4core3mem14maybe_danglingINtB2_13MaybeDanglingjE3newB6_ .text._RNvMNtNtCsakCY22H5bhg_4core3str7patternNtB2_12CharSearcher9utf8_size .text._RNvMNtNtNtCsakCY22H5bhg_4core4iter8adapters6clonedINtB2_6ClonedINtNtNtB8_5slice4iter4IterhEE3newB8_ .text._RNvNtNtCsakCY22H5bhg_4core5slice5index16slice_index_fail .text._RNvNtNtCsakCY22H5bhg_4core5slice6memchr12memchr_naiveB5_ .text._RNvNtNtCsakCY22H5bhg_4core5slice6memchr14memchr_aligned .text._RNvNtNtCsakCY22H5bhg_4core5slice6memchr18contains_zero_byteB5_ .text._RNvNtNtCsakCY22H5bhg_4core5slice6memchr6memchrB5_ .text._RNvNtNtCsakCY22H5bhg_4core7unicode9printable12is_printable .text._RNvNtNtCsakCY22H5bhg_4core7unicode9printable5check .text._RNvNvNtNtCsakCY22H5bhg_4core5slice6memchr14memchr_aligned7runtimeB7_ .text._RNvNvNvNtNtCsakCY22H5bhg_4core5slice5index16slice_index_fail8do_panic7runtimeB9_ .text._RNvNvNvNtNtCsakCY22H5bhg_4core5slice5index16slice_index_fails0_8do_panic7runtimeB9_ .text._RNvNvNvNtNtCsakCY22H5bhg_4core5slice5index16slice_index_fails1_8do_panic7runtimeB9_ .text._RNvNvNvNtNtCsakCY22H5bhg_4core5slice5index16slice_index_fails_8do_panic7runtimeB9_ .text._RNvNvXs0_NtNtCsakCY22H5bhg_4core5slice5indexjINtB7_10SliceIndexSpE13get_unchecked18precondition_checkBb_ .text._RNvNvXs2_NtNtCsakCY22H5bhg_4core5slice5indexINtNtNtBb_3ops5range5RangejEINtB7_10SliceIndexSpE13get_unchecked18precondition_checkBb_ .text._RNvXNtNtNtCsakCY22H5bhg_4core4iter6traits7collectINtNtNtB8_3ops5range5RangejENtB2_12IntoIterator9into_iterB8_ .text._RNvXNtNtNtCsakCY22H5bhg_4core4iter6traits7collectINtNtNtB8_3ops5range5RangetENtB2_12IntoIterator9into_iterB8_ .text._RNvXs0_NtNtCsakCY22H5bhg_4core5slice5indexjINtB5_10SliceIndexSNtNtNtB9_7unicode12unicode_data20ShortOffsetRunHeaderE13get_uncheckedB9_ .text._RNvXs0_NtNtCsakCY22H5bhg_4core5slice5indexjINtB5_10SliceIndexSNtNtNtB9_7unicode12unicode_data20ShortOffsetRunHeaderE3getB9_ .text._RNvXs0_NtNtCsakCY22H5bhg_4core5slice5indexjINtB5_10SliceIndexShE13get_uncheckedB9_ .text._RNvXs2_NtNtCsakCY22H5bhg_4core3str7patterncNtB5_7Pattern12is_suffix_ofB9_ .text._RNvXs2_NtNtCsakCY22H5bhg_4core3str7patterncNtB5_7Pattern13into_searcherB9_ .text._RNvXs2_NtNtCsakCY22H5bhg_4core5slice5indexINtNtNtB9_3ops5range5RangejEINtB5_10SliceIndexSINtNtNtB9_3mem12maybe_uninit11MaybeUninithEE13get_uncheckedB9_ .text._RNvXs2_NtNtCsakCY22H5bhg_4core5slice5indexINtNtNtB9_3ops5range5RangejEINtB5_10SliceIndexSNtNtNtB9_5ascii10ascii_char9AsciiCharE13get_uncheckedB9_ .text._RNvXs2_NtNtCsakCY22H5bhg_4core5slice5indexINtNtNtB9_3ops5range5RangejEINtB5_10SliceIndexShE3getB9_ .text._RNvXs3_NtNtCsakCY22H5bhg_4core4iter5rangeINtNtNtB9_3ops5range5RangejENtB5_17RangeIteratorImpl14spec_next_backB9_ .text._RNvXs3_NtNtCsakCY22H5bhg_4core4iter5rangeINtNtNtB9_3ops5range5RangejENtB5_17RangeIteratorImpl9spec_nextB9_ .text._RNvXs3_NtNtCsakCY22H5bhg_4core4iter5rangeINtNtNtB9_3ops5range5RangetENtB5_17RangeIteratorImpl9spec_nextB9_ .text._RNvXs4_NtNtCsakCY22H5bhg_4core4iter5rangeINtNtNtB9_3ops5range5RangejENtNtNtB7_6traits8iterator8Iterator4nextB9_ .text._RNvXs4_NtNtCsakCY22H5bhg_4core4iter5rangeINtNtNtB9_3ops5range5RangetENtNtNtB7_6traits8iterator8Iterator4nextB9_ .text._RNvXs5_NtNtCsakCY22H5bhg_4core3str6traitsINtNtNtB9_3ops5range5RangejEINtNtNtB9_5slice5index10SliceIndexeE13get_uncheckedB9_ .text._RNvXs5_NtNtCsakCY22H5bhg_4core3str6traitsINtNtNtB9_3ops5range5RangejEINtNtNtB9_5slice5index10SliceIndexeE3getB9_ .text._RNvXs5_NtNtCsakCY22H5bhg_4core3str6traitsINtNtNtB9_3ops5range5RangejEINtNtNtB9_5slice5index10SliceIndexeE5indexB9_ .text._RNvXs5_NtNtCsakCY22H5bhg_4core4iter5rangeINtNtNtB9_3ops5range5RangejENtNtNtB7_6traits12double_ended19DoubleEndedIterator9next_backB9_ .text._RNvXs5_NtNtCsakCY22H5bhg_4core5slice5indexINtNtNtB9_3ops5range9RangeFromjEINtB5_10SliceIndexSINtNtNtB9_3mem12maybe_uninit11MaybeUninithEE13get_uncheckedB9_ .text._RNvXs5_NtNtCsakCY22H5bhg_4core5slice5indexINtNtNtB9_3ops5range9RangeFromjEINtB5_10SliceIndexShE5indexB9_ .text._RNvXs8_NtNtCsakCY22H5bhg_4core3str6traitsINtNtNtB9_3ops5range7RangeTojEINtNtNtB9_5slice5index10SliceIndexeE13get_uncheckedB9_ .text._RNvXs9_NtNtCsakCY22H5bhg_4core3str6traitsINtNtNtB9_3ops5range9RangeFromjEINtNtNtB9_5slice5index10SliceIndexeE13get_uncheckedB9_ .text._RNvXsF_NtNtCsakCY22H5bhg_4core4iter5rangetNtB5_4Step17forward_uncheckedB9_ .text._RNvXsJ_NtNtCsakCY22H5bhg_4core4iter5rangejNtB5_4Step17forward_uncheckedB9_ .text._RNvXsJ_NtNtCsakCY22H5bhg_4core4iter5rangejNtB5_4Step18backward_uncheckedB9_ .text._RNvXsL_NtNtCsakCY22H5bhg_4core3ops5rangeINtB5_5RangejENtNtB9_5clone5Clone5cloneB9_ .text._RNvXs_NtNtCsakCY22H5bhg_4core3ops5rangeINtB4_5RangejENtNtB8_3fmt5Debug3fmtB8_ .text._RNvXs_NtNtCsakCY22H5bhg_4core3str7patternNtB4_12CharSearcherNtB4_8Searcher10next_matchB8_ .text._RNvXs_NtNtCsakCY22H5bhg_4core3str7patternNtB4_12CharSearcherNtB4_8Searcher8haystackB8_ .text._RNvXs_NtNtNtCsakCY22H5bhg_4core4iter8adapters6clonedINtB4_6ClonedINtNtNtBa_5slice4iter4IterhEENtNtNtB8_6traits8iterator8Iterator4nextBa_ .text._RNvXsb_NtCsakCY22H5bhg_4core3cmpNtB5_8OrderingNtB5_9PartialEq2eqB7_ .text._RNvXst_NtNtCsakCY22H5bhg_4core3str7patternReNtB5_7Pattern12is_suffix_ofB9_ .text._RNvYINtNtNtCsakCY22H5bhg_4core3ops5range5RangejENtNtNtNtB9_4iter6traits8iterator8Iterator3revB9_ .text._RNvYNvYhNtNtCsakCY22H5bhg_4core5clone5Clone5cloneINtNtNtBa_3ops8function6FnOnceTRhEE9call_onceBa_ .text._RNvYjNtNtCsakCY22H5bhg_4core3cmp3Ord3maxB7_ .text._RNvYjNtNtCsakCY22H5bhg_4core3cmp3Ord3minB7_ .text._RNCNvXs_NvNtNtNtNtCsakCY22H5bhg_4core4iter6traits8iterator8Iterator10advance_byNtNtNtBg_3str4iter11CharIndicesNtB6_13SpecAdvanceBy15spec_advance_by0Bg_ .text._RINvNtNtNtCsakCY22H5bhg_4core4iter8adapters3map8map_foldRhjjNCINvNvXs1_NtB4_6filterINtB17_6FilterppENtNtNtB6_6traits8iterator8Iterator5count8to_usizeBS_NCNvNtNtB8_3str5count23char_count_general_case0E0NCINvXsK_NtB1E_5accumjNtB3m_3Sum3sumINtB2_3MapIN .text._RINvXs0_NtNtNtCsakCY22H5bhg_4core4iter8adapters3mapINtB6_3MapINtNtNtBc_5slice4iter4IterhENCINvNvXs1_NtB8_6filterINtB1A_6FilterppENtNtNtBa_6traits8iterator8Iterator5count8to_usizeRhNCNvNtNtBc_3str5count23char_count_general_case0E0EB23_4foldjNCINvXsK_ .text._RINvYINtNtNtNtCsakCY22H5bhg_4core4iter8adapters3map3MapINtNtNtBc_5slice4iter4IterhENCINvNvXs1_NtB8_6filterINtB1u_6FilterppENtNtNtBa_6traits8iterator8Iterator5count8to_usizeRhNCNvNtNtBc_3str5count23char_count_general_case0E0EB1X_3sumjEBc_ .text._RINvYNtNtNtCsakCY22H5bhg_4core3str4iter11CharIndicesNtNtNtNtB9_4iter6traits8iterator8Iterator8try_foldINtNtNtB9_3num7nonzero7NonZerojENCNvXs_NvBO_10advance_byB3_NtB2f_13SpecAdvanceBy15spec_advance_by0INtNtB9_6option6OptionB1C_EEB9_ .text._RNCINvNtNtNtCsakCY22H5bhg_4core4iter8adapters3map8map_foldRhjjNCINvNvXs1_NtB6_6filterINtB19_6FilterppENtNtNtB8_6traits8iterator8Iterator5count8to_usizeBU_NCNvNtNtBa_3str5count23char_count_general_case0E0NCINvXsK_NtB1G_5accumjNtB3o_3Sum3sumINtB4_3Map .text._RNCNvXNtNtCsakCY22H5bhg_4core3str4iterNtB4_5CharsNtNtNtNtB8_4iter6traits8iterator8Iterator4next0B8_ .text._RNvMNtNtNtCsakCY22H5bhg_4core4iter8adapters3mapINtB2_3MapINtNtNtB8_5slice4iter4IterhENCINvNvXs1_NtB4_6filterINtB1w_6FilterppENtNtNtB6_6traits8iterator8Iterator5count8to_usizeRhNCNvNtNtB8_3str5count23char_count_general_case0E0E3newB8_ .text._RNvMs2_NtNtCsakCY22H5bhg_4core3str4iterNtB5_5Chars6as_strB9_ .text._RNvMs6_NtNtCsakCY22H5bhg_4core3str4iterNtB5_11CharIndices6offsetB9_ .text._RNvMsf_NtNtCsakCY22H5bhg_4core3str4iterINtB5_13SplitInternalcE14next_inclusiveB9_ .text._RNvMsf_NtNtCsakCY22H5bhg_4core3str4iterINtB5_13SplitInternalcE7get_endB9_ .text._RNvNtCsakCY22H5bhg_4core4hint21unreachable_uncheckedB3_ .text._RNvNvNtCsakCY22H5bhg_4core4hint16assert_unchecked18precondition_checkB5_ .text._RNvNvNtCsakCY22H5bhg_4core4hint21unreachable_unchecked18precondition_checkB5_ .text._RNvNvXs5_NtNtCsakCY22H5bhg_4core3str6traitsINtNtNtBb_3ops5range5RangejEINtNtNtBb_5slice5index10SliceIndexeE13get_unchecked18precondition_checkBb_ .text._RNvXNtNtCsakCY22H5bhg_4core3str4iterNtB2_5CharsNtNtNtNtB6_4iter6traits8iterator8Iterator4nextB6_ .text._RNvXNtNtCsakCY22H5bhg_4core3str4iterNtB2_5CharsNtNtNtNtB6_4iter6traits8iterator8Iterator5countB6_ .text._RNvXNtNtNtCsakCY22H5bhg_4core4iter6traits7collectINtNtNtB8_3str4iter14SplitInclusivecENtB2_12IntoIterator9into_iterB8_ .text._RNvXs2_NtNtCsakCY22H5bhg_4core3str6traitseINtNtNtB9_3ops5index5IndexINtNtBJ_5range5RangejEE5indexB9_ .text._RNvXs3_NtNtCsakCY22H5bhg_4core3str4iterNtB5_11CharIndicesNtNtNtNtB9_4iter6traits8iterator8Iterator4nextB9_ .text._RNvXsH_NtNtCsakCY22H5bhg_4core3str4iterINtB5_14SplitInclusivecENtNtNtNtB9_4iter6traits8iterator8Iterator4nextB9_ .text._RNvXs_NvNtNtNtNtCsakCY22H5bhg_4core4iter6traits8iterator8Iterator10advance_byNtNtNtBe_3str4iter11CharIndicesNtB4_13SpecAdvanceBy15spec_advance_byBe_ .text._RNvYNtNtNtCsakCY22H5bhg_4core3str4iter11CharIndicesNtNtNtNtB8_4iter6traits8iterator8Iterator10advance_byB8_ .text._RINvNtCsakCY22H5bhg_4core3ptr12align_offsethEB4_ .text._RINvNtCsakCY22H5bhg_4core3ptr20slice_from_raw_partsAjj4_EB4_ .text._RINvNtCsakCY22H5bhg_4core3ptr20slice_from_raw_partshEB4_ .text._RINvNtCsakCY22H5bhg_4core3ptr20slice_from_raw_partsjEB4_ .text._RINvNtCsakCY22H5bhg_4core3ptr24slice_from_raw_parts_muthEB4_ .text._RINvNtCsakCY22H5bhg_4core3ptr4readAhj2_EB4_ .text._RINvNtCsakCY22H5bhg_4core3ptr4readAhj4_EB4_ .text._RINvNtCsakCY22H5bhg_4core3ptr4readhEB4_ .text._RINvNtCsakCY22H5bhg_4core3ptr4readjEB4_ .text._RINvNtNtCsakCY22H5bhg_4core3str11validations15next_code_pointINtNtNtB6_5slice4iter4IterhEEB6_ .text._RINvNtNtCsakCY22H5bhg_4core5slice3raw14from_raw_partsAjj4_EB6_ .text._RINvNtNtCsakCY22H5bhg_4core5slice3raw14from_raw_partshEB6_ .text._RINvNtNtCsakCY22H5bhg_4core5slice3raw14from_raw_partsjEB6_ .text._RINvNtNtCsakCY22H5bhg_4core5slice3raw18from_raw_parts_muthEB6_ .text._RNvMNtNtCsakCY22H5bhg_4core3mem9alignmentNtB2_9Alignment16as_nonzero_usizeB6_ .text._RNvMNtNtCsakCY22H5bhg_4core3mem9alignmentNtB2_9Alignment8as_usizeB6_ .text._RNvMNtNtCsakCY22H5bhg_4core3ptr7mut_ptrOh20offset_from_unsignedB6_ .text._RNvMNtNtCsakCY22H5bhg_4core3ptr9const_ptrPh12align_offsetB6_ .text._RNvMNtNtCsakCY22H5bhg_4core3ptr9const_ptrPh20offset_from_unsignedB6_ .text._RNvMNtNtCsakCY22H5bhg_4core3ptr9const_ptrPj4readB6_ .text._RNvMNtNtCsakCY22H5bhg_4core3ptr9const_ptrPu13is_aligned_toB6_ .text._RNvMNtNtCsakCY22H5bhg_4core3ptr9const_ptrPu7is_nullB6_ .text._RNvMs1_NtNtCsakCY22H5bhg_4core3ptr9const_ptrPSh3lenB9_ .text._RNvMs1_NtNtCsakCY22H5bhg_4core3ptr9const_ptrPSh6as_ptrB9_ .text._RNvMs4_NtNtCsakCY22H5bhg_4core5panic8locationNtB5_8Location4file .text._RNvMs4_NtNtCsakCY22H5bhg_4core5panic8locationNtB5_8Location6callerB9_ .text._RNvNtCsakCY22H5bhg_4core9ub_checks16maybe_is_alignedB3_ .text._RNvNtCsakCY22H5bhg_4core9ub_checks17check_language_ubB3_ .text._RNvNtCsakCY22H5bhg_4core9ub_checks24is_valid_allocation_sizeB3_ .text._RNvNtCsakCY22H5bhg_4core9ub_checks29maybe_is_aligned_and_not_nullB3_ .text._RNvNtNtCsakCY22H5bhg_4core3str11validations15utf8_first_byteB5_ .text._RNvNtNtCsakCY22H5bhg_4core3str11validations17utf8_is_cont_byteB5_ .text._RNvNtNtCsakCY22H5bhg_4core3str11validations18utf8_acc_cont_byteB5_ .text._RNvNvMNtNtCsakCY22H5bhg_4core3ptr7mut_ptrOp3add18precondition_checkB8_ .text._RNvNvMNtNtCsakCY22H5bhg_4core3ptr7mut_ptrOp3add18runtime_add_nowrapB8_ .text._RNvNvMNtNtCsakCY22H5bhg_4core3ptr9const_ptrPp20offset_from_unsigned14runtime_ptr_ge .text._RNvNvMNtNtCsakCY22H5bhg_4core3ptr9const_ptrPp20offset_from_unsigned18precondition_checkB8_ .text._RNvNvMNtNtCsakCY22H5bhg_4core3ptr9const_ptrPp3add18precondition_checkB8_ .text._RNvNvMNtNtCsakCY22H5bhg_4core3ptr9const_ptrPp3add18runtime_add_nowrapB8_ .text._RNvNvMNtNtCsakCY22H5bhg_4core3ptr9const_ptrPp7is_null7runtimeB8_ .text._RNvNvNtCsakCY22H5bhg_4core3ptr12align_offset7mod_invB5_ .text._RNvNvNtCsakCY22H5bhg_4core3ptr4read18precondition_checkB5_ .text._RNvNvNtCsakCY22H5bhg_4core9ub_checks16maybe_is_aligned7runtimeB5_ .text._RNvNvNtCsakCY22H5bhg_4core9ub_checks17check_language_ub7runtimeB5_ .text._RNvNvNtNtCsakCY22H5bhg_4core5slice3raw14from_raw_parts18precondition_checkB7_ .text._RNvNvNtNtCsakCY22H5bhg_4core5slice3raw18from_raw_parts_mut18precondition_checkB7_ .text._RNvNvNvMNtNtCsakCY22H5bhg_4core3ptr7mut_ptrOp3add18runtime_add_nowrap7runtimeBa_ .text._RNvNvNvMNtNtCsakCY22H5bhg_4core3ptr9const_ptrPp20offset_from_unsigned14runtime_ptr_ge7runtimeBa_ .text._RNvNvNvMNtNtCsakCY22H5bhg_4core3ptr9const_ptrPp3add18runtime_add_nowrap7runtimeBa_ .text._RNvXNtNtCsakCY22H5bhg_4core5slice3cmpShNtNtB6_3cmp9PartialEq2eqB6_ .text._RNvXs3_NtNtCsakCY22H5bhg_4core5panic8locationNtB5_8LocationNtNtB9_3fmt5Debug3fmt .text._RNvXs3_NtNtCsakCY22H5bhg_4core5slice3cmphINtB5_14SlicePartialEqhE17equal_same_lengthB9_ .text._RNCNvNtNtCsakCY22H5bhg_4core3str5count23char_count_general_case0B7_ .text._RNvNtNtCsakCY22H5bhg_4core3str5count11count_charsB5_ .text._RNvNtNtCsakCY22H5bhg_4core3str5count14do_count_chars .text._RNvNtNtCsakCY22H5bhg_4core3str5count18sum_bytes_in_usizeB5_ .text._RNvNtNtCsakCY22H5bhg_4core3str5count23char_count_general_case .text._RNvNtNtCsakCY22H5bhg_4core3str5count30contains_non_continuation_byteB5_ .text._RNvXNtNtNtCsakCY22H5bhg_4core7convert3num18ptr_try_from_implshINtB6_7TryFromjE8try_fromB8_ .text._RNvXsn_NtNtNtCsakCY22H5bhg_4core7convert3num18ptr_try_from_implsjINtB9_7TryFromlE8try_fromBb_ .text._RINvMNtCsakCY22H5bhg_4core5sliceSINtNtNtB5_3mem12maybe_uninit11MaybeUninithE13get_uncheckedINtNtNtB5_3ops5range9RangeFromjEEB5_ .text._RNvMs1_NtNtCsakCY22H5bhg_4core3ptr9const_ptrPSINtNtNtB9_3mem12maybe_uninit11MaybeUninithE3lenB9_ .text._RNvXsb_NtCsakCY22H5bhg_4core5arrayRAjj4_NtNtNtNtB7_4iter6traits7collect12IntoIterator9into_iterB7_ .text._RNvXsd_NtCsakCY22H5bhg_4core5arrayAhj4_INtNtNtB7_3ops5index5IndexINtNtBG_5range5RangejEE5indexB7_ .text._RINvMs0_NtNtCsakCY22H5bhg_4core3ptr8non_nullINtB6_7NonNullhE10cast_arrayKj2_EBa_ .text._RINvMs0_NtNtCsakCY22H5bhg_4core3ptr8non_nullINtB6_7NonNullhE10cast_arrayKj4_EBa_ .text._RINvMs1_NtNtCsakCY22H5bhg_4core3ptr8non_nullINtB6_7NonNullINtNtNtBa_3ops5range5RangejEE4castuEBa_ .text._RINvMs1_NtNtCsakCY22H5bhg_4core3ptr8non_nullINtB6_7NonNullNtNtBa_3fmt9ArgumentsE4castuEBa_ .text._RINvMs1_NtNtCsakCY22H5bhg_4core3ptr8non_nullINtB6_7NonNullRDNtNtBa_3fmt5DebugEL_E4castuEBa_ .text._RINvMs1_NtNtCsakCY22H5bhg_4core3ptr8non_nullINtB6_7NonNullReE4castuEBa_ .text._RINvMs1_NtNtCsakCY22H5bhg_4core3ptr8non_nullINtB6_7NonNullSAjj4_E4castBV_EBa_ .text._RINvMs1_NtNtCsakCY22H5bhg_4core3ptr8non_nullINtB6_7NonNullSThhEE4castBV_EBa_ .text._RINvMs1_NtNtCsakCY22H5bhg_4core3ptr8non_nullINtB6_7NonNullShE4casthEBa_ .text._RINvMs1_NtNtCsakCY22H5bhg_4core3ptr8non_nullINtB6_7NonNullSjE4castjEBa_ .text._RINvMs1_NtNtCsakCY22H5bhg_4core3ptr8non_nullINtB6_7NonNullcE4castuEBa_ .text._RINvMs1_NtNtCsakCY22H5bhg_4core3ptr8non_nullINtB6_7NonNullhE4castAhj2_EBa_ .text._RINvMs1_NtNtCsakCY22H5bhg_4core3ptr8non_nullINtB6_7NonNullhE4castAhj4_EBa_ .text._RINvMs1_NtNtCsakCY22H5bhg_4core3ptr8non_nullINtB6_7NonNulljE4castuEBa_ .text._RINvMs1_NtNtCsakCY22H5bhg_4core3ptr8non_nullINtB6_7NonNullmE4castuEBa_ .text._RINvXs2J_NtNtCsakCY22H5bhg_4core5slice4iterINtB7_4IterhENtNtNtNtBb_4iter6traits8iterator8Iterator4foldjNCINvNtNtBY_8adapters3map8map_foldRhjjNCINvNvXs1_NtB1K_6filterINtB2q_6FilterppEBS_5count8to_usizeB2b_NCNvNtNtBb_3str5count23char_count_general_cas .text._RINvXs2J_NtNtCsakCY22H5bhg_4core5slice4iterINtB7_4IterhENtNtNtNtBb_4iter6traits8iterator8Iterator8positionNCNvXsh_NtBb_3fmteNtB1O_5Debug3fmt0EBb_ .text._RINvYINtNtNtCsakCY22H5bhg_4core5slice4iter4IterhENtNtNtNtBa_4iter6traits8iterator8Iterator3mapjNCINvNvXs1_NtNtBR_8adapters6filterINtB1G_6FilterppEBL_5count8to_usizeRhNCNvNtNtBa_3str5count23char_count_general_case0E0EBa_ .text._RINvYINtNtNtCsakCY22H5bhg_4core5slice4iter4IterhENtNtNtNtBa_4iter6traits8iterator8Iterator6clonedhEBa_ .text._RINvYINtNtNtCsakCY22H5bhg_4core5slice4iter4IterhENtNtNtNtBa_4iter6traits8iterator8Iterator6filterNCNvNtNtBa_3str5count23char_count_general_case0EBa_ .text._RNvMs15_NtNtCsakCY22H5bhg_4core5slice4iterINtB6_6ChunksjE3newBa_ .text._RNvMs1_NtNtCsakCY22H5bhg_4core3ptr8non_nullINtB5_7NonNullAhj2_E4readB9_ .text._RNvMs1_NtNtCsakCY22H5bhg_4core3ptr8non_nullINtB5_7NonNullAhj4_E4readB9_ .text._RNvMs1_NtNtCsakCY22H5bhg_4core3ptr8non_nullINtB5_7NonNullINtNtNtB9_3ops5range5RangejEE8from_refB9_ .text._RNvMs1_NtNtCsakCY22H5bhg_4core3ptr8non_nullINtB5_7NonNullNtNtB9_3fmt9ArgumentsE8from_refB9_ .text._RNvMs1_NtNtCsakCY22H5bhg_4core3ptr8non_nullINtB5_7NonNullRDNtNtB9_3fmt5DebugEL_E8from_refB9_ .text._RNvMs1_NtNtCsakCY22H5bhg_4core3ptr8non_nullINtB5_7NonNullReE8from_refB9_ .text._RNvMs1_NtNtCsakCY22H5bhg_4core3ptr8non_nullINtB5_7NonNullSAjj4_E8from_refB9_ .text._RNvMs1_NtNtCsakCY22H5bhg_4core3ptr8non_nullINtB5_7NonNullSThhEE8from_refB9_ .text._RNvMs1_NtNtCsakCY22H5bhg_4core3ptr8non_nullINtB5_7NonNullShE8from_refB9_ .text._RNvMs1_NtNtCsakCY22H5bhg_4core3ptr8non_nullINtB5_7NonNullSjE8from_refB9_ .text._RNvMs1_NtNtCsakCY22H5bhg_4core3ptr8non_nullINtB5_7NonNullcE8from_refB9_ .text._RNvMs1_NtNtCsakCY22H5bhg_4core3ptr8non_nullINtB5_7NonNullhE20offset_from_unsignedB9_ .text._RNvMs1_NtNtCsakCY22H5bhg_4core3ptr8non_nullINtB5_7NonNullhE4readB9_ .text._RNvMs1_NtNtCsakCY22H5bhg_4core3ptr8non_nullINtB5_7NonNulljE8from_refB9_ .text._RNvMs1_NtNtCsakCY22H5bhg_4core3ptr8non_nullINtB5_7NonNullmE8from_refB9_ .text._RNvMs4_NtNtCsakCY22H5bhg_4core5slice4iterINtB5_4IterAjj4_E3newB9_ .text._RNvMs4_NtNtCsakCY22H5bhg_4core5slice4iterINtB5_4IterThhEE3newB9_ .text._RNvMs4_NtNtCsakCY22H5bhg_4core5slice4iterINtB5_4IterhE3newB9_ .text._RNvMs4_NtNtCsakCY22H5bhg_4core5slice4iterINtB5_4IterhE8as_sliceB9_ .text._RNvMs4_NtNtCsakCY22H5bhg_4core5slice4iterINtB5_4IterjE3newB9_ .text._RNvXNtNtNtCsakCY22H5bhg_4core4iter6traits7collectINtNtNtB8_5slice4iter6ChunksjENtB2_12IntoIterator9into_iterB8_ .text._RNvXs17_NtNtCsakCY22H5bhg_4core5slice4iterINtB6_6ChunksjENtNtNtNtBa_4iter6traits8iterator8Iterator4nextBa_ .text._RNvXs2J_NtNtCsakCY22H5bhg_4core5slice4iterINtB6_4IterAjj4_ENtNtNtNtBa_4iter6traits8iterator8Iterator4nextBa_ .text._RNvXs2J_NtNtCsakCY22H5bhg_4core5slice4iterINtB6_4IterThhEENtNtNtNtBa_4iter6traits8iterator8Iterator4nextBa_ .text._RNvXs2J_NtNtCsakCY22H5bhg_4core5slice4iterINtB6_4IterhENtNtNtNtBa_4iter6traits8iterator8Iterator4nextBa_ .text._RNvXs2J_NtNtCsakCY22H5bhg_4core5slice4iterINtB6_4IterhENtNtNtNtBa_4iter6traits8iterator8Iterator9size_hintBa_ .text._RNvXs2J_NtNtCsakCY22H5bhg_4core5slice4iterINtB6_4IterjENtNtNtNtBa_4iter6traits8iterator8Iterator4nextBa_ .text._RNvXs5_NtNtCsakCY22H5bhg_4core3num5errorNtB5_15TryFromIntErrorNtNtB9_3fmt5Debug3fmtB9_ .text._RNvXs8_NtNtNtCsakCY22H5bhg_4core4iter8adapters6filterINtNtNtBb_5slice4iter4IterhENtB5_15SpecAssumeCount27assume_count_le_upper_boundBb_ .text._RNvXs_NtNtCsakCY22H5bhg_4core5slice4iterRSAjj4_NtNtNtNtB8_4iter6traits7collect12IntoIterator9into_iterB8_ .text._RNvXs_NtNtCsakCY22H5bhg_4core5slice4iterRSThhENtNtNtNtB8_4iter6traits7collect12IntoIterator9into_iterB8_ .text._RNvXs_NtNtCsakCY22H5bhg_4core5slice4iterRShNtNtNtNtB8_4iter6traits7collect12IntoIterator9into_iterB8_ .text._RNvXs_NtNtCsakCY22H5bhg_4core5slice4iterRSjNtNtNtNtB8_4iter6traits7collect12IntoIterator9into_iterB8_ .text._RNvXsd_NtNtCsakCY22H5bhg_4core3ptr8non_nullINtB5_7NonNullAjj4_ENtNtB9_3cmp9PartialEq2eqB9_ .text._RNvXsd_NtNtCsakCY22H5bhg_4core3ptr8non_nullINtB5_7NonNullThhEENtNtB9_3cmp9PartialEq2eqB9_ .text._RNvXsd_NtNtCsakCY22H5bhg_4core3ptr8non_nullINtB5_7NonNullhENtNtB9_3cmp9PartialEq2eqB9_ .text._RNvXsd_NtNtCsakCY22H5bhg_4core3ptr8non_nullINtB5_7NonNulljENtNtB9_3cmp9PartialEq2eqB9_ .text._RINvMs1_NtNtCsakCY22H5bhg_4core3fmt8buildersNtB6_11DebugStruct10field_withNCNvB2_5field0EBa_ .text._RINvMs2_NtNtCsakCY22H5bhg_4core3fmt8buildersNtB6_10DebugTuple10field_withNCNvB2_5field0EBa_ .text._RINvNtNtCsakCY22H5bhg_4core3ptr8metadata14from_raw_partsSAjj4_BT_EB6_ .text._RINvNtNtCsakCY22H5bhg_4core3ptr8metadata14from_raw_partsShhEB6_ .text._RINvNtNtCsakCY22H5bhg_4core3ptr8metadata14from_raw_partsSjjEB6_ .text._RINvNtNtCsakCY22H5bhg_4core3ptr8metadata14from_raw_partsehEB6_ .text._RINvNtNtCsakCY22H5bhg_4core3ptr8metadata18from_raw_parts_mutShhEB6_ .text._RINvNtNtCsakCY22H5bhg_4core3ptr8metadata8metadataSINtNtNtB6_3mem12maybe_uninit11MaybeUninithEEB6_ .text._RINvNtNtCsakCY22H5bhg_4core3ptr8metadata8metadataSNtNtNtB6_5ascii10ascii_char9AsciiCharEB6_ .text._RINvNtNtCsakCY22H5bhg_4core3ptr8metadata8metadataSNtNtNtB6_7unicode12unicode_data20ShortOffsetRunHeaderEB6_ .text._RINvNtNtCsakCY22H5bhg_4core3ptr8metadata8metadataShEB6_ .text._RINvNvXs1_NtNtNtCsakCY22H5bhg_4core4iter8adapters6filterINtB8_6FilterppENtNtNtBc_6traits8iterator8Iterator5count8to_usizeRhNCNvNtNtBe_3str5count23char_count_general_case0EBe_ .text._RNCINvMs1_NtNtCsakCY22H5bhg_4core3fmt8buildersNtB8_11DebugStruct10field_withNCNvB4_5field0E0Bc_ .text._RNCINvMs2_NtNtCsakCY22H5bhg_4core3fmt8buildersNtB8_10DebugTuple10field_withNCNvB4_5field0E0Bc_ .text._RNCINvNvXs1_NtNtNtCsakCY22H5bhg_4core4iter8adapters6filterINtBa_6FilterppENtNtNtBe_6traits8iterator8Iterator5count8to_usizeRhNCNvNtNtBg_3str5count23char_count_general_case0E0Bg_ .text._RNCNvMs1_NtNtCsakCY22H5bhg_4core3fmt8buildersNtB7_11DebugStruct5field0Bb_ .text._RNCNvMs1_NtNtCsakCY22H5bhg_4core3fmt8buildersNtB7_11DebugStruct6finish0Bb_ .text._RNCNvMs2_NtNtCsakCY22H5bhg_4core3fmt8buildersNtB7_10DebugTuple5field0Bb_ .text._RNCNvMs2_NtNtCsakCY22H5bhg_4core3fmt8buildersNtB7_10DebugTuple6finish0Bb_ .text._RNCNvMs_NtNtCsakCY22H5bhg_4core3fmt8buildersNtB6_10PadAdapter4wrap0Ba_ .text._RNvMNtNtNtCsakCY22H5bhg_4core4iter8adapters6filterINtB2_6FilterINtNtNtB8_5slice4iter4IterhENCNvNtNtB8_3str5count23char_count_general_case0E3newB8_ .text._RNvMs1_NtNtCsakCY22H5bhg_4core3fmt8buildersNtB5_11DebugStruct5field .text._RNvMs1_NtNtCsakCY22H5bhg_4core3fmt8buildersNtB5_11DebugStruct6finish .text._RNvMs1_NtNtCsakCY22H5bhg_4core3fmt8buildersNtB5_11DebugStruct9is_pretty .text._RNvMs2_NtNtCsakCY22H5bhg_4core3fmt8buildersNtB5_10DebugTuple5field .text._RNvMs2_NtNtCsakCY22H5bhg_4core3fmt8buildersNtB5_10DebugTuple6finish .text._RNvMs2_NtNtCsakCY22H5bhg_4core3fmt8buildersNtB5_10DebugTuple9is_pretty .text._RNvMs_NtNtCsakCY22H5bhg_4core3fmt8buildersNtB4_10PadAdapter4wrap .text._RNvNtNtCsakCY22H5bhg_4core3fmt8builders15debug_tuple_new .text._RNvNtNtCsakCY22H5bhg_4core3fmt8builders16debug_struct_new .text._RNvNtNtNtCsakCY22H5bhg_4core7unicode12unicode_data15grapheme_extend11lookup_slow .text._RNvNtNtNtCsakCY22H5bhg_4core7unicode12unicode_data15grapheme_extend6lookupB7_ .text._RNvXNtNtCsakCY22H5bhg_4core3fmt8buildersNtB2_15PadAdapterStateNtNtB6_7default7Default7default .text._RNvXs0_NtNtCsakCY22H5bhg_4core3fmt8buildersNtB5_10PadAdapterNtB7_5Write10write_char .text._RNvXs0_NtNtCsakCY22H5bhg_4core3fmt8buildersNtB5_10PadAdapterNtB7_5Write9write_str .text._RNvXs1_NtNtNtCsakCY22H5bhg_4core4iter8adapters6filterINtB5_6FilterINtNtNtBb_5slice4iter4IterhENCNvNtNtBb_3str5count23char_count_general_case0ENtNtNtB9_6traits8iterator8Iterator5countBb_ .text._RNvXs2X_NtNtCsakCY22H5bhg_4core7convert3nummINtB8_7TryFromlE8try_fromBa_ .text._RNvXs_NvNtNtCsakCY22H5bhg_4core3fmt5Write9write_fmtQNtNtB8_8builders10PadAdapterNtB4_12SpecWriteFmt14spec_write_fmtBa_ .text._RNvYNtNtNtCsakCY22H5bhg_4core3fmt8builders10PadAdapterNtB6_5Write9write_fmtB8_ .text._RINvMNtCsakCY22H5bhg_4core6optionINtB3_6OptionRhE3maphNvYhNtNtB5_5clone5Clone5cloneEB5_ .text._RINvMNtCsakCY22H5bhg_4core6optionINtB3_6OptionjE3mapmNCINvNtNtB5_7unicode12unicode_data11skip_searchKj21_Kj2ff_Es_0EB5_ .text._RINvMNtCsakCY22H5bhg_4core6optionINtB3_6OptionmE3mapcNCNvXNtNtB5_3str4iterNtBU_5CharsNtNtNtNtB5_4iter6traits8iterator8Iterator4next0EB5_ .text._RINvNtCsakCY22H5bhg_4core6escape14escape_unicodeKja_EB4_ .text._RINvNtCsakCY22H5bhg_4core6escape9backslashKja_EB4_ .text._RINvNtCsakCY22H5bhg_4core9panicking13assert_failedjjEB4_ .text._RINvNtCsakCY22H5bhg_4core9panicking13panic_displayReEB4_ .text._RNvMNtCsakCY22H5bhg_4core6escapeINtB2_15EscapeIterInnerKja_NtB2_12MaybeEscapedE16to_str_uncheckedB4_ .text._RNvMNtCsakCY22H5bhg_4core6escapeINtB2_15EscapeIterInnerKja_NtB2_12MaybeEscapedE3lenB4_ .text._RNvMNtCsakCY22H5bhg_4core6escapeINtB2_15EscapeIterInnerKja_NtB2_12MaybeEscapedE3newB4_ .text._RNvMNtCsakCY22H5bhg_4core6escapeINtB2_15EscapeIterInnerKja_NtB2_12MaybeEscapedE7to_charB4_ .text._RNvMNtCsakCY22H5bhg_4core6escapeINtB2_15EscapeIterInnerKja_NtB2_12MaybeEscapedE7unicodeB4_ .text._RNvMNtCsakCY22H5bhg_4core6escapeINtB2_15EscapeIterInnerKja_NtB2_12MaybeEscapedE9backslashB4_ .text._RNvMNtCsakCY22H5bhg_4core6optionINtB2_6OptionNtNtB4_3fmt9AlignmentE9unwrap_orB4_ .text._RNvMNtCsakCY22H5bhg_4core6optionINtB2_6OptionNtNtNtB4_3fmt8builders10PadAdapterE6as_mutB4_ .text._RNvMNtCsakCY22H5bhg_4core6optionINtB2_6OptionNtNtNtB4_3fmt8builders10PadAdapterE6insertB4_ .text._RNvMNtCsakCY22H5bhg_4core6optionINtB2_6OptionQNtNtNtB4_3fmt8builders10PadAdapterE16unwrap_uncheckedB4_ .text._RNvMNtCsakCY22H5bhg_4core6optionINtB2_6OptionReE7is_someB4_ .text._RNvMNtCsakCY22H5bhg_4core6optionINtB2_6OptionRhE16unwrap_uncheckedB4_ .text._RNvMNtCsakCY22H5bhg_4core6optionINtB2_6OptionjE9unwrap_orB4_ .text._RNvMNtCsakCY22H5bhg_4core6optionINtB2_6OptionmE9unwrap_orB4_ .text._RNvMNtCsakCY22H5bhg_4core6optionINtB2_6OptiontE16unwrap_uncheckedB4_ .text._RNvMs0_NtCsakCY22H5bhg_4core6escapeINtB5_15EscapeIterInnerKja_NtB5_12MaybeEscapedE9printableB7_ .text._RNvMs1_NtCsakCY22H5bhg_4core6optionINtB5_6OptionRhE6clonedB7_ .text._RNvNtCsakCY22H5bhg_4core6option13expect_failed .text._RNvNtCsakCY22H5bhg_4core6option13unwrap_failed .text._RNvNtCsakCY22H5bhg_4core9panicking14panic_nounwind .text._RNvNtCsakCY22H5bhg_4core9panicking18panic_bounds_check .text._RNvNtCsakCY22H5bhg_4core9panicking18panic_nounwind_fmt .text._RNvNtCsakCY22H5bhg_4core9panicking19assert_failed_inner .text._RNvNtCsakCY22H5bhg_4core9panicking30panic_null_pointer_dereference .text._RNvNtCsakCY22H5bhg_4core9panicking36panic_misaligned_pointer_dereference .text._RNvNtCsakCY22H5bhg_4core9panicking5panic .text._RNvNtCsakCY22H5bhg_4core9panicking9panic_fmt .text._RNvNvNtCsakCY22H5bhg_4core9panicking18panic_nounwind_fmt7runtimeB5_ .text._RNvXs11_NtNtCsakCY22H5bhg_4core3cmp5implsmNtB8_3Ord3cmpBa_ .text._RNvXs2_NtCsakCY22H5bhg_4core6escapeINtB5_15EscapeIterInnerKja_NtB5_12MaybeEscapedENtNtB7_3fmt7Display3fmtB7_ .text._RNvXs7_NtNtCsakCY22H5bhg_4core3cmp5implsRShNtB7_9PartialEq2eqB9_ .text._RNvXsJ_NtCsakCY22H5bhg_4core6optionINtB5_6OptionINtNtNtB7_3num7nonzero7NonZerojEENtNtNtB7_3ops9try_trait3Try11from_outputB7_ .text._RNvXsJ_NtCsakCY22H5bhg_4core6optionINtB5_6OptionINtNtNtB7_3num7nonzero7NonZerojEENtNtNtB7_3ops9try_trait3Try6branchB7_ .text._RNvXsJ_NtCsakCY22H5bhg_4core6optionINtB5_6OptionRShENtNtNtB7_3ops9try_trait3Try6branchB7_ .text._RNvXsJ_NtCsakCY22H5bhg_4core6optionINtB5_6OptionRhENtNtNtB7_3ops9try_trait3Try6branchB7_ .text._RNvXsJ_NtCsakCY22H5bhg_4core6optionINtB5_6OptionmENtNtNtB7_3ops9try_trait3Try6branchB7_ .text._RNvXsK_NtCsakCY22H5bhg_4core6optionINtB5_6OptionINtNtNtB7_3num7nonzero7NonZerojEEINtNtNtB7_3ops9try_trait12FromResidualIBy_NtNtB7_7convert10InfallibleEE13from_residualB7_ .text._RNvXsK_NtCsakCY22H5bhg_4core6optionINtB5_6OptionTjjEEINtNtNtB7_3ops9try_trait12FromResidualIBy_NtNtB7_7convert10InfallibleEE13from_residualB7_ .text._RNvXsK_NtCsakCY22H5bhg_4core6optionINtB5_6OptionmEINtNtNtB7_3ops9try_trait12FromResidualIBy_NtNtB7_7convert10InfallibleEE13from_residualB7_ .text.memcmp .text.memset .text._RINvNtNtCsakCY22H5bhg_4core3ptr8metadata14from_raw_partshuECsljoIIpsrd6v_17compiler_builtins .text._RINvNtNtCsakCY22H5bhg_4core3ptr8metadata14from_raw_partsjuECsljoIIpsrd6v_17compiler_builtins .text._RINvNtNtCsakCY22H5bhg_4core3ptr8metadata18from_raw_parts_mutjuECsljoIIpsrd6v_17compiler_builtins .text._RINvNtNtCsakCY22H5bhg_4core3ptr8metadata8metadatahECsljoIIpsrd6v_17compiler_builtins .text._RINvNtNtCsakCY22H5bhg_4core3ptr8metadata8metadatajECsljoIIpsrd6v_17compiler_builtins .text._RINvMNtNtCsakCY22H5bhg_4core3ptr9const_ptrPh16with_metadata_ofhECsljoIIpsrd6v_17compiler_builtins .text._RINvMNtNtCsakCY22H5bhg_4core3ptr9const_ptrPh16with_metadata_ofjECsljoIIpsrd6v_17compiler_builtins .text._RNvNtCsljoIIpsrd6v_17compiler_builtins3mem6memcmp .text._RNvNtCsljoIIpsrd6v_17compiler_builtins3mem6memcpy .text._RNvNtCsljoIIpsrd6v_17compiler_builtins3mem6memset .text._RINvMNtNtCsakCY22H5bhg_4core3ptr7mut_ptrOh16with_metadata_ofjECsljoIIpsrd6v_17compiler_builtins .text._RNvNtNtNtCsljoIIpsrd6v_17compiler_builtins4math9libm_math7support9cold_path .text.memcpy 
   02     .rodata .eh_frame 
   03     .data .bss 
   04     
   05     .riscv.attributes 

There is no dynamic section in this file.

There are no relocations in this file.

The decoding of unwind sections for machine type RISC-V is not currently supported.

Symbol table '.symtab' contains 13057 entries:
   Num:    Value  Size Type    Bind   Vis      Ndx Name
     0: 00000000     0 NOTYPE  LOCAL  DEFAULT  UND 
     1: 00000000     0 FILE    LOCAL  DEFAULT  ABS 075khdv0ksfnh1ldltwicy3at
     2: 80202000     0 NOTYPE  LOCAL  DEFAULT    4 .L0 
     3: 80202000     0 NOTYPE  LOCAL  DEFAULT    4 .L0 
     4: 80202000     0 NOTYPE  LOCAL  DEFAULT    4 $x
     5: 80202000     0 NOTYPE  LOCAL  DEFAULT    4 .L0 
     6: 80202034     0 NOTYPE  LOCAL  DEFAULT    4 .L0 
     7: 8020205c     0 NOTYPE  LOCAL  DEFAULT    4 .L0 
     8: 80202060     0 NOTYPE  LOCAL  DEFAULT    4 .L0 
     9: 8021f1e0    16 OBJECT  LOCAL  DEFAULT  892 .Lanon.f22c8537b2368399e60d7c6c21e4dbad.3
    10: 80202074     0 NOTYPE  LOCAL  DEFAULT    4 .L0 
    11: 802020a8     0 NOTYPE  LOCAL  DEFAULT    4 .L0 
    12: 802020d0     0 NOTYPE  LOCAL  DEFAULT    4 .L0 
    13: 802020d8     0 NOTYPE  LOCAL  DEFAULT    4 .L0 
    14: 802020ec     0 NOTYPE  LOCAL  DEFAULT    4 .L0 
    15: 8021f200    16 OBJECT  LOCAL  DEFAULT  892 .Lanon.f22c8537b2368399e60d7c6c21e4dbad.5
    16: 80202120     0 NOTYPE  LOCAL  DEFAULT    4 .L0 
    17: 8021f1f0    16 OBJECT  LOCAL  DEFAULT  892 .Lanon.f22c8537b2368399e60d7c6c21e4dbad.4
    18: 802021f8     0 NOTYPE  LOCAL  DEFAULT    4 .L0 
    19: 802021f8     0 NOTYPE  LOCAL  DEFAULT    4 .L0 
    20: 802021f8     0 NOTYPE  LOCAL  DEFAULT    5 .L0 
    21: 802021f8     0 NOTYPE  LOCAL  DEFAULT    5 .L0 
    22: 802021f8     0 NOTYPE  LOCAL  DEFAULT    5 $x
    23: 802021f8     0 NOTYPE  LOCAL  DEFAULT    5 .L0 
    24: 80202220     0 NOTYPE  LOCAL  DEFAULT    5 .L0 
    25: 8020224c     0 NOTYPE  LOCAL  DEFAULT    5 .L0 
    26: 80202268     0 NOTYPE  LOCAL  DEFAULT    5 .L0 
    27: 8020228c     0 NOTYPE  LOCAL  DEFAULT    5 .L0 
    28: 802022fc     0 NOTYPE  LOCAL  DEFAULT    5 .L0 
    29: 8020230c     0 NOTYPE  LOCAL  DEFAULT    5 .L0 
    30: 8021db3c    43 OBJECT  LOCAL  DEFAULT  892 .Lanon.f22c8537b2368399e60d7c6c21e4dbad.0
    31: 8021db68    16 OBJECT  LOCAL  DEFAULT  892 .Lanon.f22c8537b2368399e60d7c6c21e4dbad.1
    32: 8021f220    16 OBJECT  LOCAL  DEFAULT  892 .Lanon.f22c8537b2368399e60d7c6c21e4dbad.8
    33: 80202354     0 NOTYPE  LOCAL  DEFAULT    5 .L0 
    34: 80202360     0 NOTYPE  LOCAL  DEFAULT    5 .L0 
    35: 80202370     0 NOTYPE  LOCAL  DEFAULT    5 .L0 
    36: 8021f230    16 OBJECT  LOCAL  DEFAULT  892 .Lanon.f22c8537b2368399e60d7c6c21e4dbad.9
    37: 80202440     0 NOTYPE  LOCAL  DEFAULT    5 .L0 
    38: 8021f210    16 OBJECT  LOCAL  DEFAULT  892 .Lanon.f22c8537b2368399e60d7c6c21e4dbad.7
    39: 80202454     0 NOTYPE  LOCAL  DEFAULT    5 .L0 
    40: 8021f240    16 OBJECT  LOCAL  DEFAULT  892 .Lanon.f22c8537b2368399e60d7c6c21e4dbad.10
    41: 80202484     0 NOTYPE  LOCAL  DEFAULT    5 .L0 
    42: 80202488     0 NOTYPE  LOCAL  DEFAULT    5 .L0 
    43: 80202498     0 NOTYPE  LOCAL  DEFAULT    5 .L0 
    44: 80202498     0 NOTYPE  LOCAL  DEFAULT    5 .L0 
    45: 80202498     0 NOTYPE  LOCAL  DEFAULT    6 .L0 
    46: 80202498     0 NOTYPE  LOCAL  DEFAULT    6 .L0 
    47: 80202498     0 NOTYPE  LOCAL  DEFAULT    6 $x
    48: 80202498     0 NOTYPE  LOCAL  DEFAULT    6 .L0 
    49: 8020251c     0 NOTYPE  LOCAL  DEFAULT    6 .L0 
    50: 8021db3c     0 NOTYPE  LOCAL  DEFAULT  892 $d
    51: 8021db68     0 NOTYPE  LOCAL  DEFAULT  892 $d
    52: 8021e1cb     0 NOTYPE  LOCAL  DEFAULT  892 $d
    53: 8021f1e0     0 NOTYPE  LOCAL  DEFAULT  892 $d
    54: 8021f1f0     0 NOTYPE  LOCAL  DEFAULT  892 $d
    55: 8021f200     0 NOTYPE  LOCAL  DEFAULT  892 $d
    56: 8021f210     0 NOTYPE  LOCAL  DEFAULT  892 $d
    57: 8021f220     0 NOTYPE  LOCAL  DEFAULT  892 $d
    58: 8021f230     0 NOTYPE  LOCAL  DEFAULT  892 $d
    59: 8021f240     0 NOTYPE  LOCAL  DEFAULT  892 $d
    60: 00000000     0 NOTYPE  LOCAL  DEFAULT  896 $d
    61: 00000000     0 NOTYPE  LOCAL  DEFAULT  897 .L0 
    62: 00000000     0 NOTYPE  LOCAL  DEFAULT  897 $d
    63: 00000000     0 NOTYPE  LOCAL  DEFAULT  904 .Lline_table_start0
    64: 000000b0     0 NOTYPE  LOCAL  DEFAULT  899 .L0 
    65: 00000000     0 NOTYPE  LOCAL  DEFAULT  899 .L0 
    66: 00000018     0 NOTYPE  LOCAL  DEFAULT  899 .L0 
    67: 00000038     0 NOTYPE  LOCAL  DEFAULT  899 .L0 
    68: 00000050     0 NOTYPE  LOCAL  DEFAULT  899 .L0 
    69: 00000070     0 NOTYPE  LOCAL  DEFAULT  899 .L0 
    70: 00000090     0 NOTYPE  LOCAL  DEFAULT  899 .L0 
    71: 00000000     0 NOTYPE  LOCAL  DEFAULT  898 $d
    72: 00000000     0 NOTYPE  LOCAL  DEFAULT  899 $d
    73: 000948bf     0 NOTYPE  LOCAL  DEFAULT  900 $d
    74: 0000005e     0 NOTYPE  LOCAL  DEFAULT  901 $d
    75: 00000000     0 NOTYPE  LOCAL  DEFAULT  ABS $d
    76: 00000000     0 NOTYPE  LOCAL  DEFAULT  903 .L0 
    77: 00000000     0 NOTYPE  LOCAL  DEFAULT  903 $d
    78: 00000000     0 NOTYPE  LOCAL  DEFAULT  904 $d
    79: 80202000   504 FUNC    LOCAL  HIDDEN     4 _RNvMNtCsg1amJnYx2jd_4main6kernelNtB2_6Kernel8initproc
    80: 802021f8   672 FUNC    LOCAL  HIDDEN     5 _RNvMNtCsg1amJnYx2jd_4main6kernelNtB2_6Kernel9allocproc
    81: 80202498   132 FUNC    LOCAL  HIDDEN     6 _RNvXs_NtCsg1amJnYx2jd_4main6kernelNtB4_6KernelNtNtCsakCY22H5bhg_4core7default7Default7defaultB6_
    82: 00000000     0 FILE    LOCAL  DEFAULT  ABS 0b78wqcnkjcuohvt9hhxebb23
    83: 8020251c    68 FUNC    LOCAL  DEFAULT    7 _RNvMNtCsevzKAMQQtOE_5alloc5allocNtB2_6Global10alloc_implCsg1amJnYx2jd_4main
    84: 8020251c     0 NOTYPE  LOCAL  DEFAULT    7 .L0 
    85: 8020251c     0 NOTYPE  LOCAL  DEFAULT    7 .L0 
    86: 8020251c     0 NOTYPE  LOCAL  DEFAULT    7 $x
    87: 8020251c     0 NOTYPE  LOCAL  DEFAULT    7 .L0 
    88: 80202560   284 FUNC    LOCAL  DEFAULT    8 _RNvMNtCsevzKAMQQtOE_5alloc5allocNtB2_6Global18alloc_impl_runtimeCsg1amJnYx2jd_4main
    89: 80202560     0 NOTYPE  LOCAL  DEFAULT    7 .L0 
    90: 80202560     0 NOTYPE  LOCAL  DEFAULT    8 .L0 
    91: 80202560     0 NOTYPE  LOCAL  DEFAULT    8 .L0 
    92: 80202560     0 NOTYPE  LOCAL  DEFAULT    8 $x
    93: 80202560     0 NOTYPE  LOCAL  DEFAULT    8 .L0 
    94: 802025c4     0 NOTYPE  LOCAL  DEFAULT    8 .L0 
    95: 802025d0     0 NOTYPE  LOCAL  DEFAULT    8 .L0 
    96: 802025e4     0 NOTYPE  LOCAL  DEFAULT    8 .L0 
    97: 802026d4    88 FUNC    LOCAL  DEFAULT   10 _RNvNtCsevzKAMQQtOE_5alloc5alloc5allocCsg1amJnYx2jd_4main
    98: 8020267c    88 FUNC    LOCAL  DEFAULT    9 _RNvNtCsevzKAMQQtOE_5alloc5alloc12alloc_zeroedCsg1amJnYx2jd_4main
    99: 80202614     0 NOTYPE  LOCAL  DEFAULT    8 .L0 
   100: 80202640     0 NOTYPE  LOCAL  DEFAULT    8 .L0 
   101: 8021f250    16 OBJECT  LOCAL  DEFAULT  892 .Lanon.933af8876c51e3e0d6a73df8bd58858c.1
   102: 80202668     0 NOTYPE  LOCAL  DEFAULT    8 .L0 
   103: 80202678     0 NOTYPE  LOCAL  DEFAULT    8 .L0 
   104: 8020267c     0 NOTYPE  LOCAL  DEFAULT    8 .L0 
   105: 8020267c     0 NOTYPE  LOCAL  DEFAULT    9 .L0 
   106: 8020267c     0 NOTYPE  LOCAL  DEFAULT    9 .L0 
   107: 8020267c     0 NOTYPE  LOCAL  DEFAULT    9 $x
   108: 8020267c     0 NOTYPE  LOCAL  DEFAULT    9 .L0 
   109: 802026d4     0 NOTYPE  LOCAL  DEFAULT    9 .L0 
   110: 802026d4     0 NOTYPE  LOCAL  DEFAULT   10 .L0 
   111: 802026d4     0 NOTYPE  LOCAL  DEFAULT   10 .L0 
   112: 802026d4     0 NOTYPE  LOCAL  DEFAULT   10 $x
   113: 802026d4     0 NOTYPE  LOCAL  DEFAULT   10 .L0 
   114: 8020272c     0 NOTYPE  LOCAL  DEFAULT   10 .L0 
   115: 8020272c     0 NOTYPE  LOCAL  DEFAULT   11 .L0 
   116: 8020272c     0 NOTYPE  LOCAL  DEFAULT   11 .L0 
   117: 8020272c     0 NOTYPE  LOCAL  DEFAULT   11 $x
   118: 8020272c     0 NOTYPE  LOCAL  DEFAULT   11 .L0 
   119: 80202758     0 NOTYPE  LOCAL  DEFAULT   11 .L0 
   120: 8021db78     0 NOTYPE  LOCAL  DEFAULT  892 $d
   121: 8021f250     0 NOTYPE  LOCAL  DEFAULT  892 $d
   122: 000001cf     0 NOTYPE  LOCAL  DEFAULT  896 $d
   123: 00000cc5     0 NOTYPE  LOCAL  DEFAULT  897 .L0 
   124: 00000cc5     0 NOTYPE  LOCAL  DEFAULT  897 $d
   125: 00000259     0 NOTYPE  LOCAL  DEFAULT  904 .Lline_table_start0
   126: 000000e8     0 NOTYPE  LOCAL  DEFAULT  899 .L0 
   127: 000000d0     0 NOTYPE  LOCAL  DEFAULT  899 .L0 
   128: 00000038     0 NOTYPE  LOCAL  DEFAULT  898 $d
   129: 000000d0     0 NOTYPE  LOCAL  DEFAULT  899 $d
   130: 000948bf     0 NOTYPE  LOCAL  DEFAULT  900 $d
   131: 0000005e     0 NOTYPE  LOCAL  DEFAULT  901 $d
   132: 00000000     0 NOTYPE  LOCAL  DEFAULT  ABS $d
   133: 00000070     0 NOTYPE  LOCAL  DEFAULT  903 .L0 
   134: 00000070     0 NOTYPE  LOCAL  DEFAULT  903 $d
   135: 00000259     0 NOTYPE  LOCAL  DEFAULT  904 $d
   136: 8020272c    44 FUNC    LOCAL  HIDDEN    11 _RNvXs_NtCsevzKAMQQtOE_5alloc5allocNtB4_6GlobalNtNtCsakCY22H5bhg_4core5alloc9Allocator8allocateCsg1amJnYx2jd_4main
   137: 00000000     0 FILE    LOCAL  DEFAULT  ABS 0dua5jtnkmrmfgbz8bxr76rmx
   138: 80202758     0 NOTYPE  LOCAL  DEFAULT   12 .L0 
   139: 80202758     0 NOTYPE  LOCAL  DEFAULT   12 .L0 
   140: 80202758     0 NOTYPE  LOCAL  DEFAULT   12 $x
   141: 80202758     0 NOTYPE  LOCAL  DEFAULT   12 .L0 
   142: 8020277c     0 NOTYPE  LOCAL  DEFAULT   12 .L0 
   143: 8020277c     0 NOTYPE  LOCAL  DEFAULT   13 .L0 
   144: 8020277c     0 NOTYPE  LOCAL  DEFAULT   13 .L0 
   145: 8020277c     0 NOTYPE  LOCAL  DEFAULT   13 $x
   146: 8020277c     0 NOTYPE  LOCAL  DEFAULT   13 .L0 
   147: 80202794     0 NOTYPE  LOCAL  DEFAULT   13 .L0 
   148: 802027b0     0 NOTYPE  LOCAL  DEFAULT   13 .L0 
   149: 802027c8     0 NOTYPE  LOCAL  DEFAULT   13 .L0 
   150: 8021f260    16 OBJECT  LOCAL  DEFAULT  892 .Lanon.c039b3a43ab39ccd6f677d73fcba8424.1
   151: 80202818     0 NOTYPE  LOCAL  DEFAULT   13 .L0 
   152: 80202828     0 NOTYPE  LOCAL  DEFAULT   13 .L0 
   153: 80202828     0 NOTYPE  LOCAL  DEFAULT   14 .L0 
   154: 80202828     0 NOTYPE  LOCAL  DEFAULT   14 .L0 
   155: 80202828     0 NOTYPE  LOCAL  DEFAULT   14 $x
   156: 80202828     0 NOTYPE  LOCAL  DEFAULT   14 .L0 
   157: 8020283c     0 NOTYPE  LOCAL  DEFAULT   14 .L0 
   158: 8020283c     0 NOTYPE  LOCAL  DEFAULT   15 .L0 
   159: 8020283c     0 NOTYPE  LOCAL  DEFAULT   15 .L0 
   160: 8020283c     0 NOTYPE  LOCAL  DEFAULT   15 $x
   161: 8020283c     0 NOTYPE  LOCAL  DEFAULT   15 .L0 
   162: 80202854     0 NOTYPE  LOCAL  DEFAULT   15 .L0 
   163: 80202860     0 NOTYPE  LOCAL  DEFAULT   15 .L0 
   164: 8020289c     0 NOTYPE  LOCAL  DEFAULT   15 .L0 
   165: 802028c4     0 NOTYPE  LOCAL  DEFAULT   15 .L0 
   166: 802028e4     0 NOTYPE  LOCAL  DEFAULT   15 .L0 
   167: 8021e672     0 NOTYPE  LOCAL  DEFAULT  892 $d
   168: 8021f260     0 NOTYPE  LOCAL  DEFAULT  892 $d
   169: 0000033c     0 NOTYPE  LOCAL  DEFAULT  896 $d
   170: 000011af     0 NOTYPE  LOCAL  DEFAULT  897 .L0 
   171: 000011af     0 NOTYPE  LOCAL  DEFAULT  897 $d
   172: 000003d7     0 NOTYPE  LOCAL  DEFAULT  904 .Lline_table_start0
   173: 00000118     0 NOTYPE  LOCAL  DEFAULT  899 .L0 
   174: 00000078     0 NOTYPE  LOCAL  DEFAULT  898 $d
   175: 00000118     0 NOTYPE  LOCAL  DEFAULT  899 $d
   176: 000948bf     0 NOTYPE  LOCAL  DEFAULT  900 $d
   177: 0000005e     0 NOTYPE  LOCAL  DEFAULT  901 $d
   178: 00000000     0 NOTYPE  LOCAL  DEFAULT  ABS $d
   179: 00000114     0 NOTYPE  LOCAL  DEFAULT  903 .L0 
   180: 00000114     0 NOTYPE  LOCAL  DEFAULT  903 $d
   181: 000003d7     0 NOTYPE  LOCAL  DEFAULT  904 $d
   182: 8020283c   168 FUNC    LOCAL  HIDDEN    15 _RNvXs2R_NtNtCsakCY22H5bhg_4core5slice4iterINtB6_7IterMutNtNtCsg1amJnYx2jd_4main7process7ProcessENtNtNtNtBa_4iter6traits8iterator8Iterator4nextBW_
   183: 80202758    36 FUNC    LOCAL  HIDDEN    12 _RINvYINtNtNtCsakCY22H5bhg_4core5slice4iter4IterhENtNtNtNtBa_4iter6traits8iterator8Iterator6copiedhECsg1amJnYx2jd_4main
   184: 8020277c   172 FUNC    LOCAL  HIDDEN    13 _RNvMsa_NtNtCsakCY22H5bhg_4core5slice4iterINtB5_7IterMutNtNtCsg1amJnYx2jd_4main7process7ProcessE3newBV_
   185: 80202828    20 FUNC    LOCAL  HIDDEN    14 _RNvXNtNtNtCsakCY22H5bhg_4core4iter6traits7collectINtNtNtB8_5slice4iter7IterMutNtNtCsg1amJnYx2jd_4main7process7ProcessENtB2_12IntoIterator9into_iterB1i_
   186: 00000000     0 FILE    LOCAL  DEFAULT  ABS 0ft0kib40wnwfbkb2xosfxsci
   187: 802028e4   592 FUNC    LOCAL  DEFAULT   16 _RNvMs2_NtNtCsakCY22H5bhg_4core4sync6atomicINtB5_6AtomicbE16compare_exchangeCsg1amJnYx2jd_4main
   188: 802028e4     0 NOTYPE  LOCAL  DEFAULT   16 .L0 
   189: 802028e4     0 NOTYPE  LOCAL  DEFAULT   16 .L0 
   190: 802028e4     0 NOTYPE  LOCAL  DEFAULT   16 $x
   191: 802028e4     0 NOTYPE  LOCAL  DEFAULT   16 .L0 
   192: 80202958     0 NOTYPE  LOCAL  DEFAULT   16 .L0 
   193: 80202968     0 NOTYPE  LOCAL  DEFAULT   16 .L0 
   194: 8021f270    61 OBJECT  LOCAL  DEFAULT  892 .Lanon.443914229099c9be9eabcfe7c67e0006.0
   195: 8021f2b0    16 OBJECT  LOCAL  DEFAULT  892 .Lanon.443914229099c9be9eabcfe7c67e0006.2
   196: 8021f2c0    52 OBJECT  LOCAL  DEFAULT  892 .Lanon.443914229099c9be9eabcfe7c67e0006.3
   197: 8021f2f4    16 OBJECT  LOCAL  DEFAULT  892 .Lanon.443914229099c9be9eabcfe7c67e0006.4
   198: 80202aac     0 NOTYPE  LOCAL  DEFAULT   16 .L0 
   199: 80202b98   120 FUNC    LOCAL  DEFAULT   19 _RNvMs2_NtNtCsakCY22H5bhg_4core4sync6atomicINtB5_6AtomicbE4swapCsg1amJnYx2jd_4main
   200: 80202c40    56 FUNC    LOCAL  DEFAULT   21 _RNvMs2_NtNtCsakCY22H5bhg_4core4sync6atomicINtB5_6AtomicbE8fetch_orCsg1amJnYx2jd_4main
   201: 80202ae4     0 NOTYPE  LOCAL  DEFAULT   16 .L0 
   202: 80202b20     0 NOTYPE  LOCAL  DEFAULT   16 .L0 
   203: 80202b34     0 NOTYPE  LOCAL  DEFAULT   16 .L0 
   204: 80202b34     0 NOTYPE  LOCAL  DEFAULT   17 .L0 
   205: 80202b34     0 NOTYPE  LOCAL  DEFAULT   17 .L0 
   206: 80202b34     0 NOTYPE  LOCAL  DEFAULT   17 $x
   207: 80202b34     0 NOTYPE  LOCAL  DEFAULT   17 .L0 
   208: 80202b64     0 NOTYPE  LOCAL  DEFAULT   17 .L0 
   209: 80202b64     0 NOTYPE  LOCAL  DEFAULT   18 .L0 
   210: 80202b64     0 NOTYPE  LOCAL  DEFAULT   18 .L0 
   211: 80202b64     0 NOTYPE  LOCAL  DEFAULT   18 $x
   212: 80202b64     0 NOTYPE  LOCAL  DEFAULT   18 .L0 
   213: 80202b98     0 NOTYPE  LOCAL  DEFAULT   18 .L0 
   214: 80202b98     0 NOTYPE  LOCAL  DEFAULT   19 .L0 
   215: 80202b98     0 NOTYPE  LOCAL  DEFAULT   19 .L0 
   216: 80202b98     0 NOTYPE  LOCAL  DEFAULT   19 $x
   217: 80202b98     0 NOTYPE  LOCAL  DEFAULT   19 .L0 
   218: 80202c78    56 FUNC    LOCAL  DEFAULT   22 _RNvMs2_NtNtCsakCY22H5bhg_4core4sync6atomicINtB5_6AtomicbE9fetch_andCsg1amJnYx2jd_4main
   219: 80202c10     0 NOTYPE  LOCAL  DEFAULT   19 .L0 
   220: 80202c10     0 NOTYPE  LOCAL  DEFAULT   20 .L0 
   221: 80202c10     0 NOTYPE  LOCAL  DEFAULT   20 .L0 
   222: 80202c10     0 NOTYPE  LOCAL  DEFAULT   20 $x
   223: 80202c10     0 NOTYPE  LOCAL  DEFAULT   20 .L0 
   224: 80202c40     0 NOTYPE  LOCAL  DEFAULT   20 .L0 
   225: 80202c40     0 NOTYPE  LOCAL  DEFAULT   21 .L0 
   226: 80202c40     0 NOTYPE  LOCAL  DEFAULT   21 .L0 
   227: 80202c40     0 NOTYPE  LOCAL  DEFAULT   21 $x
   228: 80202c40     0 NOTYPE  LOCAL  DEFAULT   21 .L0 
   229: 80202c78     0 NOTYPE  LOCAL  DEFAULT   21 .L0 
   230: 80202c78     0 NOTYPE  LOCAL  DEFAULT   22 .L0 
   231: 80202c78     0 NOTYPE  LOCAL  DEFAULT   22 .L0 
   232: 80202c78     0 NOTYPE  LOCAL  DEFAULT   22 $x
   233: 80202c78     0 NOTYPE  LOCAL  DEFAULT   22 .L0 
   234: 80202cb0     0 NOTYPE  LOCAL  DEFAULT   22 .L0 
   235: 80202cb0     0 NOTYPE  LOCAL  DEFAULT   23 .L0 
   236: 80202cb0     0 NOTYPE  LOCAL  DEFAULT   23 .L0 
   237: 80202cb0     0 NOTYPE  LOCAL  DEFAULT   23 $x
   238: 80202cb0     0 NOTYPE  LOCAL  DEFAULT   23 .L0 
   239: 80202cb8     0 NOTYPE  LOCAL  DEFAULT   23 .L0 
   240: 80202ccc     0 NOTYPE  LOCAL  DEFAULT   23 .L0 
   241: 8021f270     0 NOTYPE  LOCAL  DEFAULT  892 $d
   242: 8021eb6a     0 NOTYPE  LOCAL  DEFAULT  892 $d
   243: 8021f2b0     0 NOTYPE  LOCAL  DEFAULT  892 $d
   244: 8021f2c0     0 NOTYPE  LOCAL  DEFAULT  892 $d
   245: 8021f2f4     0 NOTYPE  LOCAL  DEFAULT  892 $d
   246: 000004cb     0 NOTYPE  LOCAL  DEFAULT  896 $d
   247: 00001a9c     0 NOTYPE  LOCAL  DEFAULT  897 .L0 
   248: 00001a9c     0 NOTYPE  LOCAL  DEFAULT  897 $d
   249: 0000062d     0 NOTYPE  LOCAL  DEFAULT  904 .Lline_table_start0
   250: 00000158     0 NOTYPE  LOCAL  DEFAULT  899 .L0 
   251: 00000140     0 NOTYPE  LOCAL  DEFAULT  899 .L0 
   252: 000000b0     0 NOTYPE  LOCAL  DEFAULT  898 $d
   253: 00000140     0 NOTYPE  LOCAL  DEFAULT  899 $d
   254: 000948bf     0 NOTYPE  LOCAL  DEFAULT  900 $d
   255: 0000005e     0 NOTYPE  LOCAL  DEFAULT  901 $d
   256: 00000000     0 NOTYPE  LOCAL  DEFAULT  ABS $d
   257: 00000194     0 NOTYPE  LOCAL  DEFAULT  903 .L0 
   258: 00000194     0 NOTYPE  LOCAL  DEFAULT  903 $d
   259: 0000062d     0 NOTYPE  LOCAL  DEFAULT  904 $d
   260: 80202b34    48 FUNC    LOCAL  HIDDEN    17 _RNvMs2_NtNtCsakCY22H5bhg_4core4sync6atomicINtB5_6AtomicbE21compare_exchange_weakCsg1amJnYx2jd_4main
   261: 80202b64    52 FUNC    LOCAL  HIDDEN    18 _RNvMs2_NtNtCsakCY22H5bhg_4core4sync6atomicINtB5_6AtomicbE4loadCsg1amJnYx2jd_4main
   262: 80202c10    48 FUNC    LOCAL  HIDDEN    20 _RNvMs2_NtNtCsakCY22H5bhg_4core4sync6atomicINtB5_6AtomicbE5storeCsg1amJnYx2jd_4main
   263: 80202cb0    28 FUNC    LOCAL  HIDDEN    23 _RNvNtNtCsakCY22H5bhg_4core4sync6atomic14spin_loop_hintCsg1amJnYx2jd_4main
   264: 00000000     0 FILE    LOCAL  DEFAULT  ABS 0i8lk4xdmgkrkjtkp86dlxdkw
   265: 80202ccc     0 NOTYPE  LOCAL  DEFAULT   24 .L0 
   266: 80202ccc     0 NOTYPE  LOCAL  DEFAULT   24 .L0 
   267: 80202ccc     0 NOTYPE  LOCAL  DEFAULT   24 $x
   268: 80202ccc     0 NOTYPE  LOCAL  DEFAULT   24 .L0 
   269: 80202ce0     0 NOTYPE  LOCAL  DEFAULT   24 .L0 
   270: 80202ce0     0 NOTYPE  LOCAL  DEFAULT   25 .L0 
   271: 80202ce0     0 NOTYPE  LOCAL  DEFAULT   25 .L0 
   272: 80202ce0     0 NOTYPE  LOCAL  DEFAULT   25 $x
   273: 80202ce0     0 NOTYPE  LOCAL  DEFAULT   25 .L0 
   274: 80202cfc     0 NOTYPE  LOCAL  DEFAULT   25 .L0 
   275: 80202cfc     0 NOTYPE  LOCAL  DEFAULT   26 .L0 
   276: 80202cfc     0 NOTYPE  LOCAL  DEFAULT   26 .L0 
   277: 80202cfc     0 NOTYPE  LOCAL  DEFAULT   26 $x
   278: 80202cfc     0 NOTYPE  LOCAL  DEFAULT   26 .L0 
   279: 80202d10     0 NOTYPE  LOCAL  DEFAULT   26 .L0 
   280: 80202d10     0 NOTYPE  LOCAL  DEFAULT   27 .L0 
   281: 80202d10     0 NOTYPE  LOCAL  DEFAULT   27 .L0 
   282: 80202d10     0 NOTYPE  LOCAL  DEFAULT   27 $x
   283: 80202d10     0 NOTYPE  LOCAL  DEFAULT   27 .L0 
   284: 80202d24     0 NOTYPE  LOCAL  DEFAULT   27 .L0 
   285: 80202d24     0 NOTYPE  LOCAL  DEFAULT   28 .L0 
   286: 80202d24     0 NOTYPE  LOCAL  DEFAULT   28 .L0 
   287: 80202d24     0 NOTYPE  LOCAL  DEFAULT   28 $x
   288: 80202d24     0 NOTYPE  LOCAL  DEFAULT   28 .L0 
   289: 80202d34     0 NOTYPE  LOCAL  DEFAULT   28 .L0 
   290: 80202d34     0 NOTYPE  LOCAL  DEFAULT   29 .L0 
   291: 80202d34     0 NOTYPE  LOCAL  DEFAULT   29 .L0 
   292: 80202d34     0 NOTYPE  LOCAL  DEFAULT   29 $x
   293: 80202d34     0 NOTYPE  LOCAL  DEFAULT   29 .L0 
   294: 80202d48     0 NOTYPE  LOCAL  DEFAULT   29 .L0 
   295: 80202d48     0 NOTYPE  LOCAL  DEFAULT   30 .L0 
   296: 80202d48     0 NOTYPE  LOCAL  DEFAULT   30 .L0 
   297: 80202d48     0 NOTYPE  LOCAL  DEFAULT   30 $x
   298: 80202d48     0 NOTYPE  LOCAL  DEFAULT   30 .L0 
   299: 80202d58     0 NOTYPE  LOCAL  DEFAULT   30 .L0 
   300: 80202d58     0 NOTYPE  LOCAL  DEFAULT   31 .L0 
   301: 80202d58     0 NOTYPE  LOCAL  DEFAULT   31 .L0 
   302: 80202d58     0 NOTYPE  LOCAL  DEFAULT   31 $x
   303: 80202d58     0 NOTYPE  LOCAL  DEFAULT   31 .L0 
   304: 80202d84     0 NOTYPE  LOCAL  DEFAULT   31 .L0 
   305: 000005fe     0 NOTYPE  LOCAL  DEFAULT  896 $d
   306: 00001f34     0 NOTYPE  LOCAL  DEFAULT  897 .L0 
   307: 00001f34     0 NOTYPE  LOCAL  DEFAULT  897 $d
   308: 00000903     0 NOTYPE  LOCAL  DEFAULT  904 .Lline_table_start0
   309: 000001a0     0 NOTYPE  LOCAL  DEFAULT  899 .L0 
   310: 00000108     0 NOTYPE  LOCAL  DEFAULT  898 $d
   311: 000001a0     0 NOTYPE  LOCAL  DEFAULT  899 $d
   312: 000948bf     0 NOTYPE  LOCAL  DEFAULT  900 $d
   313: 0000005e     0 NOTYPE  LOCAL  DEFAULT  901 $d
   314: 00000000     0 NOTYPE  LOCAL  DEFAULT  ABS $d
   315: 00000290     0 NOTYPE  LOCAL  DEFAULT  903 .L0 
   316: 00000290     0 NOTYPE  LOCAL  DEFAULT  903 $d
   317: 00000903     0 NOTYPE  LOCAL  DEFAULT  904 $d
   318: 80202d34    20 FUNC    LOCAL  HIDDEN    29 _RNvMs1_NtNtCsakCY22H5bhg_4core3ptr8non_nullINtB5_7NonNullSNtNtCsg1amJnYx2jd_4main7process7ProcessE8from_mutBY_
   319: 80202ce0    28 FUNC    LOCAL  HIDDEN    25 _RINvMs1_NtNtCsakCY22H5bhg_4core3ptr8non_nullINtB6_7NonNullSNtNtCsg1amJnYx2jd_4main7process7ProcessE4castBV_EBZ_
   320: 80202d58    44 FUNC    LOCAL  HIDDEN    31 _RNvXsd_NtNtCsakCY22H5bhg_4core3ptr8non_nullINtB5_7NonNullNtNtCsg1amJnYx2jd_4main7process7ProcessENtNtB9_3cmp9PartialEq2eqBX_
   321: 80202ccc    20 FUNC    LOCAL  HIDDEN    24 _RINvMs1_NtNtCsakCY22H5bhg_4core3ptr8non_nullINtB6_7NonNullRNtNtNtBa_5panic10panic_info9PanicInfoE4castuECsg1amJnYx2jd_4main
   322: 80202cfc    20 FUNC    LOCAL  HIDDEN    26 _RINvMs1_NtNtCsakCY22H5bhg_4core3ptr8non_nullINtB6_7NonNullhE4castNtNtCsg1amJnYx2jd_4main7process7ProcessEB15_
   323: 80202d10    20 FUNC    LOCAL  HIDDEN    27 _RINvMs1_NtNtCsakCY22H5bhg_4core3ptr8non_nullINtB6_7NonNulllE4castuECsg1amJnYx2jd_4main
   324: 80202d24    16 FUNC    LOCAL  HIDDEN    28 _RNvMs1_NtNtCsakCY22H5bhg_4core3ptr8non_nullINtB5_7NonNullRNtNtNtB9_5panic10panic_info9PanicInfoE8from_refCsg1amJnYx2jd_4main
   325: 80202d48    16 FUNC    LOCAL  HIDDEN    30 _RNvMs1_NtNtCsakCY22H5bhg_4core3ptr8non_nullINtB5_7NonNulllE8from_refCsg1amJnYx2jd_4main
   326: 00000000     0 FILE    LOCAL  DEFAULT  ABS 0ih2csoomtv0z76f4ievjnjqa
   327: 80202d84     0 NOTYPE  LOCAL  DEFAULT   32 .L0 
   328: 80202d84     0 NOTYPE  LOCAL  DEFAULT   32 .L0 
   329: 80202d84     0 NOTYPE  LOCAL  DEFAULT   32 $x
   330: 80202d84     0 NOTYPE  LOCAL  DEFAULT   32 .L0 
   331: 80202da8     0 NOTYPE  LOCAL  DEFAULT   32 .L0 
   332: 80202da8     0 NOTYPE  LOCAL  DEFAULT   33 .L0 
   333: 80202da8     0 NOTYPE  LOCAL  DEFAULT   33 .L0 
   334: 80202da8     0 NOTYPE  LOCAL  DEFAULT   33 $x
   335: 80202da8     0 NOTYPE  LOCAL  DEFAULT   33 .L0 
   336: 80202dcc    36 FUNC    LOCAL  DEFAULT   34 _RNvMNtNtCsakCY22H5bhg_4core3ptr9const_ptrPNtNtCsg1amJnYx2jd_4main7process7Process7is_nullBI_
   337: 80202dcc     0 NOTYPE  LOCAL  DEFAULT   33 .L0 
   338: 80202dcc     0 NOTYPE  LOCAL  DEFAULT   34 .L0 
   339: 80202dcc     0 NOTYPE  LOCAL  DEFAULT   34 .L0 
   340: 80202dcc     0 NOTYPE  LOCAL  DEFAULT   34 $x
   341: 80202dcc     0 NOTYPE  LOCAL  DEFAULT   34 .L0 
   342: 80202ddc     0 NOTYPE  LOCAL  DEFAULT   34 .L0 
   343: 80202df0     0 NOTYPE  LOCAL  DEFAULT   34 .L0 
   344: 80202df0     0 NOTYPE  LOCAL  DEFAULT   35 .L0 
   345: 80202df0     0 NOTYPE  LOCAL  DEFAULT   35 .L0 
   346: 80202df0     0 NOTYPE  LOCAL  DEFAULT   35 $x
   347: 80202df0     0 NOTYPE  LOCAL  DEFAULT   35 .L0 
   348: 80202e00     0 NOTYPE  LOCAL  DEFAULT   35 .L0 
   349: 80202e14     0 NOTYPE  LOCAL  DEFAULT   35 .L0 
   350: 0000073a     0 NOTYPE  LOCAL  DEFAULT  896 $d
   351: 00002b01     0 NOTYPE  LOCAL  DEFAULT  897 .L0 
   352: 00002b01     0 NOTYPE  LOCAL  DEFAULT  897 $d
   353: 00000a4e     0 NOTYPE  LOCAL  DEFAULT  904 .Lline_table_start0
   354: 000001e8     0 NOTYPE  LOCAL  DEFAULT  899 .L0 
   355: 00000160     0 NOTYPE  LOCAL  DEFAULT  898 $d
   356: 000001e8     0 NOTYPE  LOCAL  DEFAULT  899 $d
   357: 000948bf     0 NOTYPE  LOCAL  DEFAULT  900 $d
   358: 0000005e     0 NOTYPE  LOCAL  DEFAULT  901 $d
   359: 00000000     0 NOTYPE  LOCAL  DEFAULT  ABS $d
   360: 00000364     0 NOTYPE  LOCAL  DEFAULT  903 .L0 
   361: 00000364     0 NOTYPE  LOCAL  DEFAULT  903 $d
   362: 00000a4e     0 NOTYPE  LOCAL  DEFAULT  904 $d
   363: 80202d84    36 FUNC    LOCAL  HIDDEN    32 _RNvMNtCsakCY22H5bhg_4core5sliceSNtNtCsg1amJnYx2jd_4main7process7Process8iter_mutBy_
   364: 80202da8    36 FUNC    LOCAL  HIDDEN    33 _RNvMNtNtCsakCY22H5bhg_4core3ptr7mut_ptrONtNtCsg1amJnYx2jd_4main7process7Process7is_nullBG_
   365: 80202df0    36 FUNC    LOCAL  HIDDEN    35 _RNvXs4_NtNtCsakCY22H5bhg_4core3ptr7mut_ptrONtNtCsg1amJnYx2jd_4main7process7ProcessNtNtB9_7default7Default7defaultBJ_
   366: 00000000     0 FILE    LOCAL  DEFAULT  ABS 1pinvrismpzjrzxkctc1cto74
   367: 80202e14     0 NOTYPE  LOCAL  DEFAULT   36 .L0 
   368: 80202e14     0 NOTYPE  LOCAL  DEFAULT   36 .L0 
   369: 80202e14     0 NOTYPE  LOCAL  DEFAULT   36 $x
   370: 80202e14     0 NOTYPE  LOCAL  DEFAULT   36 .L0 
   371: 80202e34     0 NOTYPE  LOCAL  DEFAULT   36 .L0 
   372: 8021f304    16 OBJECT  LOCAL  DEFAULT  892 .Lanon.31ef5aa5a282ed7b34df20e3999c77d5.1
   373: 80202e78     0 NOTYPE  LOCAL  DEFAULT   36 .L0 
   374: 80202e78     0 NOTYPE  LOCAL  DEFAULT   37 .L0 
   375: 80202e78     0 NOTYPE  LOCAL  DEFAULT   37 .L0 
   376: 80202e78     0 NOTYPE  LOCAL  DEFAULT   37 $x
   377: 80202e78     0 NOTYPE  LOCAL  DEFAULT   37 .L0 
   378: 80202eac     0 NOTYPE  LOCAL  DEFAULT   37 .L0 
   379: 8021e70c     0 NOTYPE  LOCAL  DEFAULT  892 $d
   380: 8021f304     0 NOTYPE  LOCAL  DEFAULT  892 $d
   381: 0000086f     0 NOTYPE  LOCAL  DEFAULT  896 $d
   382: 00003152     0 NOTYPE  LOCAL  DEFAULT  897 .L0 
   383: 00003152     0 NOTYPE  LOCAL  DEFAULT  897 $d
   384: 00000bb6     0 NOTYPE  LOCAL  DEFAULT  904 .Lline_table_start0
   385: 00000210     0 NOTYPE  LOCAL  DEFAULT  899 .L0 
   386: 00000198     0 NOTYPE  LOCAL  DEFAULT  898 $d
   387: 00000210     0 NOTYPE  LOCAL  DEFAULT  899 $d
   388: 000948bf     0 NOTYPE  LOCAL  DEFAULT  900 $d
   389: 0000005e     0 NOTYPE  LOCAL  DEFAULT  901 $d
   390: 00000000     0 NOTYPE  LOCAL  DEFAULT  ABS $d
   391: 000003e8     0 NOTYPE  LOCAL  DEFAULT  903 .L0 
   392: 000003e8     0 NOTYPE  LOCAL  DEFAULT  903 $d
   393: 00000bb6     0 NOTYPE  LOCAL  DEFAULT  904 $d
   394: 80202e14   100 FUNC    LOCAL  HIDDEN    36 _RNvXsH_NtNtCsakCY22H5bhg_4core4iter5rangemNtB5_4Step17forward_uncheckedCsg1amJnYx2jd_4main
   395: 80202e78    52 FUNC    LOCAL  HIDDEN    37 _RNvXsI_NtNtCsakCY22H5bhg_4core4iter5rangelNtB5_4Step17forward_uncheckedCsg1amJnYx2jd_4main
   396: 00000000     0 FILE    LOCAL  DEFAULT  ABS 1ssje58wd2pn7pk1lrhzljlou
   397: 80202eac     0 NOTYPE  LOCAL  DEFAULT   38 .L0 
   398: 80202eac     0 NOTYPE  LOCAL  DEFAULT   38 .L0 
   399: 80202eac     0 NOTYPE  LOCAL  DEFAULT   38 $x
   400: 80202eac     0 NOTYPE  LOCAL  DEFAULT   38 .L0 
   401: 000008f1     0 NOTYPE  LOCAL  DEFAULT  896 $d
   402: 0000326f     0 NOTYPE  LOCAL  DEFAULT  897 .L0 
   403: 0000326f     0 NOTYPE  LOCAL  DEFAULT  897 $d
   404: 00000cd2     0 NOTYPE  LOCAL  DEFAULT  904 .Lline_table_start0
   405: 000001c0     0 NOTYPE  LOCAL  DEFAULT  898 $d
   406: 000948bf     0 NOTYPE  LOCAL  DEFAULT  900 $d
   407: 0000005e     0 NOTYPE  LOCAL  DEFAULT  901 $d
   408: 00000000     0 NOTYPE  LOCAL  DEFAULT  ABS $d
   409: 00000434     0 NOTYPE  LOCAL  DEFAULT  903 .L0 
   410: 00000434     0 NOTYPE  LOCAL  DEFAULT  903 $d
   411: 00000cd2     0 NOTYPE  LOCAL  DEFAULT  904 $d
   412: 80202eac    32 FUNC    LOCAL  HIDDEN    38 _RNvXsa_NtCsj4ivliY6BXz_4spin5mutexINtB5_10MutexGuardINtCsigOxFuwXbws_22buddy_system_allocator4HeapKj20_EENtNtNtCsakCY22H5bhg_4core3ops5deref8DerefMut9deref_mutCsg1amJnYx2jd_4main
   413: 00000000     0 FILE    LOCAL  DEFAULT  ABS 22uwbstm2vtw8dkspxy77jhpv
   414: 0000098a     0 NOTYPE  LOCAL  DEFAULT  896 $d
   415: 00003465     0 NOTYPE  LOCAL  DEFAULT  897 .L0 
   416: 00003465     0 NOTYPE  LOCAL  DEFAULT  897 $d
   417: 00000d65     0 NOTYPE  LOCAL  DEFAULT  904 .Lline_table_start0
   418: 000001e0     0 NOTYPE  LOCAL  DEFAULT  898 $d
   419: 000948bf     0 NOTYPE  LOCAL  DEFAULT  900 $d
   420: 0000005e     0 NOTYPE  LOCAL  DEFAULT  901 $d
   421: 00000000     0 NOTYPE  LOCAL  DEFAULT  ABS $d
   422: 00000464     0 NOTYPE  LOCAL  DEFAULT  903 .L0 
   423: 00000464     0 NOTYPE  LOCAL  DEFAULT  903 $d
   424: 00000d65     0 NOTYPE  LOCAL  DEFAULT  904 $d
   425: 00000000     0 FILE    LOCAL  DEFAULT  ABS 243i69ylzl33wa70sma23xn4x
   426: 80202ecc     0 NOTYPE  LOCAL  DEFAULT   39 .L0 
   427: 80202ecc     0 NOTYPE  LOCAL  DEFAULT   39 .L0 
   428: 80202ecc     0 NOTYPE  LOCAL  DEFAULT   39 $x
   429: 80202ecc     0 NOTYPE  LOCAL  DEFAULT   39 .L0 
   430: 000009b8     0 NOTYPE  LOCAL  DEFAULT  896 $d
   431: 000034ae     0 NOTYPE  LOCAL  DEFAULT  897 .L0 
   432: 000034ae     0 NOTYPE  LOCAL  DEFAULT  897 $d
   433: 00000e11     0 NOTYPE  LOCAL  DEFAULT  904 .Lline_table_start0
   434: 00000200     0 NOTYPE  LOCAL  DEFAULT  898 $d
   435: 000948bf     0 NOTYPE  LOCAL  DEFAULT  900 $d
   436: 0000005e     0 NOTYPE  LOCAL  DEFAULT  901 $d
   437: 00000000     0 NOTYPE  LOCAL  DEFAULT  ABS $d
   438: 00000488     0 NOTYPE  LOCAL  DEFAULT  903 .L0 
   439: 00000488     0 NOTYPE  LOCAL  DEFAULT  903 $d
   440: 00000e11     0 NOTYPE  LOCAL  DEFAULT  904 $d
   441: 80202ecc    28 FUNC    LOCAL  HIDDEN    39 _RNvNvMNtNtCsakCY22H5bhg_4core3ptr9const_ptrPp7is_null7runtimeCsg1amJnYx2jd_4main
   442: 00000000     0 FILE    LOCAL  DEFAULT  ABS 2a0q6rmf0qo5l08mg9xtnq4ul
   443: 80202ee8     0 NOTYPE  LOCAL  DEFAULT   40 .L0 
   444: 80202ee8     0 NOTYPE  LOCAL  DEFAULT   40 .L0 
   445: 80202ee8     0 NOTYPE  LOCAL  DEFAULT   40 $x
   446: 80202ee8     0 NOTYPE  LOCAL  DEFAULT   40 .L0 
   447: 00000a0d     0 NOTYPE  LOCAL  DEFAULT  896 $d
   448: 00003538     0 NOTYPE  LOCAL  DEFAULT  897 .L0 
   449: 00003538     0 NOTYPE  LOCAL  DEFAULT  897 $d
   450: 00000ee4     0 NOTYPE  LOCAL  DEFAULT  904 .Lline_table_start0
   451: 00000220     0 NOTYPE  LOCAL  DEFAULT  898 $d
   452: 000948bf     0 NOTYPE  LOCAL  DEFAULT  900 $d
   453: 0000005e     0 NOTYPE  LOCAL  DEFAULT  901 $d
   454: 00000000     0 NOTYPE  LOCAL  DEFAULT  ABS $d
   455: 000004b4     0 NOTYPE  LOCAL  DEFAULT  903 .L0 
   456: 000004b4     0 NOTYPE  LOCAL  DEFAULT  903 $d
   457: 00000ee4     0 NOTYPE  LOCAL  DEFAULT  904 $d
   458: 80202ee8     8 FUNC    LOCAL  HIDDEN    40 _RINvMNtNtCsakCY22H5bhg_4core3mem9alignmentNtB3_9Alignment2ofNtNtCsg1amJnYx2jd_4main7process7ProcessEB10_
   459: 00000000     0 FILE    LOCAL  DEFAULT  ABS 2gmjpafdcvoq10qzdwusw3ehk
   460: 80201000     0 NOTYPE  LOCAL  DEFAULT    3 $x
   461: 0000005e     0 NOTYPE  LOCAL  DEFAULT  901 $d
   462: 00000000     0 NOTYPE  LOCAL  DEFAULT  ABS $d
   463: 80201000   168 FUNC    LOCAL  HIDDEN     3 _RNvNtNtCsg1amJnYx2jd_4main4trap10trampoline7uservec
   464: 00000000     0 FILE    LOCAL  DEFAULT  ABS 2jl86ywmbnt2nw3bwzwlmbyr0
   465: 80202ef0     0 NOTYPE  LOCAL  DEFAULT   41 $x
   466: 80202f90     0 NOTYPE  LOCAL  DEFAULT   42 .L0 
   467: 80202f90     0 NOTYPE  LOCAL  DEFAULT   42 .L0 
   468: 80202f90     0 NOTYPE  LOCAL  DEFAULT   42 $x
   469: 80202f90     0 NOTYPE  LOCAL  DEFAULT   42 .L0 
   470: 80202f94     0 NOTYPE  LOCAL  DEFAULT   42 .L0 
   471: 80202fa4     0 NOTYPE  LOCAL  DEFAULT   42 .L0 
   472: 80202fb4     0 NOTYPE  LOCAL  DEFAULT   42 .L0 
   473: 80202fb4     0 NOTYPE  LOCAL  DEFAULT   43 .L0 
   474: 80202fb4     0 NOTYPE  LOCAL  DEFAULT   43 .L0 
   475: 80202fb4     0 NOTYPE  LOCAL  DEFAULT   43 $x
   476: 80202fb4     0 NOTYPE  LOCAL  DEFAULT   43 .L0 
   477: 80202fb8     0 NOTYPE  LOCAL  DEFAULT   43 .L0 
   478: 80202fc8     0 NOTYPE  LOCAL  DEFAULT   43 .L0 
   479: 80202fd8     0 NOTYPE  LOCAL  DEFAULT   43 .L0 
   480: 8021f314    14 OBJECT  LOCAL  DEFAULT  892 .Lanon.35e99b42287974b94fb175a27330825f.10
   481: 80202fd8     0 NOTYPE  LOCAL  DEFAULT   44 .L0 
   482: 80202fd8     0 NOTYPE  LOCAL  DEFAULT   44 .L0 
   483: 80202fd8     0 NOTYPE  LOCAL  DEFAULT   44 $x
   484: 80202fd8     0 NOTYPE  LOCAL  DEFAULT   44 .L0 
   485: 80202fec     0 NOTYPE  LOCAL  DEFAULT   44 .L0 
   486: 80203000     0 NOTYPE  LOCAL  DEFAULT   44 .L0 
   487: 80203008     0 NOTYPE  LOCAL  DEFAULT   44 .L0 
   488: 80203020     0 NOTYPE  LOCAL  DEFAULT   44 .L0 
   489: 80203050     0 NOTYPE  LOCAL  DEFAULT   44 .L0 
   490: 80203098     0 NOTYPE  LOCAL  DEFAULT   44 .L0 
   491: 802030ac     0 NOTYPE  LOCAL  DEFAULT   44 .L0 
   492: 802030b4     0 NOTYPE  LOCAL  DEFAULT   44 .L0 
   493: 802030d4     0 NOTYPE  LOCAL  DEFAULT   44 .L0 
   494: 802030f4     0 NOTYPE  LOCAL  DEFAULT   44 .L0 
   495: 8020313c     0 NOTYPE  LOCAL  DEFAULT   44 .L0 
   496: 8020313c     0 NOTYPE  LOCAL  DEFAULT   45 .L0 
   497: 8020313c     0 NOTYPE  LOCAL  DEFAULT   45 .L0 
   498: 8020313c     0 NOTYPE  LOCAL  DEFAULT   45 $x
   499: 8020313c     0 NOTYPE  LOCAL  DEFAULT   45 .L0 
   500: 80203144     0 NOTYPE  LOCAL  DEFAULT   45 .L0 
   501: 80203154     0 NOTYPE  LOCAL  DEFAULT   45 .L0 
   502: 80203164     0 NOTYPE  LOCAL  DEFAULT   45 .L0 
   503: 80203178     0 NOTYPE  LOCAL  DEFAULT   45 .L0 
   504: 8020318c     0 NOTYPE  LOCAL  DEFAULT   45 .L0 
   505: 802031ec     0 NOTYPE  LOCAL  DEFAULT   45 .L0 
   506: 8021f322    50 OBJECT  LOCAL  DEFAULT  892 .Lanon.35e99b42287974b94fb175a27330825f.13
   507: 80203218     0 NOTYPE  LOCAL  DEFAULT   45 .L0 
   508: 80203268     0 NOTYPE  LOCAL  DEFAULT   45 .L0 
   509: 80203278     0 NOTYPE  LOCAL  DEFAULT   45 .L0 
   510: 80203294     0 NOTYPE  LOCAL  DEFAULT   45 .L0 
   511: 8021f394    16 OBJECT  LOCAL  DEFAULT  892 .Lanon.35e99b42287974b94fb175a27330825f.19
   512: 802032b4     0 NOTYPE  LOCAL  DEFAULT   45 .L0 
   513: 802032d0     0 NOTYPE  LOCAL  DEFAULT   45 .L0 
   514: 80203308     0 NOTYPE  LOCAL  DEFAULT   45 .L0 
   515: 80203334     0 NOTYPE  LOCAL  DEFAULT   45 .L0 
   516: 8021f354    16 OBJECT  LOCAL  DEFAULT  892 .Lanon.35e99b42287974b94fb175a27330825f.14
   517: 8021f364    16 OBJECT  LOCAL  DEFAULT  892 .Lanon.35e99b42287974b94fb175a27330825f.16
   518: 8021f374    16 OBJECT  LOCAL  DEFAULT  892 .Lanon.35e99b42287974b94fb175a27330825f.17
   519: 80203400     0 NOTYPE  LOCAL  DEFAULT   45 .L0 
   520: 80203410     0 NOTYPE  LOCAL  DEFAULT   45 .L0 
   521: 8020341c     0 NOTYPE  LOCAL  DEFAULT   45 .L0 
   522: 8021f384    16 OBJECT  LOCAL  DEFAULT  892 .Lanon.35e99b42287974b94fb175a27330825f.18
   523: 80203494     0 NOTYPE  LOCAL  DEFAULT   45 .L0 
   524: 80203494     0 NOTYPE  LOCAL  DEFAULT   45 .L0 
   525: 8021f0ae     0 NOTYPE  LOCAL  DEFAULT  892 $d
   526: 8021f314     0 NOTYPE  LOCAL  DEFAULT  892 $d
   527: 8021f322     0 NOTYPE  LOCAL  DEFAULT  892 $d
   528: 8021f354     0 NOTYPE  LOCAL  DEFAULT  892 $d
   529: 8021f364     0 NOTYPE  LOCAL  DEFAULT  892 $d
   530: 8021f374     0 NOTYPE  LOCAL  DEFAULT  892 $d
   531: 8021f384     0 NOTYPE  LOCAL  DEFAULT  892 $d
   532: 8021f394     0 NOTYPE  LOCAL  DEFAULT  892 $d
   533: 00000ac6     0 NOTYPE  LOCAL  DEFAULT  896 $d
   534: 00003ad3     0 NOTYPE  LOCAL  DEFAULT  897 .L0 
   535: 00003ad3     0 NOTYPE  LOCAL  DEFAULT  897 $d
   536: 00000f8f     0 NOTYPE  LOCAL  DEFAULT  904 .Lline_table_start0
   537: 00000328     0 NOTYPE  LOCAL  DEFAULT  899 .L0 
   538: 00000228     0 NOTYPE  LOCAL  DEFAULT  899 .L0 
   539: 00000240     0 NOTYPE  LOCAL  DEFAULT  899 .L0 
   540: 00000258     0 NOTYPE  LOCAL  DEFAULT  899 .L0 
   541: 00000270     0 NOTYPE  LOCAL  DEFAULT  899 .L0 
   542: 00000288     0 NOTYPE  LOCAL  DEFAULT  899 .L0 
   543: 000002a8     0 NOTYPE  LOCAL  DEFAULT  899 .L0 
   544: 000002c0     0 NOTYPE  LOCAL  DEFAULT  899 .L0 
   545: 000002d8     0 NOTYPE  LOCAL  DEFAULT  899 .L0 
   546: 000002f0     0 NOTYPE  LOCAL  DEFAULT  899 .L0 
   547: 00000308     0 NOTYPE  LOCAL  DEFAULT  899 .L0 
   548: 00000240     0 NOTYPE  LOCAL  DEFAULT  898 $d
   549: 00000228     0 NOTYPE  LOCAL  DEFAULT  899 $d
   550: 000948bf     0 NOTYPE  LOCAL  DEFAULT  900 $d
   551: 0000005e     0 NOTYPE  LOCAL  DEFAULT  901 $d
   552: 00000000     0 NOTYPE  LOCAL  DEFAULT  ABS $d
   553: 000004d8     0 NOTYPE  LOCAL  DEFAULT  903 .L0 
   554: 000004d8     0 NOTYPE  LOCAL  DEFAULT  903 $d
   555: 00000f8f     0 NOTYPE  LOCAL  DEFAULT  904 $d
   556: 80202ef0   160 FUNC    LOCAL  HIDDEN    41 _RNvNtCsg1amJnYx2jd_4main4trap9kernelvec
   557: 80202f90    36 FUNC    LOCAL  HIDDEN    42 _RNvNtCsg1amJnYx2jd_4main4trap12interrupt_on
   558: 80202fb4    36 FUNC    LOCAL  HIDDEN    43 _RNvNtCsg1amJnYx2jd_4main4trap13interrupt_off
   559: 80202fd8   356 FUNC    LOCAL  HIDDEN    44 _RNvNtCsg1amJnYx2jd_4main4trap9init_trap
   560: 00000000     0 FILE    LOCAL  DEFAULT  ABS 2qtuqyh10ecau91p3wjp2tsh8
   561: 80203494     0 NOTYPE  LOCAL  DEFAULT   46 .L0 
   562: 80203494     0 NOTYPE  LOCAL  DEFAULT   46 .L0 
   563: 80203494     0 NOTYPE  LOCAL  DEFAULT   46 $x
   564: 80203494     0 NOTYPE  LOCAL  DEFAULT   46 .L0 
   565: 802034a8     0 NOTYPE  LOCAL  DEFAULT   46 .L0 
   566: 8021f404     0 NOTYPE  LOCAL  DEFAULT  892 $d
   567: 802034a8   864 FUNC    LOCAL  DEFAULT   47 _RNvMCsigOxFuwXbws_22buddy_system_allocatorINtB2_4HeapKj20_E11add_to_heapCsg1amJnYx2jd_4main
   568: 802034a8     0 NOTYPE  LOCAL  DEFAULT   47 .L0 
   569: 802034a8     0 NOTYPE  LOCAL  DEFAULT   47 .L0 
   570: 802034a8     0 NOTYPE  LOCAL  DEFAULT   47 $x
   571: 802034a8     0 NOTYPE  LOCAL  DEFAULT   47 .L0 
   572: 8021f444    16 OBJECT  LOCAL  DEFAULT  892 .Lanon.7ec10989b34217c4f4278a5e5eb4021a.4
   573: 8021f454    16 OBJECT  LOCAL  DEFAULT  892 .Lanon.7ec10989b34217c4f4278a5e5eb4021a.5
   574: 8021f464    16 OBJECT  LOCAL  DEFAULT  892 .Lanon.7ec10989b34217c4f4278a5e5eb4021a.6
   575: 8021f474    16 OBJECT  LOCAL  DEFAULT  892 .Lanon.7ec10989b34217c4f4278a5e5eb4021a.7
   576: 8021f484    30 OBJECT  LOCAL  DEFAULT  892 .Lanon.7ec10989b34217c4f4278a5e5eb4021a.8
   577: 8021f4a4    16 OBJECT  LOCAL  DEFAULT  892 .Lanon.7ec10989b34217c4f4278a5e5eb4021a.9
   578: 802035a4     0 NOTYPE  LOCAL  DEFAULT   47 .L0 
   579: 802035ac     0 NOTYPE  LOCAL  DEFAULT   47 .L0 
   580: 8021f4b4    16 OBJECT  LOCAL  DEFAULT  892 .Lanon.7ec10989b34217c4f4278a5e5eb4021a.10
   581: 8020362c     0 NOTYPE  LOCAL  DEFAULT   47 .L0 
   582: 80203638     0 NOTYPE  LOCAL  DEFAULT   47 .L0 
   583: 8021f4c4    16 OBJECT  LOCAL  DEFAULT  892 .Lanon.7ec10989b34217c4f4278a5e5eb4021a.11
   584: 8020365c     0 NOTYPE  LOCAL  DEFAULT   47 .L0 
   585: 80203674     0 NOTYPE  LOCAL  DEFAULT   47 .L0 
   586: 8021f4d4    16 OBJECT  LOCAL  DEFAULT  892 .Lanon.7ec10989b34217c4f4278a5e5eb4021a.12
   587: 80203688     0 NOTYPE  LOCAL  DEFAULT   47 .L0 
   588: 802036a4     0 NOTYPE  LOCAL  DEFAULT   47 .L0 
   589: 802036b0     0 NOTYPE  LOCAL  DEFAULT   47 .L0 
   590: 80203700     0 NOTYPE  LOCAL  DEFAULT   47 .L0 
   591: 80203710     0 NOTYPE  LOCAL  DEFAULT   47 .L0 
   592: 8021f4e4    16 OBJECT  LOCAL  DEFAULT  892 .Lanon.7ec10989b34217c4f4278a5e5eb4021a.13
   593: 80203720     0 NOTYPE  LOCAL  DEFAULT   47 .L0 
   594: 8021f4f4    16 OBJECT  LOCAL  DEFAULT  892 .Lanon.7ec10989b34217c4f4278a5e5eb4021a.14
   595: 8021f504    16 OBJECT  LOCAL  DEFAULT  892 .Lanon.7ec10989b34217c4f4278a5e5eb4021a.15
   596: 8021f514    16 OBJECT  LOCAL  DEFAULT  892 .Lanon.7ec10989b34217c4f4278a5e5eb4021a.16
   597: 802037f4     0 NOTYPE  LOCAL  DEFAULT   47 .L0 
   598: 802037f8     0 NOTYPE  LOCAL  DEFAULT   47 .L0 
   599: 8021f524    16 OBJECT  LOCAL  DEFAULT  892 .Lanon.7ec10989b34217c4f4278a5e5eb4021a.17
   600: 80203808     0 NOTYPE  LOCAL  DEFAULT   47 .L0 
   601: 80203808     0 NOTYPE  LOCAL  DEFAULT   47 .L0 
   602: 80203808     0 NOTYPE  LOCAL  DEFAULT   48 .L0 
   603: 80203808     0 NOTYPE  LOCAL  DEFAULT   48 .L0 
   604: 80203808     0 NOTYPE  LOCAL  DEFAULT   48 $x
   605: 80203808     0 NOTYPE  LOCAL  DEFAULT   48 .L0 
   606: 8021f534    16 OBJECT  LOCAL  DEFAULT  892 .Lanon.7ec10989b34217c4f4278a5e5eb4021a.18
   607: 80203864     0 NOTYPE  LOCAL  DEFAULT   48 .L0 
   608: 80203864  1244 FUNC    LOCAL  DEFAULT   49 _RNvMCsigOxFuwXbws_22buddy_system_allocatorINtB2_4HeapKj20_E5allocCsg1amJnYx2jd_4main
   609: 80203864     0 NOTYPE  LOCAL  DEFAULT   49 .L0 
   610: 80203864     0 NOTYPE  LOCAL  DEFAULT   49 .L0 
   611: 80203864     0 NOTYPE  LOCAL  DEFAULT   49 $x
   612: 80203864     0 NOTYPE  LOCAL  DEFAULT   49 .L0 
   613: 802038d8     0 NOTYPE  LOCAL  DEFAULT   49 .L0 
   614: 80203930     0 NOTYPE  LOCAL  DEFAULT   49 .L0 
   615: 80203940     0 NOTYPE  LOCAL  DEFAULT   49 .L0 
   616: 80203978     0 NOTYPE  LOCAL  DEFAULT   49 .L0 
   617: 80203980     0 NOTYPE  LOCAL  DEFAULT   49 .L0 
   618: 80203988     0 NOTYPE  LOCAL  DEFAULT   49 .L0 
   619: 802039a4     0 NOTYPE  LOCAL  DEFAULT   49 .L0 
   620: 8021f544    16 OBJECT  LOCAL  DEFAULT  892 .Lanon.7ec10989b34217c4f4278a5e5eb4021a.19
   621: 8021f554    16 OBJECT  LOCAL  DEFAULT  892 .Lanon.7ec10989b34217c4f4278a5e5eb4021a.20
   622: 80203a2c     0 NOTYPE  LOCAL  DEFAULT   49 .L0 
   623: 80203a30     0 NOTYPE  LOCAL  DEFAULT   49 .L0 
   624: 8021f564    16 OBJECT  LOCAL  DEFAULT  892 .Lanon.7ec10989b34217c4f4278a5e5eb4021a.21
   625: 80203a44     0 NOTYPE  LOCAL  DEFAULT   49 .L0 
   626: 80203a74     0 NOTYPE  LOCAL  DEFAULT   49 .L0 
   627: 80203a7c     0 NOTYPE  LOCAL  DEFAULT   49 .L0 
   628: 8021f584    40 OBJECT  LOCAL  DEFAULT  892 .Lanon.7ec10989b34217c4f4278a5e5eb4021a.23
   629: 8021f5ac    16 OBJECT  LOCAL  DEFAULT  892 .Lanon.7ec10989b34217c4f4278a5e5eb4021a.24
   630: 80203acc     0 NOTYPE  LOCAL  DEFAULT   49 .L0 
   631: 80203ad8     0 NOTYPE  LOCAL  DEFAULT   49 .L0 
   632: 8021f574    16 OBJECT  LOCAL  DEFAULT  892 .Lanon.7ec10989b34217c4f4278a5e5eb4021a.22
   633: 80203af0     0 NOTYPE  LOCAL  DEFAULT   49 .L0 
   634: 80203b20     0 NOTYPE  LOCAL  DEFAULT   49 .L0 
   635: 80203b38     0 NOTYPE  LOCAL  DEFAULT   49 .L0 
   636: 8021f5bc    16 OBJECT  LOCAL  DEFAULT  892 .Lanon.7ec10989b34217c4f4278a5e5eb4021a.25
   637: 80203b74     0 NOTYPE  LOCAL  DEFAULT   49 .L0 
   638: 80203b78     0 NOTYPE  LOCAL  DEFAULT   49 .L0 
   639: 8021f5cc    16 OBJECT  LOCAL  DEFAULT  892 .Lanon.7ec10989b34217c4f4278a5e5eb4021a.26
   640: 80203b88     0 NOTYPE  LOCAL  DEFAULT   49 .L0 
   641: 80203b90     0 NOTYPE  LOCAL  DEFAULT   49 .L0 
   642: 8021f5dc    16 OBJECT  LOCAL  DEFAULT  892 .Lanon.7ec10989b34217c4f4278a5e5eb4021a.27
   643: 80203bf0     0 NOTYPE  LOCAL  DEFAULT   49 .L0 
   644: 80203bf8     0 NOTYPE  LOCAL  DEFAULT   49 .L0 
   645: 80203c04     0 NOTYPE  LOCAL  DEFAULT   49 .L0 
   646: 8021f5ec    16 OBJECT  LOCAL  DEFAULT  892 .Lanon.7ec10989b34217c4f4278a5e5eb4021a.28
   647: 8021f5fc    16 OBJECT  LOCAL  DEFAULT  892 .Lanon.7ec10989b34217c4f4278a5e5eb4021a.29
   648: 8021f60c    16 OBJECT  LOCAL  DEFAULT  892 .Lanon.7ec10989b34217c4f4278a5e5eb4021a.30
   649: 8021f61c    16 OBJECT  LOCAL  DEFAULT  892 .Lanon.7ec10989b34217c4f4278a5e5eb4021a.31
   650: 8021f62c    16 OBJECT  LOCAL  DEFAULT  892 .Lanon.7ec10989b34217c4f4278a5e5eb4021a.32
   651: 8021f63c    16 OBJECT  LOCAL  DEFAULT  892 .Lanon.7ec10989b34217c4f4278a5e5eb4021a.33
   652: 8021f64c    16 OBJECT  LOCAL  DEFAULT  892 .Lanon.7ec10989b34217c4f4278a5e5eb4021a.34
   653: 80203d40     0 NOTYPE  LOCAL  DEFAULT   49 .L0 
   654: 80203d40     0 NOTYPE  LOCAL  DEFAULT   49 .L0 
   655: 80203d40   940 FUNC    LOCAL  DEFAULT   50 _RNvMCsigOxFuwXbws_22buddy_system_allocatorINtB2_4HeapKj20_E7deallocCsg1amJnYx2jd_4main
   656: 80203d40     0 NOTYPE  LOCAL  DEFAULT   50 .L0 
   657: 80203d40     0 NOTYPE  LOCAL  DEFAULT   50 .L0 
   658: 80203d40     0 NOTYPE  LOCAL  DEFAULT   50 $x
   659: 80203d40     0 NOTYPE  LOCAL  DEFAULT   50 .L0 
   660: 80203dbc     0 NOTYPE  LOCAL  DEFAULT   50 .L0 
   661: 80203e14     0 NOTYPE  LOCAL  DEFAULT   50 .L0 
   662: 80203e4c     0 NOTYPE  LOCAL  DEFAULT   50 .L0 
   663: 80203e50     0 NOTYPE  LOCAL  DEFAULT   50 .L0 
   664: 80203e54     0 NOTYPE  LOCAL  DEFAULT   50 .L0 
   665: 8021f65c    16 OBJECT  LOCAL  DEFAULT  892 .Lanon.7ec10989b34217c4f4278a5e5eb4021a.35
   666: 80203e6c     0 NOTYPE  LOCAL  DEFAULT   50 .L0 
   667: 80203ee0     0 NOTYPE  LOCAL  DEFAULT   50 .L0 
   668: 80203ee4     0 NOTYPE  LOCAL  DEFAULT   50 .L0 
   669: 80203ef8     0 NOTYPE  LOCAL  DEFAULT   50 .L0 
   670: 8021f66c    16 OBJECT  LOCAL  DEFAULT  892 .Lanon.7ec10989b34217c4f4278a5e5eb4021a.36
   671: 80203f10     0 NOTYPE  LOCAL  DEFAULT   50 .L0 
   672: 80203f30     0 NOTYPE  LOCAL  DEFAULT   50 .L0 
   673: 80203f34     0 NOTYPE  LOCAL  DEFAULT   50 .L0 
   674: 8021f67c    16 OBJECT  LOCAL  DEFAULT  892 .Lanon.7ec10989b34217c4f4278a5e5eb4021a.37
   675: 80203f54     0 NOTYPE  LOCAL  DEFAULT   50 .L0 
   676: 80203f80     0 NOTYPE  LOCAL  DEFAULT   50 .L0 
   677: 80203f94     0 NOTYPE  LOCAL  DEFAULT   50 .L0 
   678: 80203fa4     0 NOTYPE  LOCAL  DEFAULT   50 .L0 
   679: 80203fbc     0 NOTYPE  LOCAL  DEFAULT   50 .L0 
   680: 80203fc0     0 NOTYPE  LOCAL  DEFAULT   50 .L0 
   681: 80203fd4     0 NOTYPE  LOCAL  DEFAULT   50 .L0 
   682: 8021f68c    16 OBJECT  LOCAL  DEFAULT  892 .Lanon.7ec10989b34217c4f4278a5e5eb4021a.38
   683: 80204014     0 NOTYPE  LOCAL  DEFAULT   50 .L0 
   684: 80204020     0 NOTYPE  LOCAL  DEFAULT   50 .L0 
   685: 8021f69c    16 OBJECT  LOCAL  DEFAULT  892 .Lanon.7ec10989b34217c4f4278a5e5eb4021a.39
   686: 80204038     0 NOTYPE  LOCAL  DEFAULT   50 .L0 
   687: 8021f6ac    16 OBJECT  LOCAL  DEFAULT  892 .Lanon.7ec10989b34217c4f4278a5e5eb4021a.40
   688: 8021f6bc    16 OBJECT  LOCAL  DEFAULT  892 .Lanon.7ec10989b34217c4f4278a5e5eb4021a.41
   689: 8021f6cc    16 OBJECT  LOCAL  DEFAULT  892 .Lanon.7ec10989b34217c4f4278a5e5eb4021a.42
   690: 802040ec     0 NOTYPE  LOCAL  DEFAULT   50 .L0 
   691: 802040ec     0 NOTYPE  LOCAL  DEFAULT   50 .L0 
   692: 802040ec     0 NOTYPE  LOCAL  DEFAULT   51 .L0 
   693: 802040ec     0 NOTYPE  LOCAL  DEFAULT   51 .L0 
   694: 802040ec     0 NOTYPE  LOCAL  DEFAULT   51 $x
   695: 802040ec     0 NOTYPE  LOCAL  DEFAULT   51 .L0 
   696: 802040fc     0 NOTYPE  LOCAL  DEFAULT   51 .L0 
   697: 802040fc     0 NOTYPE  LOCAL  DEFAULT   52 .L0 
   698: 802040fc     0 NOTYPE  LOCAL  DEFAULT   52 .L0 
   699: 802040fc     0 NOTYPE  LOCAL  DEFAULT   52 $x
   700: 802040fc     0 NOTYPE  LOCAL  DEFAULT   52 .L0 
   701: 80204124     0 NOTYPE  LOCAL  DEFAULT   52 .L0 
   702: 8020413c     0 NOTYPE  LOCAL  DEFAULT   52 .L0 
   703: 802041a8     0 NOTYPE  LOCAL  DEFAULT   52 .L0 
   704: 802041b4     0 NOTYPE  LOCAL  DEFAULT   52 .L0 
   705: 802041c4     0 NOTYPE  LOCAL  DEFAULT   52 .L0 
   706: 802041d0     0 NOTYPE  LOCAL  DEFAULT   52 .L0 
   707: 802041e0     0 NOTYPE  LOCAL  DEFAULT   52 .L0 
   708: 8020421c     0 NOTYPE  LOCAL  DEFAULT   52 .L0 
   709: 80204258     0 NOTYPE  LOCAL  DEFAULT   52 .L0 
   710: 80204258     0 NOTYPE  LOCAL  DEFAULT   53 .L0 
   711: 80204258     0 NOTYPE  LOCAL  DEFAULT   53 .L0 
   712: 80204258     0 NOTYPE  LOCAL  DEFAULT   53 $x
   713: 80204258     0 NOTYPE  LOCAL  DEFAULT   53 .L0 
   714: 80204288     0 NOTYPE  LOCAL  DEFAULT   53 .L0 
   715: 802042a0     0 NOTYPE  LOCAL  DEFAULT   53 .L0 
   716: 8020430c     0 NOTYPE  LOCAL  DEFAULT   53 .L0 
   717: 80204318     0 NOTYPE  LOCAL  DEFAULT   53 .L0 
   718: 80204328     0 NOTYPE  LOCAL  DEFAULT   53 .L0 
   719: 80204334     0 NOTYPE  LOCAL  DEFAULT   53 .L0 
   720: 80204344     0 NOTYPE  LOCAL  DEFAULT   53 .L0 
   721: 8021f6dc    16 OBJECT  LOCAL  DEFAULT  892 .Lanon.7ec10989b34217c4f4278a5e5eb4021a.43
   722: 802043a8     0 NOTYPE  LOCAL  DEFAULT   53 .L0 
   723: 802043a8     0 NOTYPE  LOCAL  DEFAULT   54 .L0 
   724: 802043a8     0 NOTYPE  LOCAL  DEFAULT   54 .L0 
   725: 802043a8     0 NOTYPE  LOCAL  DEFAULT   54 $x
   726: 802043a8     0 NOTYPE  LOCAL  DEFAULT   54 .L0 
   727: 802043e0     0 NOTYPE  LOCAL  DEFAULT   54 .L0 
   728: 802043fc     0 NOTYPE  LOCAL  DEFAULT   54 .L0 
   729: 80204424     0 NOTYPE  LOCAL  DEFAULT   54 .L0 
   730: 8021f424    16 OBJECT  LOCAL  DEFAULT  892 .Lanon.7ec10989b34217c4f4278a5e5eb4021a.1
   731: 80204488     0 NOTYPE  LOCAL  DEFAULT   54 .L0 
   732: 80204488     0 NOTYPE  LOCAL  DEFAULT   55 .L0 
   733: 80204488     0 NOTYPE  LOCAL  DEFAULT   55 .L0 
   734: 80204488     0 NOTYPE  LOCAL  DEFAULT   55 $x
   735: 80204488     0 NOTYPE  LOCAL  DEFAULT   55 .L0 
   736: 802044c8     0 NOTYPE  LOCAL  DEFAULT   55 .L0 
   737: 8021f6ec    16 OBJECT  LOCAL  DEFAULT  892 .Lanon.7ec10989b34217c4f4278a5e5eb4021a.45
   738: 802044f4     0 NOTYPE  LOCAL  DEFAULT   55 .L0 
   739: 80204508     0 NOTYPE  LOCAL  DEFAULT   55 .L0 
   740: 8020454c     0 NOTYPE  LOCAL  DEFAULT   55 .L0 
   741: 8021f434    16 OBJECT  LOCAL  DEFAULT  892 .Lanon.7ec10989b34217c4f4278a5e5eb4021a.2
   742: 802045c4     0 NOTYPE  LOCAL  DEFAULT   55 .L0 
   743: 8021e9f8     0 NOTYPE  LOCAL  DEFAULT  892 $d
   744: 8021f424     0 NOTYPE  LOCAL  DEFAULT  892 $d
   745: 8021f434     0 NOTYPE  LOCAL  DEFAULT  892 $d
   746: 8021f444     0 NOTYPE  LOCAL  DEFAULT  892 $d
   747: 8021f454     0 NOTYPE  LOCAL  DEFAULT  892 $d
   748: 8021f464     0 NOTYPE  LOCAL  DEFAULT  892 $d
   749: 8021f474     0 NOTYPE  LOCAL  DEFAULT  892 $d
   750: 8021f484     0 NOTYPE  LOCAL  DEFAULT  892 $d
   751: 8021f4a4     0 NOTYPE  LOCAL  DEFAULT  892 $d
   752: 8021f4b4     0 NOTYPE  LOCAL  DEFAULT  892 $d
   753: 8021f4c4     0 NOTYPE  LOCAL  DEFAULT  892 $d
   754: 8021f4d4     0 NOTYPE  LOCAL  DEFAULT  892 $d
   755: 8021f4e4     0 NOTYPE  LOCAL  DEFAULT  892 $d
   756: 8021f4f4     0 NOTYPE  LOCAL  DEFAULT  892 $d
   757: 8021f504     0 NOTYPE  LOCAL  DEFAULT  892 $d
   758: 8021f514     0 NOTYPE  LOCAL  DEFAULT  892 $d
   759: 8021f524     0 NOTYPE  LOCAL  DEFAULT  892 $d
   760: 8021f534     0 NOTYPE  LOCAL  DEFAULT  892 $d
   761: 8021f544     0 NOTYPE  LOCAL  DEFAULT  892 $d
   762: 8021f554     0 NOTYPE  LOCAL  DEFAULT  892 $d
   763: 8021f564     0 NOTYPE  LOCAL  DEFAULT  892 $d
   764: 8021f574     0 NOTYPE  LOCAL  DEFAULT  892 $d
   765: 8021f584     0 NOTYPE  LOCAL  DEFAULT  892 $d
   766: 8021f5ac     0 NOTYPE  LOCAL  DEFAULT  892 $d
   767: 8021f5bc     0 NOTYPE  LOCAL  DEFAULT  892 $d
   768: 8021f5cc     0 NOTYPE  LOCAL  DEFAULT  892 $d
   769: 8021f5dc     0 NOTYPE  LOCAL  DEFAULT  892 $d
   770: 8021f5ec     0 NOTYPE  LOCAL  DEFAULT  892 $d
   771: 8021f5fc     0 NOTYPE  LOCAL  DEFAULT  892 $d
   772: 8021f60c     0 NOTYPE  LOCAL  DEFAULT  892 $d
   773: 8021f61c     0 NOTYPE  LOCAL  DEFAULT  892 $d
   774: 8021f62c     0 NOTYPE  LOCAL  DEFAULT  892 $d
   775: 8021f63c     0 NOTYPE  LOCAL  DEFAULT  892 $d
   776: 8021f64c     0 NOTYPE  LOCAL  DEFAULT  892 $d
   777: 8021f65c     0 NOTYPE  LOCAL  DEFAULT  892 $d
   778: 8021f66c     0 NOTYPE  LOCAL  DEFAULT  892 $d
   779: 8021f67c     0 NOTYPE  LOCAL  DEFAULT  892 $d
   780: 8021f68c     0 NOTYPE  LOCAL  DEFAULT  892 $d
   781: 8021f69c     0 NOTYPE  LOCAL  DEFAULT  892 $d
   782: 8021f6ac     0 NOTYPE  LOCAL  DEFAULT  892 $d
   783: 8021f6bc     0 NOTYPE  LOCAL  DEFAULT  892 $d
   784: 8021f6cc     0 NOTYPE  LOCAL  DEFAULT  892 $d
   785: 8021f6dc     0 NOTYPE  LOCAL  DEFAULT  892 $d
   786: 8021f6ec     0 NOTYPE  LOCAL  DEFAULT  892 $d
   787: 00000c84     0 NOTYPE  LOCAL  DEFAULT  896 $d
   788: 000049e0     0 NOTYPE  LOCAL  DEFAULT  897 .L0 
   789: 000049e0     0 NOTYPE  LOCAL  DEFAULT  897 $d
   790: 000013e7     0 NOTYPE  LOCAL  DEFAULT  904 .Lline_table_start0
   791: 00000608     0 NOTYPE  LOCAL  DEFAULT  899 .L0 
   792: 000005d8     0 NOTYPE  LOCAL  DEFAULT  899 .L0 
   793: 000005f0     0 NOTYPE  LOCAL  DEFAULT  899 .L0 
   794: 00000358     0 NOTYPE  LOCAL  DEFAULT  899 .L0 
   795: 00000370     0 NOTYPE  LOCAL  DEFAULT  899 .L0 
   796: 00000388     0 NOTYPE  LOCAL  DEFAULT  899 .L0 
   797: 000003a8     0 NOTYPE  LOCAL  DEFAULT  899 .L0 
   798: 000003c8     0 NOTYPE  LOCAL  DEFAULT  899 .L0 
   799: 000003e8     0 NOTYPE  LOCAL  DEFAULT  899 .L0 
   800: 00000400     0 NOTYPE  LOCAL  DEFAULT  899 .L0 
   801: 00000418     0 NOTYPE  LOCAL  DEFAULT  899 .L0 
   802: 00000430     0 NOTYPE  LOCAL  DEFAULT  899 .L0 
   803: 00000448     0 NOTYPE  LOCAL  DEFAULT  899 .L0 
   804: 00000470     0 NOTYPE  LOCAL  DEFAULT  899 .L0 
   805: 00000490     0 NOTYPE  LOCAL  DEFAULT  899 .L0 
   806: 000004b0     0 NOTYPE  LOCAL  DEFAULT  899 .L0 
   807: 000004c8     0 NOTYPE  LOCAL  DEFAULT  899 .L0 
   808: 000004f0     0 NOTYPE  LOCAL  DEFAULT  899 .L0 
   809: 00000508     0 NOTYPE  LOCAL  DEFAULT  899 .L0 
   810: 00000520     0 NOTYPE  LOCAL  DEFAULT  899 .L0 
   811: 00000540     0 NOTYPE  LOCAL  DEFAULT  899 .L0 
   812: 00000560     0 NOTYPE  LOCAL  DEFAULT  899 .L0 
   813: 00000580     0 NOTYPE  LOCAL  DEFAULT  899 .L0 
   814: 000005a0     0 NOTYPE  LOCAL  DEFAULT  899 .L0 
   815: 000005c0     0 NOTYPE  LOCAL  DEFAULT  899 .L0 
   816: 00000280     0 NOTYPE  LOCAL  DEFAULT  898 $d
   817: 00000358     0 NOTYPE  LOCAL  DEFAULT  899 $d
   818: 000948bf     0 NOTYPE  LOCAL  DEFAULT  900 $d
   819: 0000005e     0 NOTYPE  LOCAL  DEFAULT  901 $d
   820: 00000000     0 NOTYPE  LOCAL  DEFAULT  ABS $d
   821: 00000584     0 NOTYPE  LOCAL  DEFAULT  903 .L0 
   822: 00000584     0 NOTYPE  LOCAL  DEFAULT  903 $d
   823: 000013e7     0 NOTYPE  LOCAL  DEFAULT  904 $d
   824: 80203494    20 FUNC    LOCAL  HIDDEN    46 _RNCNvXs3_CsigOxFuwXbws_22buddy_system_allocatorINtB7_10LockedHeapKj20_ENtNtNtCsakCY22H5bhg_4core5alloc6global11GlobalAlloc5alloc0Csg1amJnYx2jd_4main
   825: 80203808    92 FUNC    LOCAL  HIDDEN    48 _RNvMCsigOxFuwXbws_22buddy_system_allocatorINtB2_4HeapKj20_E4initCsg1amJnYx2jd_4main
   826: 802040ec    16 FUNC    LOCAL  HIDDEN    51 _RNvXs2_CsigOxFuwXbws_22buddy_system_allocatorINtB5_10LockedHeapKj20_ENtNtNtCsakCY22H5bhg_4core3ops5deref5Deref5derefCsg1amJnYx2jd_4main
   827: 802040fc   348 FUNC    LOCAL  HIDDEN    52 _RNvXs3_CsigOxFuwXbws_22buddy_system_allocatorINtB5_10LockedHeapKj20_ENtNtNtCsakCY22H5bhg_4core5alloc6global11GlobalAlloc5allocCsg1amJnYx2jd_4main
   828: 80204258   336 FUNC    LOCAL  HIDDEN    53 _RNvXs3_CsigOxFuwXbws_22buddy_system_allocatorINtB5_10LockedHeapKj20_ENtNtNtCsakCY22H5bhg_4core5alloc6global11GlobalAlloc7deallocCsg1amJnYx2jd_4main
   829: 802043a8   224 FUNC    LOCAL  HIDDEN    54 _RNvYINtCsigOxFuwXbws_22buddy_system_allocator10LockedHeapKj20_ENtNtNtCsakCY22H5bhg_4core5alloc6global11GlobalAlloc12alloc_zeroedCsg1amJnYx2jd_4main
   830: 80204488   316 FUNC    LOCAL  HIDDEN    55 _RNvYINtCsigOxFuwXbws_22buddy_system_allocator10LockedHeapKj20_ENtNtNtCsakCY22H5bhg_4core5alloc6global11GlobalAlloc7reallocCsg1amJnYx2jd_4main
   831: 00000000     0 FILE    LOCAL  DEFAULT  ABS 37zm95ccol8f09yqrl8oji7x8
   832: 802045c4    60 FUNC    LOCAL  DEFAULT   56 _RNvMNtCsevzKAMQQtOE_5alloc3vecINtB2_3VecNtNtCsg1amJnYx2jd_4main7process7ProcessE3newBG_
   833: 802045c4     0 NOTYPE  LOCAL  DEFAULT   56 .L0 
   834: 802045c4     0 NOTYPE  LOCAL  DEFAULT   56 .L0 
   835: 802045c4     0 NOTYPE  LOCAL  DEFAULT   56 $x
   836: 802045c4     0 NOTYPE  LOCAL  DEFAULT   56 .L0 
   837: 80204600     0 NOTYPE  LOCAL  DEFAULT   56 .L0 
   838: 80204600     0 NOTYPE  LOCAL  DEFAULT   57 .L0 
   839: 80204600     0 NOTYPE  LOCAL  DEFAULT   57 .L0 
   840: 80204600     0 NOTYPE  LOCAL  DEFAULT   57 $x
   841: 80204600     0 NOTYPE  LOCAL  DEFAULT   57 .L0 
   842: 80204640   292 FUNC    LOCAL  DEFAULT   58 _RNvMsF_NtCsevzKAMQQtOE_5alloc3vecINtB5_3VecNtNtCsg1amJnYx2jd_4main7process7ProcessE8push_mutBJ_
   843: 80204640     0 NOTYPE  LOCAL  DEFAULT   57 .L0 
   844: 80204640     0 NOTYPE  LOCAL  DEFAULT   58 .L0 
   845: 80204640     0 NOTYPE  LOCAL  DEFAULT   58 .L0 
   846: 80204640     0 NOTYPE  LOCAL  DEFAULT   58 $x
   847: 80204640     0 NOTYPE  LOCAL  DEFAULT   58 .L0 
   848: 80204660     0 NOTYPE  LOCAL  DEFAULT   58 .L0 
   849: 80204764    32 FUNC    LOCAL  DEFAULT   59 _RNvMs_NtCsevzKAMQQtOE_5alloc3vecINtB4_3VecNtNtCsg1amJnYx2jd_4main7process7ProcessE10as_mut_ptrBI_
   850: 8020469c     0 NOTYPE  LOCAL  DEFAULT   58 .L0 
   851: 8021f6fc    16 OBJECT  LOCAL  DEFAULT  892 .Lanon.222f5aede0e494763b9208126368eb7d.1
   852: 802046f4     0 NOTYPE  LOCAL  DEFAULT   58 .L0 
   853: 8021f70c    16 OBJECT  LOCAL  DEFAULT  892 .Lanon.222f5aede0e494763b9208126368eb7d.2
   854: 80204728     0 NOTYPE  LOCAL  DEFAULT   58 .L0 
   855: 80204744     0 NOTYPE  LOCAL  DEFAULT   58 .L0 
   856: 80204748     0 NOTYPE  LOCAL  DEFAULT   58 .L0 
   857: 80204754     0 NOTYPE  LOCAL  DEFAULT   58 .L0 
   858: 8021f71c    16 OBJECT  LOCAL  DEFAULT  892 .Lanon.222f5aede0e494763b9208126368eb7d.3
   859: 80204764     0 NOTYPE  LOCAL  DEFAULT   58 .L0 
   860: 80204764     0 NOTYPE  LOCAL  DEFAULT   58 .L0 
   861: 80204764     0 NOTYPE  LOCAL  DEFAULT   59 .L0 
   862: 80204764     0 NOTYPE  LOCAL  DEFAULT   59 .L0 
   863: 80204764     0 NOTYPE  LOCAL  DEFAULT   59 $x
   864: 80204764     0 NOTYPE  LOCAL  DEFAULT   59 .L0 
   865: 80204784     0 NOTYPE  LOCAL  DEFAULT   59 .L0 
   866: 80204784    44 FUNC    LOCAL  DEFAULT   60 _RNvMs_NtCsevzKAMQQtOE_5alloc3vecINtB4_3VecNtNtCsg1amJnYx2jd_4main7process7ProcessE12as_mut_sliceBI_
   867: 80204784     0 NOTYPE  LOCAL  DEFAULT   60 .L0 
   868: 80204784     0 NOTYPE  LOCAL  DEFAULT   60 .L0 
   869: 80204784     0 NOTYPE  LOCAL  DEFAULT   60 $x
   870: 80204784     0 NOTYPE  LOCAL  DEFAULT   60 .L0 
   871: 802047b0     0 NOTYPE  LOCAL  DEFAULT   60 .L0 
   872: 802047b0     0 NOTYPE  LOCAL  DEFAULT   61 .L0 
   873: 802047b0     0 NOTYPE  LOCAL  DEFAULT   61 .L0 
   874: 802047b0     0 NOTYPE  LOCAL  DEFAULT   61 $x
   875: 802047b0     0 NOTYPE  LOCAL  DEFAULT   61 .L0 
   876: 802047c8     0 NOTYPE  LOCAL  DEFAULT   61 .L0 
   877: 802047c8     0 NOTYPE  LOCAL  DEFAULT   62 .L0 
   878: 802047c8     0 NOTYPE  LOCAL  DEFAULT   62 .L0 
   879: 802047c8     0 NOTYPE  LOCAL  DEFAULT   62 $x
   880: 802047c8     0 NOTYPE  LOCAL  DEFAULT   62 .L0 
   881: 802047e8     0 NOTYPE  LOCAL  DEFAULT   62 .L0 
   882: 802047e8     0 NOTYPE  LOCAL  DEFAULT   63 .L0 
   883: 802047e8     0 NOTYPE  LOCAL  DEFAULT   63 .L0 
   884: 802047e8     0 NOTYPE  LOCAL  DEFAULT   63 $x
   885: 802047e8     0 NOTYPE  LOCAL  DEFAULT   63 .L0 
   886: 80204810     0 NOTYPE  LOCAL  DEFAULT   63 .L0 
   887: 80204810     0 NOTYPE  LOCAL  DEFAULT   64 .L0 
   888: 80204810     0 NOTYPE  LOCAL  DEFAULT   64 .L0 
   889: 80204810     0 NOTYPE  LOCAL  DEFAULT   64 $x
   890: 80204810     0 NOTYPE  LOCAL  DEFAULT   64 .L0 
   891: 8020482c     0 NOTYPE  LOCAL  DEFAULT   64 .L0 
   892: 8021e39f     0 NOTYPE  LOCAL  DEFAULT  892 $d
   893: 8021f6fc     0 NOTYPE  LOCAL  DEFAULT  892 $d
   894: 8021f70c     0 NOTYPE  LOCAL  DEFAULT  892 $d
   895: 8021f71c     0 NOTYPE  LOCAL  DEFAULT  892 $d
   896: 00000000     0 NOTYPE  LOCAL  DEFAULT  905 .L0 
   897: 00000000     0 NOTYPE  LOCAL  DEFAULT  905 $d
   898: 00000029     0 NOTYPE  LOCAL  DEFAULT  905 .L0 
   899: 00000f02     0 NOTYPE  LOCAL  DEFAULT  896 $d
   900: 0000595d     0 NOTYPE  LOCAL  DEFAULT  897 .L0 
   901: 0000595d     0 NOTYPE  LOCAL  DEFAULT  897 $d
   902: 00001d34     0 NOTYPE  LOCAL  DEFAULT  904 .Lline_table_start0
   903: 00000698     0 NOTYPE  LOCAL  DEFAULT  899 .L0 
   904: 00000660     0 NOTYPE  LOCAL  DEFAULT  899 .L0 
   905: 00000678     0 NOTYPE  LOCAL  DEFAULT  899 .L0 
   906: 000002e8     0 NOTYPE  LOCAL  DEFAULT  898 $d
   907: 00000660     0 NOTYPE  LOCAL  DEFAULT  899 $d
   908: 000948bf     0 NOTYPE  LOCAL  DEFAULT  900 $d
   909: 0000005e     0 NOTYPE  LOCAL  DEFAULT  901 $d
   910: 00000000     0 NOTYPE  LOCAL  DEFAULT  ABS $d
   911: 000006cc     0 NOTYPE  LOCAL  DEFAULT  903 .L0 
   912: 000006cc     0 NOTYPE  LOCAL  DEFAULT  903 $d
   913: 00001d34     0 NOTYPE  LOCAL  DEFAULT  904 $d
   914: 802047b0    24 FUNC    LOCAL  HIDDEN    61 _RNvMs_NtCsevzKAMQQtOE_5alloc3vecINtB4_3VecNtNtCsg1amJnYx2jd_4main7process7ProcessE3lenBI_
   915: 80204600    64 FUNC    LOCAL  HIDDEN    57 _RNvMsF_NtCsevzKAMQQtOE_5alloc3vecINtB5_3VecNtNtCsg1amJnYx2jd_4main7process7ProcessE4pushBJ_
   916: 802047e8    40 FUNC    LOCAL  HIDDEN    63 _RNvXsh_NtCsevzKAMQQtOE_5alloc3vecQINtB5_3VecNtNtCsg1amJnYx2jd_4main7process7ProcessENtNtNtNtCsakCY22H5bhg_4core4iter6traits7collect12IntoIterator9into_iterBK_
   917: 80204810    28 FUNC    LOCAL  HIDDEN    64 _RNvXsp_NtCsevzKAMQQtOE_5alloc3vecINtB5_3VecNtNtCsg1amJnYx2jd_4main7process7ProcessENtNtCsakCY22H5bhg_4core7default7Default7defaultBJ_
   918: 802047c8    32 FUNC    LOCAL  HIDDEN    62 _RNvXs8_NtCsevzKAMQQtOE_5alloc3vecINtB5_3VecNtNtCsg1amJnYx2jd_4main7process7ProcessENtNtNtCsakCY22H5bhg_4core3ops5deref8DerefMut9deref_mutBJ_
   919: 00000000     0 FILE    LOCAL  DEFAULT  ABS 3863evpeo3yyms1rmrnw3s5vs
   920: 8020482c     0 NOTYPE  LOCAL  DEFAULT   65 .L0 
   921: 8020482c     0 NOTYPE  LOCAL  DEFAULT   65 .L0 
   922: 8020482c     0 NOTYPE  LOCAL  DEFAULT   65 $x
   923: 8020482c     0 NOTYPE  LOCAL  DEFAULT   65 .L0 
   924: 00001078     0 NOTYPE  LOCAL  DEFAULT  896 $d
   925: 00006341     0 NOTYPE  LOCAL  DEFAULT  897 .L0 
   926: 00006341     0 NOTYPE  LOCAL  DEFAULT  897 $d
   927: 00001fb6     0 NOTYPE  LOCAL  DEFAULT  904 .Lline_table_start0
   928: 00000348     0 NOTYPE  LOCAL  DEFAULT  898 $d
   929: 000948bf     0 NOTYPE  LOCAL  DEFAULT  900 $d
   930: 0000005e     0 NOTYPE  LOCAL  DEFAULT  901 $d
   931: 00000000     0 NOTYPE  LOCAL  DEFAULT  ABS $d
   932: 000007e0     0 NOTYPE  LOCAL  DEFAULT  903 .L0 
   933: 000007e0     0 NOTYPE  LOCAL  DEFAULT  903 $d
   934: 00001fb6     0 NOTYPE  LOCAL  DEFAULT  904 $d
   935: 8020482c    44 FUNC    LOCAL  HIDDEN    65 _RNCNvNtCsevzKAMQQtOE_5alloc3fmt6format0Csg1amJnYx2jd_4main
   936: 00000000     0 FILE    LOCAL  DEFAULT  ABS 3e2aijyud83o8we71rg8ezj17
   937: 80204858     0 NOTYPE  LOCAL  DEFAULT   66 .L0 
   938: 80204858     0 NOTYPE  LOCAL  DEFAULT   66 .L0 
   939: 80204858     0 NOTYPE  LOCAL  DEFAULT   66 $x
   940: 80204858     0 NOTYPE  LOCAL  DEFAULT   66 .L0 
   941: 8020486c     0 NOTYPE  LOCAL  DEFAULT   66 .L0 
   942: 8020486c     0 NOTYPE  LOCAL  DEFAULT   67 .L0 
   943: 8020486c     0 NOTYPE  LOCAL  DEFAULT   67 .L0 
   944: 8020486c     0 NOTYPE  LOCAL  DEFAULT   67 $x
   945: 8020486c     0 NOTYPE  LOCAL  DEFAULT   67 .L0 
   946: 80204880     0 NOTYPE  LOCAL  DEFAULT   67 .L0 
   947: 80204880   144 FUNC    LOCAL  DEFAULT   68 _RNvXs3_NtNtCsakCY22H5bhg_4core4iter5rangeINtNtNtB9_3ops5range5RangelENtB5_17RangeIteratorImpl9spec_nextCsg1amJnYx2jd_4main
   948: 80204880     0 NOTYPE  LOCAL  DEFAULT   68 .L0 
   949: 80204880     0 NOTYPE  LOCAL  DEFAULT   68 .L0 
   950: 80204880     0 NOTYPE  LOCAL  DEFAULT   68 $x
   951: 80204880     0 NOTYPE  LOCAL  DEFAULT   68 .L0 
   952: 802048a0     0 NOTYPE  LOCAL  DEFAULT   68 .L0 
   953: 802048d4     0 NOTYPE  LOCAL  DEFAULT   68 .L0 
   954: 80204910     0 NOTYPE  LOCAL  DEFAULT   68 .L0 
   955: 80204910   144 FUNC    LOCAL  DEFAULT   69 _RNvXs3_NtNtCsakCY22H5bhg_4core4iter5rangeINtNtNtB9_3ops5range5RangemENtB5_17RangeIteratorImpl9spec_nextCsg1amJnYx2jd_4main
   956: 80204910     0 NOTYPE  LOCAL  DEFAULT   69 .L0 
   957: 80204910     0 NOTYPE  LOCAL  DEFAULT   69 .L0 
   958: 80204910     0 NOTYPE  LOCAL  DEFAULT   69 $x
   959: 80204910     0 NOTYPE  LOCAL  DEFAULT   69 .L0 
   960: 80204930     0 NOTYPE  LOCAL  DEFAULT   69 .L0 
   961: 80204964     0 NOTYPE  LOCAL  DEFAULT   69 .L0 
   962: 802049a0     0 NOTYPE  LOCAL  DEFAULT   69 .L0 
   963: 802049a0     0 NOTYPE  LOCAL  DEFAULT   70 .L0 
   964: 802049a0     0 NOTYPE  LOCAL  DEFAULT   70 .L0 
   965: 802049a0     0 NOTYPE  LOCAL  DEFAULT   70 $x
   966: 802049a0     0 NOTYPE  LOCAL  DEFAULT   70 .L0 
   967: 802049c0     0 NOTYPE  LOCAL  DEFAULT   70 .L0 
   968: 802049c0     0 NOTYPE  LOCAL  DEFAULT   71 .L0 
   969: 802049c0     0 NOTYPE  LOCAL  DEFAULT   71 .L0 
   970: 802049c0     0 NOTYPE  LOCAL  DEFAULT   71 $x
   971: 802049c0     0 NOTYPE  LOCAL  DEFAULT   71 .L0 
   972: 802049e0     0 NOTYPE  LOCAL  DEFAULT   71 .L0 
   973: 00001180     0 NOTYPE  LOCAL  DEFAULT  896 $d
   974: 000067bf     0 NOTYPE  LOCAL  DEFAULT  897 .L0 
   975: 000067bf     0 NOTYPE  LOCAL  DEFAULT  897 $d
   976: 00002061     0 NOTYPE  LOCAL  DEFAULT  904 .Lline_table_start0
   977: 000006e8     0 NOTYPE  LOCAL  DEFAULT  899 .L0 
   978: 00000368     0 NOTYPE  LOCAL  DEFAULT  898 $d
   979: 000006e8     0 NOTYPE  LOCAL  DEFAULT  899 $d
   980: 000948bf     0 NOTYPE  LOCAL  DEFAULT  900 $d
   981: 0000005e     0 NOTYPE  LOCAL  DEFAULT  901 $d
   982: 00000000     0 NOTYPE  LOCAL  DEFAULT  ABS $d
   983: 00000810     0 NOTYPE  LOCAL  DEFAULT  903 .L0 
   984: 00000810     0 NOTYPE  LOCAL  DEFAULT  903 $d
   985: 00002061     0 NOTYPE  LOCAL  DEFAULT  904 $d
   986: 8020486c    20 FUNC    LOCAL  HIDDEN    67 _RNvXNtNtNtCsakCY22H5bhg_4core4iter6traits7collectINtNtNtB8_3ops5range5RangemENtB2_12IntoIterator9into_iterCsg1amJnYx2jd_4main
   987: 802049c0    32 FUNC    LOCAL  HIDDEN    71 _RNvXs4_NtNtCsakCY22H5bhg_4core4iter5rangeINtNtNtB9_3ops5range5RangemENtNtNtB7_6traits8iterator8Iterator4nextCsg1amJnYx2jd_4main
   988: 80204858    20 FUNC    LOCAL  HIDDEN    66 _RNvXNtNtNtCsakCY22H5bhg_4core4iter6traits7collectINtNtNtB8_3ops5range5RangelENtB2_12IntoIterator9into_iterCsg1amJnYx2jd_4main
   989: 802049a0    32 FUNC    LOCAL  HIDDEN    70 _RNvXs4_NtNtCsakCY22H5bhg_4core4iter5rangeINtNtNtB9_3ops5range5RangelENtNtNtB7_6traits8iterator8Iterator4nextCsg1amJnYx2jd_4main
   990: 00000000     0 FILE    LOCAL  DEFAULT  ABS 3k420xj8o1axemswtfuypezsy
   991: 802049e0     0 NOTYPE  LOCAL  DEFAULT   72 .L0 
   992: 802049e0     0 NOTYPE  LOCAL  DEFAULT   72 .L0 
   993: 802049e0     0 NOTYPE  LOCAL  DEFAULT   72 $x
   994: 802049e0     0 NOTYPE  LOCAL  DEFAULT   72 .L0 
   995: 00001279     0 NOTYPE  LOCAL  DEFAULT  896 $d
   996: 00006b9f     0 NOTYPE  LOCAL  DEFAULT  897 .L0 
   997: 00006b9f     0 NOTYPE  LOCAL  DEFAULT  897 $d
   998: 0000223a     0 NOTYPE  LOCAL  DEFAULT  904 .Lline_table_start0
   999: 000003b0     0 NOTYPE  LOCAL  DEFAULT  898 $d
  1000: 000948bf     0 NOTYPE  LOCAL  DEFAULT  900 $d
  1001: 0000005e     0 NOTYPE  LOCAL  DEFAULT  901 $d
  1002: 00000000     0 NOTYPE  LOCAL  DEFAULT  ABS $d
  1003: 000008c4     0 NOTYPE  LOCAL  DEFAULT  903 .L0 
  1004: 000008c4     0 NOTYPE  LOCAL  DEFAULT  903 $d
  1005: 0000223a     0 NOTYPE  LOCAL  DEFAULT  904 $d
  1006: 802049e0    20 FUNC    LOCAL  HIDDEN    72 _RNvXNtNtNtCsakCY22H5bhg_4core4iter6traits7collectNtNtNtB8_3str4iter5BytesNtB2_12IntoIterator9into_iterCsg1amJnYx2jd_4main
  1007: 00000000     0 FILE    LOCAL  DEFAULT  ABS 3o539b6rb6wdx4cuxxce1uq6b
  1008: 802049f4     0 NOTYPE  LOCAL  DEFAULT   73 .L0 
  1009: 802049f4     0 NOTYPE  LOCAL  DEFAULT   73 .L0 
  1010: 802049f4     0 NOTYPE  LOCAL  DEFAULT   73 $x
  1011: 802049f4     0 NOTYPE  LOCAL  DEFAULT   73 .L0 
  1012: 80204a38     0 NOTYPE  LOCAL  DEFAULT   73 .L0 
  1013: 80204a98     0 NOTYPE  LOCAL  DEFAULT   73 .L0 
  1014: 80204a98     0 NOTYPE  LOCAL  DEFAULT   74 .L0 
  1015: 80204a98     0 NOTYPE  LOCAL  DEFAULT   74 .L0 
  1016: 80204a98     0 NOTYPE  LOCAL  DEFAULT   74 $x
  1017: 80204a98     0 NOTYPE  LOCAL  DEFAULT   74 .L0 
  1018: 80204ac8     0 NOTYPE  LOCAL  DEFAULT   74 .L0 
  1019: 80204b10     0 NOTYPE  LOCAL  DEFAULT   74 .L0 
  1020: 80204b10     0 NOTYPE  LOCAL  DEFAULT   75 .L0 
  1021: 80204b10     0 NOTYPE  LOCAL  DEFAULT   75 .L0 
  1022: 80204b10     0 NOTYPE  LOCAL  DEFAULT   75 $x
  1023: 80204b10     0 NOTYPE  LOCAL  DEFAULT   75 .L0 
  1024: 80204b68     0 NOTYPE  LOCAL  DEFAULT   75 .L0 
  1025: 80204bc8     0 NOTYPE  LOCAL  DEFAULT   75 .L0 
  1026: 80204bc8     0 NOTYPE  LOCAL  DEFAULT   76 .L0 
  1027: 80204bc8     0 NOTYPE  LOCAL  DEFAULT   76 .L0 
  1028: 80204bc8     0 NOTYPE  LOCAL  DEFAULT   76 $x
  1029: 80204bc8     0 NOTYPE  LOCAL  DEFAULT   76 .L0 
  1030: 80204c1c     0 NOTYPE  LOCAL  DEFAULT   76 .L0 
  1031: 80204c1c     0 NOTYPE  LOCAL  DEFAULT   77 .L0 
  1032: 80204c1c     0 NOTYPE  LOCAL  DEFAULT   77 .L0 
  1033: 80204c1c     0 NOTYPE  LOCAL  DEFAULT   77 $x
  1034: 80204c1c     0 NOTYPE  LOCAL  DEFAULT   77 .L0 
  1035: 80204c58     0 NOTYPE  LOCAL  DEFAULT   77 .L0 
  1036: 80204c58     0 NOTYPE  LOCAL  DEFAULT   78 .L0 
  1037: 80204c58     0 NOTYPE  LOCAL  DEFAULT   78 .L0 
  1038: 80204c58     0 NOTYPE  LOCAL  DEFAULT   78 $x
  1039: 80204c58     0 NOTYPE  LOCAL  DEFAULT   78 .L0 
  1040: 80204c78     0 NOTYPE  LOCAL  DEFAULT   78 .L0 
  1041: 80204ca4     0 NOTYPE  LOCAL  DEFAULT   78 .L0 
  1042: 80204ca4     0 NOTYPE  LOCAL  DEFAULT   79 .L0 
  1043: 80204ca4     0 NOTYPE  LOCAL  DEFAULT   79 .L0 
  1044: 80204ca4     0 NOTYPE  LOCAL  DEFAULT   79 $x
  1045: 80204ca4     0 NOTYPE  LOCAL  DEFAULT   79 .L0 
  1046: 80204cb4     0 NOTYPE  LOCAL  DEFAULT   79 .L0 
  1047: 80204cb4     0 NOTYPE  LOCAL  DEFAULT   80 .L0 
  1048: 80204cb4     0 NOTYPE  LOCAL  DEFAULT   80 .L0 
  1049: 80204cb4     0 NOTYPE  LOCAL  DEFAULT   80 $x
  1050: 80204cb4     0 NOTYPE  LOCAL  DEFAULT   80 .L0 
  1051: 80204cbc     0 NOTYPE  LOCAL  DEFAULT   80 .L0 
  1052: 80204cbc     0 NOTYPE  LOCAL  DEFAULT   81 .L0 
  1053: 80204cbc     0 NOTYPE  LOCAL  DEFAULT   81 .L0 
  1054: 80204cbc     0 NOTYPE  LOCAL  DEFAULT   81 $x
  1055: 80204cbc     0 NOTYPE  LOCAL  DEFAULT   81 .L0 
  1056: 80204cd0     0 NOTYPE  LOCAL  DEFAULT   81 .L0 
  1057: 000012f5     0 NOTYPE  LOCAL  DEFAULT  896 $d
  1058: 00006d07     0 NOTYPE  LOCAL  DEFAULT  897 .L0 
  1059: 00006d07     0 NOTYPE  LOCAL  DEFAULT  897 $d
  1060: 000022ed     0 NOTYPE  LOCAL  DEFAULT  904 .Lline_table_start0
  1061: 00000720     0 NOTYPE  LOCAL  DEFAULT  899 .L0 
  1062: 000003d0     0 NOTYPE  LOCAL  DEFAULT  898 $d
  1063: 00000720     0 NOTYPE  LOCAL  DEFAULT  899 $d
  1064: 000948bf     0 NOTYPE  LOCAL  DEFAULT  900 $d
  1065: 0000005e     0 NOTYPE  LOCAL  DEFAULT  901 $d
  1066: 00000000     0 NOTYPE  LOCAL  DEFAULT  ABS $d
  1067: 000008f0     0 NOTYPE  LOCAL  DEFAULT  903 .L0 
  1068: 000008f0     0 NOTYPE  LOCAL  DEFAULT  903 $d
  1069: 000022ed     0 NOTYPE  LOCAL  DEFAULT  904 $d
  1070: 80204c1c    60 FUNC    LOCAL  HIDDEN    77 _RNvMNtCsakCY22H5bhg_4core6optionINtB2_6OptionlE16unwrap_uncheckedCsg1amJnYx2jd_4main
  1071: 80204bc8    84 FUNC    LOCAL  HIDDEN    76 _RNvMNtCsakCY22H5bhg_4core6optionINtB2_6OptionOjE6expectCsg1amJnYx2jd_4main
  1072: 802049f4   164 FUNC    LOCAL  HIDDEN    73 _RINvMNtCsakCY22H5bhg_4core6optionINtB3_6OptionINtNtNtB5_3ptr8non_null7NonNullhEE6map_orOhNCNvXs3_CsigOxFuwXbws_22buddy_system_allocatorINtB1x_10LockedHeapKj20_ENtNtNtB5_5alloc6global11GlobalAlloc5alloc0ECsg1amJnYx2jd_4main
  1073: 80204a98   120 FUNC    LOCAL  HIDDEN    74 _RINvMNtCsakCY22H5bhg_4core6optionINtB3_6OptionOmE5ok_oruECsg1amJnYx2jd_4main
  1074: 80204b10   184 FUNC    LOCAL  HIDDEN    75 _RINvMNtCsakCY22H5bhg_4core6optionINtB3_6OptionReE11map_or_elseNtNtCsevzKAMQQtOE_5alloc6string6StringNCNvNtB12_3fmt6format0NvYeNtNtB12_6borrow7ToOwned8to_ownedECsg1amJnYx2jd_4main
  1075: 80204c58    76 FUNC    LOCAL  HIDDEN    78 _RNvMs1_NtCsakCY22H5bhg_4core6optionINtB5_6OptionRhE6copiedCsg1amJnYx2jd_4main
  1076: 80204ca4    16 FUNC    LOCAL  HIDDEN    79 _RNvXs7_NtCsakCY22H5bhg_4core6optionINtB5_6OptionNtNtCsg1amJnYx2jd_4main10virtmemory3UvmENtNtB7_7default7Default7defaultBO_
  1077: 80204cb4     8 FUNC    LOCAL  HIDDEN    80 _RNvXs7_NtCsakCY22H5bhg_4core6optionINtB5_6OptionmENtNtB7_7default7Default7defaultCsg1amJnYx2jd_4main
  1078: 80204cbc    20 FUNC    LOCAL  HIDDEN    81 _RNvXsK_NtCsakCY22H5bhg_4core6optionINtB5_6OptionOmEINtNtNtB7_3ops9try_trait12FromResidualIBy_NtNtB7_7convert10InfallibleEE13from_residualCsg1amJnYx2jd_4main
  1079: 00000000     0 FILE    LOCAL  DEFAULT  ABS 3on74q8ct148uo2vv847cvi6j
  1080: 80204cd0     0 NOTYPE  LOCAL  DEFAULT   82 .L0 
  1081: 80204cd0     0 NOTYPE  LOCAL  DEFAULT   82 .L0 
  1082: 80204cd0     0 NOTYPE  LOCAL  DEFAULT   82 $x
  1083: 80204cd0     0 NOTYPE  LOCAL  DEFAULT   82 .L0 
  1084: 80204e00    36 FUNC    LOCAL  DEFAULT   86 _RNvNvNtCsakCY22H5bhg_4core9ub_checks16maybe_is_aligned7runtimeCsg1amJnYx2jd_4main
  1085: 80204cf4     0 NOTYPE  LOCAL  DEFAULT   82 .L0 
  1086: 80204cf4     0 NOTYPE  LOCAL  DEFAULT   83 .L0 
  1087: 80204cf4     0 NOTYPE  LOCAL  DEFAULT   83 .L0 
  1088: 80204cf4     0 NOTYPE  LOCAL  DEFAULT   83 $x
  1089: 80204cf4     0 NOTYPE  LOCAL  DEFAULT   83 .L0 
  1090: 80204e24     8 FUNC    LOCAL  DEFAULT   87 _RNvNvNtCsakCY22H5bhg_4core9ub_checks17check_language_ub7runtimeCsg1amJnYx2jd_4main
  1091: 80204d34     0 NOTYPE  LOCAL  DEFAULT   83 .L0 
  1092: 80204d34     0 NOTYPE  LOCAL  DEFAULT   84 .L0 
  1093: 80204d34     0 NOTYPE  LOCAL  DEFAULT   84 .L0 
  1094: 80204d34     0 NOTYPE  LOCAL  DEFAULT   84 $x
  1095: 80204d34     0 NOTYPE  LOCAL  DEFAULT   84 .L0 
  1096: 80204e2c   196 FUNC    LOCAL  DEFAULT   88 _RNvNvNtCsakCY22H5bhg_4core9ub_checks23maybe_is_nonoverlapping7runtimeCsg1amJnYx2jd_4main
  1097: 80204d80     0 NOTYPE  LOCAL  DEFAULT   84 .L0 
  1098: 80204d80     0 NOTYPE  LOCAL  DEFAULT   85 .L0 
  1099: 80204d80     0 NOTYPE  LOCAL  DEFAULT   85 .L0 
  1100: 80204d80     0 NOTYPE  LOCAL  DEFAULT   85 $x
  1101: 80204d80     0 NOTYPE  LOCAL  DEFAULT   85 .L0 
  1102: 80204e00     0 NOTYPE  LOCAL  DEFAULT   85 .L0 
  1103: 80204e00     0 NOTYPE  LOCAL  DEFAULT   86 .L0 
  1104: 80204e00     0 NOTYPE  LOCAL  DEFAULT   86 .L0 
  1105: 80204e00     0 NOTYPE  LOCAL  DEFAULT   86 $x
  1106: 80204e00     0 NOTYPE  LOCAL  DEFAULT   86 .L0 
  1107: 80204e24     0 NOTYPE  LOCAL  DEFAULT   86 .L0 
  1108: 80204e24     0 NOTYPE  LOCAL  DEFAULT   87 .L0 
  1109: 80204e24     0 NOTYPE  LOCAL  DEFAULT   87 .L0 
  1110: 80204e24     0 NOTYPE  LOCAL  DEFAULT   87 $x
  1111: 80204e24     0 NOTYPE  LOCAL  DEFAULT   87 .L0 
  1112: 80204e2c     0 NOTYPE  LOCAL  DEFAULT   87 .L0 
  1113: 80204e2c     0 NOTYPE  LOCAL  DEFAULT   88 .L0 
  1114: 80204e2c     0 NOTYPE  LOCAL  DEFAULT   88 .L0 
  1115: 80204e2c     0 NOTYPE  LOCAL  DEFAULT   88 $x
  1116: 80204e2c     0 NOTYPE  LOCAL  DEFAULT   88 .L0 
  1117: 80204e64     0 NOTYPE  LOCAL  DEFAULT   88 .L0 
  1118: 80204e78     0 NOTYPE  LOCAL  DEFAULT   88 .L0 
  1119: 80204e84     0 NOTYPE  LOCAL  DEFAULT   88 .L0 
  1120: 80204eb8     0 NOTYPE  LOCAL  DEFAULT   88 .L0 
  1121: 80204ec8     0 NOTYPE  LOCAL  DEFAULT   88 .L0 
  1122: 80204ed0     0 NOTYPE  LOCAL  DEFAULT   88 .L0 
  1123: 80204edc     0 NOTYPE  LOCAL  DEFAULT   88 .L0 
  1124: 8021f72c    61 OBJECT  LOCAL  DEFAULT  892 .Lanon.51de1ae492d9b3fa49f5307cc24e33ab.0
  1125: 80204ef0     0 NOTYPE  LOCAL  DEFAULT   88 .L0 
  1126: 80204ef0     0 NOTYPE  LOCAL  DEFAULT   88 .L0 
  1127: 8021f72c     0 NOTYPE  LOCAL  DEFAULT  892 $d
  1128: 0000144a     0 NOTYPE  LOCAL  DEFAULT  896 $d
  1129: 00007ad2     0 NOTYPE  LOCAL  DEFAULT  897 .L0 
  1130: 00007ad2     0 NOTYPE  LOCAL  DEFAULT  897 $d
  1131: 00002517     0 NOTYPE  LOCAL  DEFAULT  904 .Lline_table_start0
  1132: 000007a0     0 NOTYPE  LOCAL  DEFAULT  899 .L0 
  1133: 00000770     0 NOTYPE  LOCAL  DEFAULT  899 .L0 
  1134: 00000788     0 NOTYPE  LOCAL  DEFAULT  899 .L0 
  1135: 00000430     0 NOTYPE  LOCAL  DEFAULT  898 $d
  1136: 00000770     0 NOTYPE  LOCAL  DEFAULT  899 $d
  1137: 000948bf     0 NOTYPE  LOCAL  DEFAULT  900 $d
  1138: 0000005e     0 NOTYPE  LOCAL  DEFAULT  901 $d
  1139: 00000000     0 NOTYPE  LOCAL  DEFAULT  ABS $d
  1140: 000009e8     0 NOTYPE  LOCAL  DEFAULT  903 .L0 
  1141: 000009e8     0 NOTYPE  LOCAL  DEFAULT  903 $d
  1142: 00002517     0 NOTYPE  LOCAL  DEFAULT  904 $d
  1143: 80204cf4    64 FUNC    LOCAL  HIDDEN    83 _RNvNtCsakCY22H5bhg_4core9ub_checks17check_language_ubCsg1amJnYx2jd_4main
  1144: 80204cd0    36 FUNC    LOCAL  HIDDEN    82 _RNvNtCsakCY22H5bhg_4core9ub_checks16maybe_is_alignedCsg1amJnYx2jd_4main
  1145: 80204d34    76 FUNC    LOCAL  HIDDEN    84 _RNvNtCsakCY22H5bhg_4core9ub_checks23maybe_is_nonoverlappingCsg1amJnYx2jd_4main
  1146: 80204d80   128 FUNC    LOCAL  HIDDEN    85 _RNvNtCsakCY22H5bhg_4core9ub_checks29maybe_is_aligned_and_not_nullCsg1amJnYx2jd_4main
  1147: 00000000     0 FILE    LOCAL  DEFAULT  ABS 3wklwcx9bjicju9pqog2xsnbo
  1148: 80204ef0     0 NOTYPE  LOCAL  DEFAULT   89 .L0 
  1149: 80204ef0     0 NOTYPE  LOCAL  DEFAULT   89 .L0 
  1150: 80204ef0     0 NOTYPE  LOCAL  DEFAULT   89 $x
  1151: 80204ef0     0 NOTYPE  LOCAL  DEFAULT   89 .L0 
  1152: 80204f1c     0 NOTYPE  LOCAL  DEFAULT   89 .L0 
  1153: 80204f1c     0 NOTYPE  LOCAL  DEFAULT   90 .L0 
  1154: 80204f1c     0 NOTYPE  LOCAL  DEFAULT   90 .L0 
  1155: 80204f1c     0 NOTYPE  LOCAL  DEFAULT   90 $x
  1156: 80204f1c     0 NOTYPE  LOCAL  DEFAULT   90 .L0 
  1157: 80204fb4   104 FUNC    LOCAL  DEFAULT   94 _RNvNvMNtNtCsakCY22H5bhg_4core5alloc6layoutNtB4_6Layout29from_size_alignment_unchecked18precondition_checkCsg1amJnYx2jd_4main
  1158: 80204f68     0 NOTYPE  LOCAL  DEFAULT   90 .L0 
  1159: 80204f68     0 NOTYPE  LOCAL  DEFAULT   91 .L0 
  1160: 80204f68     0 NOTYPE  LOCAL  DEFAULT   91 .L0 
  1161: 80204f68     0 NOTYPE  LOCAL  DEFAULT   91 $x
  1162: 80204f68     0 NOTYPE  LOCAL  DEFAULT   91 .L0 
  1163: 80204f7c     0 NOTYPE  LOCAL  DEFAULT   91 .L0 
  1164: 80204f7c     0 NOTYPE  LOCAL  DEFAULT   92 .L0 
  1165: 80204f7c     0 NOTYPE  LOCAL  DEFAULT   92 .L0 
  1166: 80204f7c     0 NOTYPE  LOCAL  DEFAULT   92 $x
  1167: 80204f7c     0 NOTYPE  LOCAL  DEFAULT   92 .L0 
  1168: 80204fa0     0 NOTYPE  LOCAL  DEFAULT   92 .L0 
  1169: 80204fa0     0 NOTYPE  LOCAL  DEFAULT   93 .L0 
  1170: 80204fa0     0 NOTYPE  LOCAL  DEFAULT   93 .L0 
  1171: 80204fa0     0 NOTYPE  LOCAL  DEFAULT   93 $x
  1172: 80204fa0     0 NOTYPE  LOCAL  DEFAULT   93 .L0 
  1173: 80204fb4     0 NOTYPE  LOCAL  DEFAULT   93 .L0 
  1174: 80204fb4     0 NOTYPE  LOCAL  DEFAULT   94 .L0 
  1175: 80204fb4     0 NOTYPE  LOCAL  DEFAULT   94 .L0 
  1176: 80204fb4     0 NOTYPE  LOCAL  DEFAULT   94 $x
  1177: 80204fb4     0 NOTYPE  LOCAL  DEFAULT   94 .L0 
  1178: 80204fc8     0 NOTYPE  LOCAL  DEFAULT   94 .L0 
  1179: 8021f769   259 OBJECT  LOCAL  DEFAULT  892 .Lanon.8111a4ff3f108122245a2a4533fa092e.0
  1180: 80204fdc     0 NOTYPE  LOCAL  DEFAULT   94 .L0 
  1181: 80204fec     0 NOTYPE  LOCAL  DEFAULT   94 .L0 
  1182: 80205010     0 NOTYPE  LOCAL  DEFAULT   94 .L0 
  1183: 8020501c     0 NOTYPE  LOCAL  DEFAULT   94 .L0 
  1184: 8021f769     0 NOTYPE  LOCAL  DEFAULT  892 $d
  1185: 00001550     0 NOTYPE  LOCAL  DEFAULT  896 $d
  1186: 00007d8e     0 NOTYPE  LOCAL  DEFAULT  897 .L0 
  1187: 00007d8e     0 NOTYPE  LOCAL  DEFAULT  897 $d
  1188: 00002746     0 NOTYPE  LOCAL  DEFAULT  904 .Lline_table_start0
  1189: 000007f8     0 NOTYPE  LOCAL  DEFAULT  899 .L0 
  1190: 000007e0     0 NOTYPE  LOCAL  DEFAULT  899 .L0 
  1191: 00000480     0 NOTYPE  LOCAL  DEFAULT  898 $d
  1192: 000007e0     0 NOTYPE  LOCAL  DEFAULT  899 $d
  1193: 000948bf     0 NOTYPE  LOCAL  DEFAULT  900 $d
  1194: 0000005e     0 NOTYPE  LOCAL  DEFAULT  901 $d
  1195: 00000000     0 NOTYPE  LOCAL  DEFAULT  ABS $d
  1196: 00000abc     0 NOTYPE  LOCAL  DEFAULT  903 .L0 
  1197: 00000abc     0 NOTYPE  LOCAL  DEFAULT  903 $d
  1198: 00002746     0 NOTYPE  LOCAL  DEFAULT  904 $d
  1199: 80204f68    20 FUNC    LOCAL  HIDDEN    91 _RNvMNtNtCsakCY22H5bhg_4core5alloc6layoutNtB2_6Layout4sizeCsg1amJnYx2jd_4main
  1200: 80204ef0    44 FUNC    LOCAL  HIDDEN    89 _RNvMNtNtCsakCY22H5bhg_4core5alloc6layoutNtB2_6Layout12dangling_ptrCsg1amJnYx2jd_4main
  1201: 80204fa0    20 FUNC    LOCAL  HIDDEN    93 _RNvMNtNtCsakCY22H5bhg_4core5alloc6layoutNtB2_6Layout9alignmentCsg1amJnYx2jd_4main
  1202: 80204f7c    36 FUNC    LOCAL  HIDDEN    92 _RNvMNtNtCsakCY22H5bhg_4core5alloc6layoutNtB2_6Layout5alignCsg1amJnYx2jd_4main
  1203: 80204f1c    76 FUNC    LOCAL  HIDDEN    90 _RNvMNtNtCsakCY22H5bhg_4core5alloc6layoutNtB2_6Layout29from_size_alignment_uncheckedCsg1amJnYx2jd_4main
  1204: 00000000     0 FILE    LOCAL  DEFAULT  ABS 49ivufkjz4ozal47mv5yahlm5
  1205: 8020501c     0 NOTYPE  LOCAL  DEFAULT   95 .L0 
  1206: 8020501c     0 NOTYPE  LOCAL  DEFAULT   95 .L0 
  1207: 8020501c     0 NOTYPE  LOCAL  DEFAULT   95 $x
  1208: 8020501c     0 NOTYPE  LOCAL  DEFAULT   95 .L0 
  1209: 80205044     0 NOTYPE  LOCAL  DEFAULT   95 .L0 
  1210: 80205044     0 NOTYPE  LOCAL  DEFAULT   96 .L0 
  1211: 80205044     0 NOTYPE  LOCAL  DEFAULT   96 .L0 
  1212: 80205044     0 NOTYPE  LOCAL  DEFAULT   96 $x
  1213: 80205044     0 NOTYPE  LOCAL  DEFAULT   96 .L0 
  1214: 80205078     0 NOTYPE  LOCAL  DEFAULT   96 .L0 
  1215: 00001664     0 NOTYPE  LOCAL  DEFAULT  896 $d
  1216: 000081a1     0 NOTYPE  LOCAL  DEFAULT  897 .L0 
  1217: 000081a1     0 NOTYPE  LOCAL  DEFAULT  897 $d
  1218: 000028c5     0 NOTYPE  LOCAL  DEFAULT  904 .Lline_table_start0
  1219: 00000830     0 NOTYPE  LOCAL  DEFAULT  899 .L0 
  1220: 000004c8     0 NOTYPE  LOCAL  DEFAULT  898 $d
  1221: 00000830     0 NOTYPE  LOCAL  DEFAULT  899 $d
  1222: 000948bf     0 NOTYPE  LOCAL  DEFAULT  900 $d
  1223: 0000005e     0 NOTYPE  LOCAL  DEFAULT  901 $d
  1224: 00000000     0 NOTYPE  LOCAL  DEFAULT  ABS $d
  1225: 00000b70     0 NOTYPE  LOCAL  DEFAULT  903 .L0 
  1226: 00000b70     0 NOTYPE  LOCAL  DEFAULT  903 $d
  1227: 000028c5     0 NOTYPE  LOCAL  DEFAULT  904 $d
  1228: 8020501c    40 FUNC    LOCAL  HIDDEN    95 _RNvMNtCsakCY22H5bhg_4core3stre3lenCsg1amJnYx2jd_4main
  1229: 80205044    52 FUNC    LOCAL  HIDDEN    96 _RNvMNtCsakCY22H5bhg_4core3stre5bytesCsg1amJnYx2jd_4main
  1230: 00000000     0 FILE    LOCAL  DEFAULT  ABS 4krs1nfdifr966s2bhaqiwulb
  1231: 80205078     0 NOTYPE  LOCAL  DEFAULT   97 $x
  1232: 802050ec     0 NOTYPE  LOCAL  DEFAULT   98 .L0 
  1233: 802050ec     0 NOTYPE  LOCAL  DEFAULT   98 .L0 
  1234: 802050ec     0 NOTYPE  LOCAL  DEFAULT   98 $x
  1235: 802050ec     0 NOTYPE  LOCAL  DEFAULT   98 .L0 
  1236: 8021f86c    16 OBJECT  LOCAL  DEFAULT  892 .Lanon.8a91953eb2a2fed5a94fcd7686c51515.1
  1237: 802051c4     0 NOTYPE  LOCAL  DEFAULT   98 .L0 
  1238: 8021f87c    16 OBJECT  LOCAL  DEFAULT  892 .Lanon.8a91953eb2a2fed5a94fcd7686c51515.2
  1239: 802055f4   208 FUNC    LOCAL  DEFAULT  106 _RNvXsd_NtCsg1amJnYx2jd_4main7processNtB5_7ProcessNtNtCsakCY22H5bhg_4core7default7Default7defaultB7_
  1240: 802052a8     0 NOTYPE  LOCAL  DEFAULT   98 .L0 
  1241: 802052a8     0 NOTYPE  LOCAL  DEFAULT   99 .L0 
  1242: 802052a8     0 NOTYPE  LOCAL  DEFAULT   99 .L0 
  1243: 802052a8     0 NOTYPE  LOCAL  DEFAULT   99 $x
  1244: 802052a8     0 NOTYPE  LOCAL  DEFAULT   99 .L0 
  1245: 802052d0    92 FUNC    LOCAL  DEFAULT  100 _RNvMs_NtCsg1amJnYx2jd_4main7processNtB4_7Process5sched
  1246: 802052d0     0 NOTYPE  LOCAL  DEFAULT   99 .L0 
  1247: 802052d0     0 NOTYPE  LOCAL  DEFAULT  100 .L0 
  1248: 802052d0     0 NOTYPE  LOCAL  DEFAULT  100 .L0 
  1249: 802052d0     0 NOTYPE  LOCAL  DEFAULT  100 $x
  1250: 802052d0     0 NOTYPE  LOCAL  DEFAULT  100 .L0 
  1251: 802052ec     0 NOTYPE  LOCAL  DEFAULT  100 .L0 
  1252: 80205310     0 NOTYPE  LOCAL  DEFAULT  100 .L0 
  1253: 8020531c     0 NOTYPE  LOCAL  DEFAULT  100 .L0 
  1254: 8021f88c    16 OBJECT  LOCAL  DEFAULT  892 .Lanon.8a91953eb2a2fed5a94fcd7686c51515.3
  1255: 8020532c     0 NOTYPE  LOCAL  DEFAULT  100 .L0 
  1256: 8020532c     0 NOTYPE  LOCAL  DEFAULT  100 .L0 
  1257: 8020532c     0 NOTYPE  LOCAL  DEFAULT  101 .L0 
  1258: 8020532c     0 NOTYPE  LOCAL  DEFAULT  101 .L0 
  1259: 8020532c     0 NOTYPE  LOCAL  DEFAULT  101 $x
  1260: 8020532c     0 NOTYPE  LOCAL  DEFAULT  101 .L0 
  1261: 8021f89c    10 OBJECT  LOCAL  DEFAULT  892 .Lanon.8a91953eb2a2fed5a94fcd7686c51515.4
  1262: 8020536c     0 NOTYPE  LOCAL  DEFAULT  101 .L0 
  1263: 8021f8a8    16 OBJECT  LOCAL  DEFAULT  892 .Lanon.8a91953eb2a2fed5a94fcd7686c51515.5
  1264: 80205418     0 NOTYPE  LOCAL  DEFAULT  101 .L0 
  1265: 8020541c     0 NOTYPE  LOCAL  DEFAULT  101 .L0 
  1266: 80205430     0 NOTYPE  LOCAL  DEFAULT  101 .L0 
  1267: 80205454     0 NOTYPE  LOCAL  DEFAULT  101 .L0 
  1268: 8021f8b8     1 OBJECT  LOCAL  DEFAULT  892 .Lanon.8a91953eb2a2fed5a94fcd7686c51515.6
  1269: 802054a0     0 NOTYPE  LOCAL  DEFAULT  101 .L0 
  1270: 802054a8     0 NOTYPE  LOCAL  DEFAULT  101 .L0 
  1271: 8021f8bc    16 OBJECT  LOCAL  DEFAULT  892 .Lanon.8a91953eb2a2fed5a94fcd7686c51515.7
  1272: 802054bc     0 NOTYPE  LOCAL  DEFAULT  101 .L0 
  1273: 802054dc     0 NOTYPE  LOCAL  DEFAULT  101 .L0 
  1274: 8021f8cc    16 OBJECT  LOCAL  DEFAULT  892 .Lanon.8a91953eb2a2fed5a94fcd7686c51515.8
  1275: 80205518     0 NOTYPE  LOCAL  DEFAULT  101 .L0 
  1276: 8020551c     0 NOTYPE  LOCAL  DEFAULT  101 .L0 
  1277: 8021f8dc    16 OBJECT  LOCAL  DEFAULT  892 .Lanon.8a91953eb2a2fed5a94fcd7686c51515.9
  1278: 8020552c     0 NOTYPE  LOCAL  DEFAULT  101 .L0 
  1279: 8020552c     0 NOTYPE  LOCAL  DEFAULT  101 .L0 
  1280: 8020552c     8 FUNC    LOCAL  DEFAULT  102 _RNvXs4_NtCsg1amJnYx2jd_4main7processNtB5_9ProcStateNtNtCsakCY22H5bhg_4core7default7Default7defaultB7_
  1281: 8020552c     0 NOTYPE  LOCAL  DEFAULT  102 .L0 
  1282: 8020552c     0 NOTYPE  LOCAL  DEFAULT  102 .L0 
  1283: 8020552c     0 NOTYPE  LOCAL  DEFAULT  102 $x
  1284: 8020552c     0 NOTYPE  LOCAL  DEFAULT  102 .L0 
  1285: 80205534     0 NOTYPE  LOCAL  DEFAULT  102 .L0 
  1286: 80205534     0 NOTYPE  LOCAL  DEFAULT  103 .L0 
  1287: 80205534     0 NOTYPE  LOCAL  DEFAULT  103 .L0 
  1288: 80205534     0 NOTYPE  LOCAL  DEFAULT  103 $x
  1289: 80205534     0 NOTYPE  LOCAL  DEFAULT  103 .L0 
  1290: 80205548     0 NOTYPE  LOCAL  DEFAULT  103 .L0 
  1291: 80205550     0 NOTYPE  LOCAL  DEFAULT  103 .L0 
  1292: 80205560     0 NOTYPE  LOCAL  DEFAULT  103 .L0 
  1293: 80205560     0 NOTYPE  LOCAL  DEFAULT  104 .L0 
  1294: 80205560     0 NOTYPE  LOCAL  DEFAULT  104 .L0 
  1295: 80205560     0 NOTYPE  LOCAL  DEFAULT  104 $x
  1296: 80205560     0 NOTYPE  LOCAL  DEFAULT  104 .L0 
  1297: 802055a4     0 NOTYPE  LOCAL  DEFAULT  104 .L0 
  1298: 802055a4     0 NOTYPE  LOCAL  DEFAULT  105 .L0 
  1299: 802055a4     0 NOTYPE  LOCAL  DEFAULT  105 .L0 
  1300: 802055a4     0 NOTYPE  LOCAL  DEFAULT  105 $x
  1301: 802055a4     0 NOTYPE  LOCAL  DEFAULT  105 .L0 
  1302: 802055f4     0 NOTYPE  LOCAL  DEFAULT  105 .L0 
  1303: 802055f4     0 NOTYPE  LOCAL  DEFAULT  106 .L0 
  1304: 802055f4     0 NOTYPE  LOCAL  DEFAULT  106 .L0 
  1305: 802055f4     0 NOTYPE  LOCAL  DEFAULT  106 $x
  1306: 802055f4     0 NOTYPE  LOCAL  DEFAULT  106 .L0 
  1307: 802056c4     0 NOTYPE  LOCAL  DEFAULT  106 .L0 
  1308: 8021ecd4     0 NOTYPE  LOCAL  DEFAULT  892 $d
  1309: 8021f86c     0 NOTYPE  LOCAL  DEFAULT  892 $d
  1310: 8021f87c     0 NOTYPE  LOCAL  DEFAULT  892 $d
  1311: 8021f88c     0 NOTYPE  LOCAL  DEFAULT  892 $d
  1312: 8021f89c     0 NOTYPE  LOCAL  DEFAULT  892 $d
  1313: 8021f8a8     0 NOTYPE  LOCAL  DEFAULT  892 $d
  1314: 8021f8b8     0 NOTYPE  LOCAL  DEFAULT  892 $d
  1315: 8021f8bc     0 NOTYPE  LOCAL  DEFAULT  892 $d
  1316: 8021f8cc     0 NOTYPE  LOCAL  DEFAULT  892 $d
  1317: 8021f8dc     0 NOTYPE  LOCAL  DEFAULT  892 $d
  1318: 00001727     0 NOTYPE  LOCAL  DEFAULT  896 $d
  1319: 0000834a     0 NOTYPE  LOCAL  DEFAULT  897 .L0 
  1320: 0000834a     0 NOTYPE  LOCAL  DEFAULT  897 $d
  1321: 0000298b     0 NOTYPE  LOCAL  DEFAULT  904 .Lline_table_start0
  1322: 00000898     0 NOTYPE  LOCAL  DEFAULT  899 .L0 
  1323: 00000860     0 NOTYPE  LOCAL  DEFAULT  899 .L0 
  1324: 00000878     0 NOTYPE  LOCAL  DEFAULT  899 .L0 
  1325: 00000848     0 NOTYPE  LOCAL  DEFAULT  899 .L0 
  1326: 000004f0     0 NOTYPE  LOCAL  DEFAULT  898 $d
  1327: 00000848     0 NOTYPE  LOCAL  DEFAULT  899 $d
  1328: 000948bf     0 NOTYPE  LOCAL  DEFAULT  900 $d
  1329: 0000005e     0 NOTYPE  LOCAL  DEFAULT  901 $d
  1330: 00000000     0 NOTYPE  LOCAL  DEFAULT  ABS $d
  1331: 00000bb8     0 NOTYPE  LOCAL  DEFAULT  903 .L0 
  1332: 00000bb8     0 NOTYPE  LOCAL  DEFAULT  903 $d
  1333: 0000298b     0 NOTYPE  LOCAL  DEFAULT  904 $d
  1334: 802050ec   444 FUNC    LOCAL  HIDDEN    98 _RNvMs_NtCsg1amJnYx2jd_4main7processNtB4_7Process3new
  1335: 80205534    44 FUNC    LOCAL  HIDDEN   103 _RNvXs6_NtCsg1amJnYx2jd_4main7processNtB5_9ProcStateNtNtCsakCY22H5bhg_4core3cmp9PartialEq2eqB7_
  1336: 80205560    68 FUNC    LOCAL  HIDDEN   104 _RNvXsb_NtCsg1amJnYx2jd_4main7processNtB5_7ContextNtNtCsakCY22H5bhg_4core7default7Default7defaultB7_
  1337: 802055a4    80 FUNC    LOCAL  HIDDEN   105 _RNvXsc_NtCsg1amJnYx2jd_4main7processNtB5_3CpuNtNtCsakCY22H5bhg_4core7default7Default7defaultB7_
  1338: 802052a8    40 FUNC    LOCAL  HIDDEN    99 _RNvMs_NtCsg1amJnYx2jd_4main7processNtB4_7Process4yeld
  1339: 80205078   116 FUNC    LOCAL  HIDDEN    97 _RNvNtCsg1amJnYx2jd_4main7process6switch
  1340: 8020532c   512 FUNC    LOCAL  HIDDEN   101 _RNvNtCsg1amJnYx2jd_4main7process9scheduler
  1341: 00000000     0 FILE    LOCAL  DEFAULT  ABS 4y198hhfy8bx6axwezvwny4qm
  1342: 802056c4     0 NOTYPE  LOCAL  DEFAULT  107 .L0 
  1343: 802056c4     0 NOTYPE  LOCAL  DEFAULT  107 .L0 
  1344: 802056c4     0 NOTYPE  LOCAL  DEFAULT  107 $x
  1345: 802056c4     0 NOTYPE  LOCAL  DEFAULT  107 .L0 
  1346: 000018e0     0 NOTYPE  LOCAL  DEFAULT  896 $d
  1347: 00008eca     0 NOTYPE  LOCAL  DEFAULT  897 .L0 
  1348: 00008eca     0 NOTYPE  LOCAL  DEFAULT  897 $d
  1349: 00002cd9     0 NOTYPE  LOCAL  DEFAULT  904 .Lline_table_start0
  1350: 00000558     0 NOTYPE  LOCAL  DEFAULT  898 $d
  1351: 000948bf     0 NOTYPE  LOCAL  DEFAULT  900 $d
  1352: 0000005e     0 NOTYPE  LOCAL  DEFAULT  901 $d
  1353: 00000000     0 NOTYPE  LOCAL  DEFAULT  ABS $d
  1354: 00000cd0     0 NOTYPE  LOCAL  DEFAULT  903 .L0 
  1355: 00000cd0     0 NOTYPE  LOCAL  DEFAULT  903 $d
  1356: 00002cd9     0 NOTYPE  LOCAL  DEFAULT  904 $d
  1357: 802056c4    72 FUNC    LOCAL  HIDDEN   107 _RNvXs2_NtCsevzKAMQQtOE_5alloc3streNtNtB7_6borrow7ToOwned8to_ownedCsg1amJnYx2jd_4main
  1358: 00000000     0 FILE    LOCAL  DEFAULT  ABS 5fz3k594fs07qi150w53ntygl
  1359: 8020570c     0 NOTYPE  LOCAL  DEFAULT  108 .L0 
  1360: 8020570c     0 NOTYPE  LOCAL  DEFAULT  108 .L0 
  1361: 8020570c     0 NOTYPE  LOCAL  DEFAULT  108 $x
  1362: 8020570c     0 NOTYPE  LOCAL  DEFAULT  108 .L0 
  1363: 8020573c     0 NOTYPE  LOCAL  DEFAULT  108 .L0 
  1364: 8020573c    40 FUNC    LOCAL  DEFAULT  109 _RNvMNtCsevzKAMQQtOE_5alloc6stringNtB2_6String6as_strCsg1amJnYx2jd_4main
  1365: 8020573c     0 NOTYPE  LOCAL  DEFAULT  109 .L0 
  1366: 8020573c     0 NOTYPE  LOCAL  DEFAULT  109 .L0 
  1367: 8020573c     0 NOTYPE  LOCAL  DEFAULT  109 $x
  1368: 8020573c     0 NOTYPE  LOCAL  DEFAULT  109 .L0 
  1369: 80205764     0 NOTYPE  LOCAL  DEFAULT  109 .L0 
  1370: 80205764     0 NOTYPE  LOCAL  DEFAULT  110 .L0 
  1371: 80205764     0 NOTYPE  LOCAL  DEFAULT  110 .L0 
  1372: 80205764     0 NOTYPE  LOCAL  DEFAULT  110 $x
  1373: 80205764     0 NOTYPE  LOCAL  DEFAULT  110 .L0 
  1374: 80205784     0 NOTYPE  LOCAL  DEFAULT  110 .L0 
  1375: 00000052     0 NOTYPE  LOCAL  DEFAULT  905 .L0 
  1376: 00000052     0 NOTYPE  LOCAL  DEFAULT  905 $d
  1377: 0000198d     0 NOTYPE  LOCAL  DEFAULT  896 $d
  1378: 000090d7     0 NOTYPE  LOCAL  DEFAULT  897 .L0 
  1379: 000090d7     0 NOTYPE  LOCAL  DEFAULT  897 $d
  1380: 00002d87     0 NOTYPE  LOCAL  DEFAULT  904 .Lline_table_start0
  1381: 000008f0     0 NOTYPE  LOCAL  DEFAULT  899 .L0 
  1382: 00000578     0 NOTYPE  LOCAL  DEFAULT  898 $d
  1383: 000008f0     0 NOTYPE  LOCAL  DEFAULT  899 $d
  1384: 000948bf     0 NOTYPE  LOCAL  DEFAULT  900 $d
  1385: 0000005e     0 NOTYPE  LOCAL  DEFAULT  901 $d
  1386: 00000000     0 NOTYPE  LOCAL  DEFAULT  ABS $d
  1387: 00000d00     0 NOTYPE  LOCAL  DEFAULT  903 .L0 
  1388: 00000d00     0 NOTYPE  LOCAL  DEFAULT  903 $d
  1389: 00002d87     0 NOTYPE  LOCAL  DEFAULT  904 $d
  1390: 80205764    32 FUNC    LOCAL  HIDDEN   110 _RNvXsx_NtCsevzKAMQQtOE_5alloc6stringNtB5_6StringNtNtNtCsakCY22H5bhg_4core3ops5deref5Deref5derefCsg1amJnYx2jd_4main
  1391: 8020570c    48 FUNC    LOCAL  HIDDEN   108 _RNvMNtCsevzKAMQQtOE_5alloc6stringNtB2_6String19from_utf8_uncheckedCsg1amJnYx2jd_4main
  1392: 00000000     0 FILE    LOCAL  DEFAULT  ABS 5xf2wj0sd1f5y0t7yxcy499wg
  1393: 80205784     0 NOTYPE  LOCAL  DEFAULT  111 .L0 
  1394: 80205784     0 NOTYPE  LOCAL  DEFAULT  111 .L0 
  1395: 80205784     0 NOTYPE  LOCAL  DEFAULT  111 $x
  1396: 80205784     0 NOTYPE  LOCAL  DEFAULT  111 .L0 
  1397: 00001a6e     0 NOTYPE  LOCAL  DEFAULT  896 $d
  1398: 00009358     0 NOTYPE  LOCAL  DEFAULT  897 .L0 
  1399: 00009358     0 NOTYPE  LOCAL  DEFAULT  897 $d
  1400: 00002e67     0 NOTYPE  LOCAL  DEFAULT  904 .Lline_table_start0
  1401: 000005a8     0 NOTYPE  LOCAL  DEFAULT  898 $d
  1402: 000948bf     0 NOTYPE  LOCAL  DEFAULT  900 $d
  1403: 0000005e     0 NOTYPE  LOCAL  DEFAULT  901 $d
  1404: 00000000     0 NOTYPE  LOCAL  DEFAULT  ABS $d
  1405: 00000d64     0 NOTYPE  LOCAL  DEFAULT  903 .L0 
  1406: 00000d64     0 NOTYPE  LOCAL  DEFAULT  903 $d
  1407: 00002e67     0 NOTYPE  LOCAL  DEFAULT  904 $d
  1408: 80205784    20 FUNC    LOCAL  HIDDEN   111 _RNvXNtNtNtCsakCY22H5bhg_4core4iter6traits7collectNtNtCsigOxFuwXbws_22buddy_system_allocator11linked_list7IterMutNtB2_12IntoIterator9into_iterCsg1amJnYx2jd_4main
  1409: 00000000     0 FILE    LOCAL  DEFAULT  ABS 5xfns5oegjtwq0sbwmlby77qc
  1410: 80205798     0 NOTYPE  LOCAL  DEFAULT  112 .L0 
  1411: 80205798     0 NOTYPE  LOCAL  DEFAULT  112 .L0 
  1412: 80205798     0 NOTYPE  LOCAL  DEFAULT  112 $x
  1413: 80205798     0 NOTYPE  LOCAL  DEFAULT  112 .L0 
  1414: 00001aea     0 NOTYPE  LOCAL  DEFAULT  896 $d
  1415: 00009457     0 NOTYPE  LOCAL  DEFAULT  897 .L0 
  1416: 00009457     0 NOTYPE  LOCAL  DEFAULT  897 $d
  1417: 00002f1a     0 NOTYPE  LOCAL  DEFAULT  904 .Lline_table_start0
  1418: 000005c8     0 NOTYPE  LOCAL  DEFAULT  898 $d
  1419: 000948bf     0 NOTYPE  LOCAL  DEFAULT  900 $d
  1420: 0000005e     0 NOTYPE  LOCAL  DEFAULT  901 $d
  1421: 00000000     0 NOTYPE  LOCAL  DEFAULT  ABS $d
  1422: 00000d90     0 NOTYPE  LOCAL  DEFAULT  903 .L0 
  1423: 00000d90     0 NOTYPE  LOCAL  DEFAULT  903 $d
  1424: 00002f1a     0 NOTYPE  LOCAL  DEFAULT  904 $d
  1425: 80205798     8 FUNC    LOCAL  HIDDEN   112 _RNvNtNtCsakCY22H5bhg_4core9core_arch12riscv_shared5pauseCsg1amJnYx2jd_4main
  1426: 00000000     0 FILE    LOCAL  DEFAULT  ABS 5y6alifp4cabw36xqdoe3vw3x
  1427: 802057a0     0 NOTYPE  LOCAL  DEFAULT  113 .L0 
  1428: 802057a0     0 NOTYPE  LOCAL  DEFAULT  113 .L0 
  1429: 802057a0     0 NOTYPE  LOCAL  DEFAULT  113 $x
  1430: 802057a0     0 NOTYPE  LOCAL  DEFAULT  113 .L0 
  1431: 00001b18     0 NOTYPE  LOCAL  DEFAULT  896 $d
  1432: 000094a5     0 NOTYPE  LOCAL  DEFAULT  897 .L0 
  1433: 000094a5     0 NOTYPE  LOCAL  DEFAULT  897 $d
  1434: 00002fed     0 NOTYPE  LOCAL  DEFAULT  904 .Lline_table_start0
  1435: 000005e8     0 NOTYPE  LOCAL  DEFAULT  898 $d
  1436: 000948bf     0 NOTYPE  LOCAL  DEFAULT  900 $d
  1437: 0000005e     0 NOTYPE  LOCAL  DEFAULT  901 $d
  1438: 00000000     0 NOTYPE  LOCAL  DEFAULT  ABS $d
  1439: 00000db4     0 NOTYPE  LOCAL  DEFAULT  903 .L0 
  1440: 00000db4     0 NOTYPE  LOCAL  DEFAULT  903 $d
  1441: 00002fed     0 NOTYPE  LOCAL  DEFAULT  904 $d
  1442: 802057a0    20 FUNC    LOCAL  HIDDEN   113 _RNvXsc_NtNtCsj4ivliY6BXz_4spin5mutex4spinINtB5_14SpinMutexGuardINtCsigOxFuwXbws_22buddy_system_allocator4HeapKj20_EENtNtNtCsakCY22H5bhg_4core3ops5deref8DerefMut9deref_mutCsg1amJnYx2jd_4main
  1443: 00000000     0 FILE    LOCAL  DEFAULT  ABS 6jf6n0e8se8c749no2t8e28lg
  1444: 802057b4     0 NOTYPE  LOCAL  DEFAULT  114 .L0 
  1445: 802057b4     0 NOTYPE  LOCAL  DEFAULT  114 .L0 
  1446: 802057b4     0 NOTYPE  LOCAL  DEFAULT  114 $x
  1447: 802057b4     0 NOTYPE  LOCAL  DEFAULT  114 .L0 
  1448: 802057cc     0 NOTYPE  LOCAL  DEFAULT  114 .L0 
  1449: 8021f8ec   214 OBJECT  LOCAL  DEFAULT  892 .Lanon.9496b2aff8442f2e2025a873507420b4.0
  1450: 802057e0     0 NOTYPE  LOCAL  DEFAULT  114 .L0 
  1451: 80205820    64 FUNC    LOCAL  DEFAULT  115 _RNvNvMNtNtCsakCY22H5bhg_4core3ptr7mut_ptrOp3add18runtime_add_nowrapCsg1amJnYx2jd_4main
  1452: 802057f0     0 NOTYPE  LOCAL  DEFAULT  114 .L0 
  1453: 80205814     0 NOTYPE  LOCAL  DEFAULT  114 .L0 
  1454: 80205820     0 NOTYPE  LOCAL  DEFAULT  114 .L0 
  1455: 80205820     0 NOTYPE  LOCAL  DEFAULT  115 .L0 
  1456: 80205820     0 NOTYPE  LOCAL  DEFAULT  115 .L0 
  1457: 80205820     0 NOTYPE  LOCAL  DEFAULT  115 $x
  1458: 80205820     0 NOTYPE  LOCAL  DEFAULT  115 .L0 
  1459: 80205860   200 FUNC    LOCAL  DEFAULT  116 _RNvNvNvMNtNtCsakCY22H5bhg_4core3ptr7mut_ptrOp3add18runtime_add_nowrap7runtimeCsg1amJnYx2jd_4main
  1460: 80205860     0 NOTYPE  LOCAL  DEFAULT  115 .L0 
  1461: 80205860     0 NOTYPE  LOCAL  DEFAULT  116 .L0 
  1462: 80205860     0 NOTYPE  LOCAL  DEFAULT  116 .L0 
  1463: 80205860     0 NOTYPE  LOCAL  DEFAULT  116 $x
  1464: 80205860     0 NOTYPE  LOCAL  DEFAULT  116 .L0 
  1465: 802058cc     0 NOTYPE  LOCAL  DEFAULT  116 .L0 
  1466: 802058e4     0 NOTYPE  LOCAL  DEFAULT  116 .L0 
  1467: 802058ec     0 NOTYPE  LOCAL  DEFAULT  116 .L0 
  1468: 802058fc     0 NOTYPE  LOCAL  DEFAULT  116 .L0 
  1469: 80205918     0 NOTYPE  LOCAL  DEFAULT  116 .L0 
  1470: 80205928     0 NOTYPE  LOCAL  DEFAULT  116 .L0 
  1471: 8021f8ec     0 NOTYPE  LOCAL  DEFAULT  892 $d
  1472: 00001bb1     0 NOTYPE  LOCAL  DEFAULT  896 $d
  1473: 0000967d     0 NOTYPE  LOCAL  DEFAULT  897 .L0 
  1474: 0000967d     0 NOTYPE  LOCAL  DEFAULT  897 $d
  1475: 00003085     0 NOTYPE  LOCAL  DEFAULT  904 .Lline_table_start0
  1476: 00000958     0 NOTYPE  LOCAL  DEFAULT  899 .L0 
  1477: 00000910     0 NOTYPE  LOCAL  DEFAULT  899 .L0 
  1478: 00000928     0 NOTYPE  LOCAL  DEFAULT  899 .L0 
  1479: 00000940     0 NOTYPE  LOCAL  DEFAULT  899 .L0 
  1480: 00000608     0 NOTYPE  LOCAL  DEFAULT  898 $d
  1481: 00000910     0 NOTYPE  LOCAL  DEFAULT  899 $d
  1482: 000948bf     0 NOTYPE  LOCAL  DEFAULT  900 $d
  1483: 0000005e     0 NOTYPE  LOCAL  DEFAULT  901 $d
  1484: 00000000     0 NOTYPE  LOCAL  DEFAULT  ABS $d
  1485: 00000de0     0 NOTYPE  LOCAL  DEFAULT  903 .L0 
  1486: 00000de0     0 NOTYPE  LOCAL  DEFAULT  903 $d
  1487: 00003085     0 NOTYPE  LOCAL  DEFAULT  904 $d
  1488: 802057b4   108 FUNC    LOCAL  HIDDEN   114 _RNvNvMNtNtCsakCY22H5bhg_4core3ptr7mut_ptrOp3add18precondition_checkCsg1amJnYx2jd_4main
  1489: 00000000     0 FILE    LOCAL  DEFAULT  ABS 6oxsh3d5blsivojmiehi1y8u1
  1490: 80205928     0 NOTYPE  LOCAL  DEFAULT  117 .L0 
  1491: 80205928     0 NOTYPE  LOCAL  DEFAULT  117 .L0 
  1492: 80205928     0 NOTYPE  LOCAL  DEFAULT  117 $x
  1493: 80205928     0 NOTYPE  LOCAL  DEFAULT  117 .L0 
  1494: 80205938     0 NOTYPE  LOCAL  DEFAULT  117 .L0 
  1495: 80205938     0 NOTYPE  LOCAL  DEFAULT  118 .L0 
  1496: 80205938     0 NOTYPE  LOCAL  DEFAULT  118 .L0 
  1497: 80205938     0 NOTYPE  LOCAL  DEFAULT  118 $x
  1498: 80205938     0 NOTYPE  LOCAL  DEFAULT  118 .L0 
  1499: 80205960     0 NOTYPE  LOCAL  DEFAULT  118 .L0 
  1500: 00001cc3     0 NOTYPE  LOCAL  DEFAULT  896 $d
  1501: 000098c3     0 NOTYPE  LOCAL  DEFAULT  897 .L0 
  1502: 000098c3     0 NOTYPE  LOCAL  DEFAULT  897 $d
  1503: 0000323d     0 NOTYPE  LOCAL  DEFAULT  904 .Lline_table_start0
  1504: 00000978     0 NOTYPE  LOCAL  DEFAULT  899 .L0 
  1505: 00000638     0 NOTYPE  LOCAL  DEFAULT  898 $d
  1506: 00000978     0 NOTYPE  LOCAL  DEFAULT  899 $d
  1507: 000948bf     0 NOTYPE  LOCAL  DEFAULT  900 $d
  1508: 0000005e     0 NOTYPE  LOCAL  DEFAULT  901 $d
  1509: 00000000     0 NOTYPE  LOCAL  DEFAULT  ABS $d
  1510: 00000e48     0 NOTYPE  LOCAL  DEFAULT  903 .L0 
  1511: 00000e48     0 NOTYPE  LOCAL  DEFAULT  903 $d
  1512: 0000323d     0 NOTYPE  LOCAL  DEFAULT  904 $d
  1513: 80205928    16 FUNC    LOCAL  HIDDEN   117 _RNvMNtNtCsakCY22H5bhg_4core3mem9alignmentNtB2_9Alignment16as_nonzero_usizeCsg1amJnYx2jd_4main
  1514: 80205938    40 FUNC    LOCAL  HIDDEN   118 _RNvMNtNtCsakCY22H5bhg_4core3mem9alignmentNtB2_9Alignment8as_usizeCsg1amJnYx2jd_4main
  1515: 00000000     0 FILE    LOCAL  DEFAULT  ABS 6zahxijkr6f2bjc7p6on9jmho
  1516: 80205960     0 NOTYPE  LOCAL  DEFAULT  119 .L0 
  1517: 80205960     0 NOTYPE  LOCAL  DEFAULT  119 .L0 
  1518: 80205960     0 NOTYPE  LOCAL  DEFAULT  119 $x
  1519: 80205960     0 NOTYPE  LOCAL  DEFAULT  119 .L0 
  1520: 802059c0     0 NOTYPE  LOCAL  DEFAULT  119 .L0 
  1521: 00001d5d     0 NOTYPE  LOCAL  DEFAULT  896 $d
  1522: 00009ad0     0 NOTYPE  LOCAL  DEFAULT  897 .L0 
  1523: 00009ad0     0 NOTYPE  LOCAL  DEFAULT  897 $d
  1524: 00003307     0 NOTYPE  LOCAL  DEFAULT  904 .Lline_table_start0
  1525: 00000660     0 NOTYPE  LOCAL  DEFAULT  898 $d
  1526: 000948bf     0 NOTYPE  LOCAL  DEFAULT  900 $d
  1527: 0000005e     0 NOTYPE  LOCAL  DEFAULT  901 $d
  1528: 00000000     0 NOTYPE  LOCAL  DEFAULT  ABS $d
  1529: 00000e90     0 NOTYPE  LOCAL  DEFAULT  903 .L0 
  1530: 00000e90     0 NOTYPE  LOCAL  DEFAULT  903 $d
  1531: 00003307     0 NOTYPE  LOCAL  DEFAULT  904 $d
  1532: 80205960   116 FUNC    LOCAL  HIDDEN   119 _RNvNtCsevzKAMQQtOE_5alloc5boxed14box_new_uninitCsg1amJnYx2jd_4main
  1533: 00000000     0 FILE    LOCAL  DEFAULT  ABS 88zu5s52qjhdvhw04q4n566dm
  1534: 802059d4     0 NOTYPE  LOCAL  DEFAULT  120 .L0 
  1535: 802059d4     0 NOTYPE  LOCAL  DEFAULT  120 .L0 
  1536: 802059d4     0 NOTYPE  LOCAL  DEFAULT  120 $x
  1537: 802059d4     0 NOTYPE  LOCAL  DEFAULT  120 .L0 
  1538: 00001e30     0 NOTYPE  LOCAL  DEFAULT  896 $d
  1539: 00009d11     0 NOTYPE  LOCAL  DEFAULT  897 .L0 
  1540: 00009d11     0 NOTYPE  LOCAL  DEFAULT  897 $d
  1541: 000033cc     0 NOTYPE  LOCAL  DEFAULT  904 .Lline_table_start0
  1542: 00000680     0 NOTYPE  LOCAL  DEFAULT  898 $d
  1543: 000948bf     0 NOTYPE  LOCAL  DEFAULT  900 $d
  1544: 0000005e     0 NOTYPE  LOCAL  DEFAULT  901 $d
  1545: 00000000     0 NOTYPE  LOCAL  DEFAULT  ABS $d
  1546: 00000ec0     0 NOTYPE  LOCAL  DEFAULT  903 .L0 
  1547: 00000ec0     0 NOTYPE  LOCAL  DEFAULT  903 $d
  1548: 000033cc     0 NOTYPE  LOCAL  DEFAULT  904 $d
  1549: 802059d4    40 FUNC    LOCAL  HIDDEN   120 _RNvXs1g_NtCsakCY22H5bhg_4core3fmtRNtNtNtB8_5panic8location8LocationNtB6_5Debug3fmtCsg1amJnYx2jd_4main
  1550: 00000000     0 FILE    LOCAL  DEFAULT  ABS 8ctu10lpcz4riei749ymkiw72
  1551: 802059fc     0 NOTYPE  LOCAL  DEFAULT  121 .L0 
  1552: 802059fc     0 NOTYPE  LOCAL  DEFAULT  121 .L0 
  1553: 802059fc     0 NOTYPE  LOCAL  DEFAULT  121 $x
  1554: 802059fc     0 NOTYPE  LOCAL  DEFAULT  121 .L0 
  1555: 80205a10     0 NOTYPE  LOCAL  DEFAULT  121 .L0 
  1556: 80205a10     0 NOTYPE  LOCAL  DEFAULT  122 .L0 
  1557: 80205a10     0 NOTYPE  LOCAL  DEFAULT  122 .L0 
  1558: 80205a10     0 NOTYPE  LOCAL  DEFAULT  122 $x
  1559: 80205a10     0 NOTYPE  LOCAL  DEFAULT  122 .L0 
  1560: 80205a24     0 NOTYPE  LOCAL  DEFAULT  122 .L0 
  1561: 80205a24     0 NOTYPE  LOCAL  DEFAULT  123 .L0 
  1562: 80205a24     0 NOTYPE  LOCAL  DEFAULT  123 .L0 
  1563: 80205a24     0 NOTYPE  LOCAL  DEFAULT  123 $x
  1564: 80205a24     0 NOTYPE  LOCAL  DEFAULT  123 .L0 
  1565: 80205a38     0 NOTYPE  LOCAL  DEFAULT  123 .L0 
  1566: 80205a38     0 NOTYPE  LOCAL  DEFAULT  124 .L0 
  1567: 80205a38     0 NOTYPE  LOCAL  DEFAULT  124 .L0 
  1568: 80205a38     0 NOTYPE  LOCAL  DEFAULT  124 $x
  1569: 80205a38     0 NOTYPE  LOCAL  DEFAULT  124 .L0 
  1570: 80205a4c     0 NOTYPE  LOCAL  DEFAULT  124 .L0 
  1571: 80205a4c     0 NOTYPE  LOCAL  DEFAULT  125 .L0 
  1572: 80205a4c     0 NOTYPE  LOCAL  DEFAULT  125 .L0 
  1573: 80205a4c     0 NOTYPE  LOCAL  DEFAULT  125 $x
  1574: 80205a4c     0 NOTYPE  LOCAL  DEFAULT  125 .L0 
  1575: 80205a60     0 NOTYPE  LOCAL  DEFAULT  125 .L0 
  1576: 80205a60     0 NOTYPE  LOCAL  DEFAULT  126 .L0 
  1577: 80205a60     0 NOTYPE  LOCAL  DEFAULT  126 .L0 
  1578: 80205a60     0 NOTYPE  LOCAL  DEFAULT  126 $x
  1579: 80205a60     0 NOTYPE  LOCAL  DEFAULT  126 .L0 
  1580: 80205a88     0 NOTYPE  LOCAL  DEFAULT  126 .L0 
  1581: 80205a88     0 NOTYPE  LOCAL  DEFAULT  127 .L0 
  1582: 80205a88     0 NOTYPE  LOCAL  DEFAULT  127 .L0 
  1583: 80205a88     0 NOTYPE  LOCAL  DEFAULT  127 $x
  1584: 80205a88     0 NOTYPE  LOCAL  DEFAULT  127 .L0 
  1585: 80205ab0     0 NOTYPE  LOCAL  DEFAULT  127 .L0 
  1586: 00001f22     0 NOTYPE  LOCAL  DEFAULT  896 $d
  1587: 00009fcd     0 NOTYPE  LOCAL  DEFAULT  897 .L0 
  1588: 00009fcd     0 NOTYPE  LOCAL  DEFAULT  897 $d
  1589: 0000347a     0 NOTYPE  LOCAL  DEFAULT  904 .Lline_table_start0
  1590: 00000990     0 NOTYPE  LOCAL  DEFAULT  899 .L0 
  1591: 000006a0     0 NOTYPE  LOCAL  DEFAULT  898 $d
  1592: 00000990     0 NOTYPE  LOCAL  DEFAULT  899 $d
  1593: 000948bf     0 NOTYPE  LOCAL  DEFAULT  900 $d
  1594: 0000005e     0 NOTYPE  LOCAL  DEFAULT  901 $d
  1595: 00000000     0 NOTYPE  LOCAL  DEFAULT  ABS $d
  1596: 00000ef0     0 NOTYPE  LOCAL  DEFAULT  903 .L0 
  1597: 00000ef0     0 NOTYPE  LOCAL  DEFAULT  903 $d
  1598: 0000347a     0 NOTYPE  LOCAL  DEFAULT  904 $d
  1599: 80205a24    20 FUNC    LOCAL  HIDDEN   123 _RINvMs2_NtCsakCY22H5bhg_4core3fmtNtB6_9Arguments3newKj32_Kj3_ECsg1amJnYx2jd_4main
  1600: 80205a10    20 FUNC    LOCAL  HIDDEN   122 _RINvMs2_NtCsakCY22H5bhg_4core3fmtNtB6_9Arguments3newKj23_Kj2_ECsg1amJnYx2jd_4main
  1601: 802059fc    20 FUNC    LOCAL  HIDDEN   121 _RINvMs2_NtCsakCY22H5bhg_4core3fmtNtB6_9Arguments3newKj1b_Kj1_ECsg1amJnYx2jd_4main
  1602: 80205a38    20 FUNC    LOCAL  HIDDEN   124 _RINvMs2_NtCsakCY22H5bhg_4core3fmtNtB6_9Arguments3newKj4_Kj1_ECsg1amJnYx2jd_4main
  1603: 80205a4c    20 FUNC    LOCAL  HIDDEN   125 _RINvMs2_NtCsakCY22H5bhg_4core3fmtNtB6_9Arguments3newKjc_Kj1_ECsg1amJnYx2jd_4main
  1604: 80205a60    40 FUNC    LOCAL  HIDDEN   126 _RNvXs1g_NtCsakCY22H5bhg_4core3fmtRNtB6_9ArgumentsNtB6_5Debug3fmtCsg1amJnYx2jd_4main
  1605: 80205a88    40 FUNC    LOCAL  HIDDEN   127 _RNvXs1g_NtCsakCY22H5bhg_4core3fmtRbNtB6_5Debug3fmtCsg1amJnYx2jd_4main
  1606: 00000000     0 FILE    LOCAL  DEFAULT  ABS 8mgn10d714m4cdzrjl1yh6rho
  1607: 80205ab0     0 NOTYPE  LOCAL  DEFAULT  128 .L0 
  1608: 80205ab0     0 NOTYPE  LOCAL  DEFAULT  128 .L0 
  1609: 80205ab0     0 NOTYPE  LOCAL  DEFAULT  128 $x
  1610: 80205ab0     0 NOTYPE  LOCAL  DEFAULT  128 .L0 
  1611: 00002045     0 NOTYPE  LOCAL  DEFAULT  896 $d
  1612: 0000a63e     0 NOTYPE  LOCAL  DEFAULT  897 .L0 
  1613: 0000a63e     0 NOTYPE  LOCAL  DEFAULT  897 $d
  1614: 000035c2     0 NOTYPE  LOCAL  DEFAULT  904 .Lline_table_start0
  1615: 000006f8     0 NOTYPE  LOCAL  DEFAULT  898 $d
  1616: 000948bf     0 NOTYPE  LOCAL  DEFAULT  900 $d
  1617: 0000005e     0 NOTYPE  LOCAL  DEFAULT  901 $d
  1618: 00000000     0 NOTYPE  LOCAL  DEFAULT  ABS $d
  1619: 00000fcc     0 NOTYPE  LOCAL  DEFAULT  903 .L0 
  1620: 00000fcc     0 NOTYPE  LOCAL  DEFAULT  903 $d
  1621: 000035c2     0 NOTYPE  LOCAL  DEFAULT  904 $d
  1622: 80205ab0   156 FUNC    LOCAL  HIDDEN   128 _RNvXs1_NtNtCsg1amJnYx2jd_4main7process9trapframeNtB5_9TrapframeNtNtCsakCY22H5bhg_4core7default7Default7defaultB9_
  1623: 00000000     0 FILE    LOCAL  DEFAULT  ABS 8oyam3v67wvwyxdykuskr8j03
  1624: 80205b4c     0 NOTYPE  LOCAL  DEFAULT  129 .L0 
  1625: 80205b4c     0 NOTYPE  LOCAL  DEFAULT  129 .L0 
  1626: 80205b4c     0 NOTYPE  LOCAL  DEFAULT  129 $x
  1627: 80205b4c     0 NOTYPE  LOCAL  DEFAULT  129 .L0 
  1628: 80205b68     0 NOTYPE  LOCAL  DEFAULT  129 .L0 
  1629: 8021f9c4    16 OBJECT  LOCAL  DEFAULT  892 .Lanon.30b0f38891b0733daef175d6207247d9.1
  1630: 80205bcc     0 NOTYPE  LOCAL  DEFAULT  129 .L0 
  1631: 80205bcc     0 NOTYPE  LOCAL  DEFAULT  130 .L0 
  1632: 80205bcc     0 NOTYPE  LOCAL  DEFAULT  130 .L0 
  1633: 80205bcc     0 NOTYPE  LOCAL  DEFAULT  130 $x
  1634: 80205bcc     0 NOTYPE  LOCAL  DEFAULT  130 .L0 
  1635: 80205c0c     0 NOTYPE  LOCAL  DEFAULT  130 .L0 
  1636: 80205c0c     0 NOTYPE  LOCAL  DEFAULT  131 .L0 
  1637: 80205c0c     0 NOTYPE  LOCAL  DEFAULT  131 .L0 
  1638: 80205c0c     0 NOTYPE  LOCAL  DEFAULT  131 $x
  1639: 80205c0c     0 NOTYPE  LOCAL  DEFAULT  131 .L0 
  1640: 80205c30     0 NOTYPE  LOCAL  DEFAULT  131 .L0 
  1641: 80205c30     0 NOTYPE  LOCAL  DEFAULT  132 .L0 
  1642: 80205c30     0 NOTYPE  LOCAL  DEFAULT  132 .L0 
  1643: 80205c30     0 NOTYPE  LOCAL  DEFAULT  132 $x
  1644: 80205c30     0 NOTYPE  LOCAL  DEFAULT  132 .L0 
  1645: 8021f9d4     2 OBJECT  LOCAL  DEFAULT  892 .Lanon.30b0f38891b0733daef175d6207247d9.2
  1646: 80205c6c     0 NOTYPE  LOCAL  DEFAULT  132 .L0 
  1647: 8021eedb     0 NOTYPE  LOCAL  DEFAULT  892 $d
  1648: 8021f9c4     0 NOTYPE  LOCAL  DEFAULT  892 $d
  1649: 8021f9d4     0 NOTYPE  LOCAL  DEFAULT  892 $d
  1650: 0000209e     0 NOTYPE  LOCAL  DEFAULT  896 $d
  1651: 0000a856     0 NOTYPE  LOCAL  DEFAULT  897 .L0 
  1652: 0000a856     0 NOTYPE  LOCAL  DEFAULT  897 $d
  1653: 00003614     0 NOTYPE  LOCAL  DEFAULT  904 .Lline_table_start0
  1654: 000009d8     0 NOTYPE  LOCAL  DEFAULT  899 .L0 
  1655: 00000718     0 NOTYPE  LOCAL  DEFAULT  898 $d
  1656: 000009d8     0 NOTYPE  LOCAL  DEFAULT  899 $d
  1657: 000948bf     0 NOTYPE  LOCAL  DEFAULT  900 $d
  1658: 0000005e     0 NOTYPE  LOCAL  DEFAULT  901 $d
  1659: 00000000     0 NOTYPE  LOCAL  DEFAULT  ABS $d
  1660: 00000ff0     0 NOTYPE  LOCAL  DEFAULT  903 .L0 
  1661: 00000ff0     0 NOTYPE  LOCAL  DEFAULT  903 $d
  1662: 00003614     0 NOTYPE  LOCAL  DEFAULT  904 $d
  1663: 80205c30    60 FUNC    LOCAL  HIDDEN   132 _RNvXss_NtCsakCY22H5bhg_4core3fmtuNtB5_5Debug3fmtCsg1amJnYx2jd_4main
  1664: 80205bcc    64 FUNC    LOCAL  HIDDEN   130 _RNvMs4_NtCsakCY22H5bhg_4core3fmtNtB5_9Arguments8from_strCsg1amJnYx2jd_4main
  1665: 80205c0c    36 FUNC    LOCAL  HIDDEN   131 _RNvXsf_NtCsakCY22H5bhg_4core3fmtbNtB5_5Debug3fmtCsg1amJnYx2jd_4main
  1666: 80205b4c   128 FUNC    LOCAL  HIDDEN   129 _RNvMs4_NtCsakCY22H5bhg_4core3fmtNtB5_9Arguments6as_strCsg1amJnYx2jd_4main
  1667: 00000000     0 FILE    LOCAL  DEFAULT  ABS 9743pk5nyhm37nvzo6h62rzgb
  1668: 80205c6c     0 NOTYPE  LOCAL  DEFAULT  133 .L0 
  1669: 80205c6c     0 NOTYPE  LOCAL  DEFAULT  133 .L0 
  1670: 80205c6c     0 NOTYPE  LOCAL  DEFAULT  133 $x
  1671: 80205c6c     0 NOTYPE  LOCAL  DEFAULT  133 .L0 
  1672: 000021dc     0 NOTYPE  LOCAL  DEFAULT  896 $d
  1673: 0000ad13     0 NOTYPE  LOCAL  DEFAULT  897 .L0 
  1674: 0000ad13     0 NOTYPE  LOCAL  DEFAULT  897 $d
  1675: 00003746     0 NOTYPE  LOCAL  DEFAULT  904 .Lline_table_start0
  1676: 00000750     0 NOTYPE  LOCAL  DEFAULT  898 $d
  1677: 000948bf     0 NOTYPE  LOCAL  DEFAULT  900 $d
  1678: 0000005e     0 NOTYPE  LOCAL  DEFAULT  901 $d
  1679: 00000000     0 NOTYPE  LOCAL  DEFAULT  ABS $d
  1680: 00001074     0 NOTYPE  LOCAL  DEFAULT  903 .L0 
  1681: 00001074     0 NOTYPE  LOCAL  DEFAULT  903 $d
  1682: 00003746     0 NOTYPE  LOCAL  DEFAULT  904 $d
  1683: 80205c6c    80 FUNC    LOCAL  HIDDEN   133 _RNvNtCsevzKAMQQtOE_5alloc3fmt6formatCsg1amJnYx2jd_4main
  1684: 00000000     0 FILE    LOCAL  DEFAULT  ABS 9fkzkbf82ks1q567kktvoamgm
  1685: 80205cbc     0 NOTYPE  LOCAL  DEFAULT  134 .L0 
  1686: 80205cbc     0 NOTYPE  LOCAL  DEFAULT  134 .L0 
  1687: 80205cbc     0 NOTYPE  LOCAL  DEFAULT  134 $x
  1688: 80205cbc     0 NOTYPE  LOCAL  DEFAULT  134 .L0 
  1689: 000022e1     0 NOTYPE  LOCAL  DEFAULT  896 $d
  1690: 0000b189     0 NOTYPE  LOCAL  DEFAULT  897 .L0 
  1691: 0000b189     0 NOTYPE  LOCAL  DEFAULT  897 $d
  1692: 000037f6     0 NOTYPE  LOCAL  DEFAULT  904 .Lline_table_start0
  1693: 00000770     0 NOTYPE  LOCAL  DEFAULT  898 $d
  1694: 000948bf     0 NOTYPE  LOCAL  DEFAULT  900 $d
  1695: 0000005e     0 NOTYPE  LOCAL  DEFAULT  901 $d
  1696: 00000000     0 NOTYPE  LOCAL  DEFAULT  ABS $d
  1697: 000010a4     0 NOTYPE  LOCAL  DEFAULT  903 .L0 
  1698: 000010a4     0 NOTYPE  LOCAL  DEFAULT  903 $d
  1699: 000037f6     0 NOTYPE  LOCAL  DEFAULT  904 $d
  1700: 80205cbc    32 FUNC    LOCAL  HIDDEN   134 _RNvXs7_NtNtCsakCY22H5bhg_4core3str4iterNtB5_5BytesNtNtNtNtB9_4iter6traits8iterator8Iterator4nextCsg1amJnYx2jd_4main
  1701: 00000000     0 FILE    LOCAL  DEFAULT  ABS 9hz6fe4dgv9fbh208687lgy67
  1702: 80205cdc     0 NOTYPE  LOCAL  DEFAULT  135 .L0 
  1703: 80205cdc     0 NOTYPE  LOCAL  DEFAULT  135 .L0 
  1704: 80205cdc     0 NOTYPE  LOCAL  DEFAULT  135 $x
  1705: 80205cdc     0 NOTYPE  LOCAL  DEFAULT  135 .L0 
  1706: 80205d0c    56 FUNC    LOCAL  DEFAULT  136 _RNvNvNtCsakCY22H5bhg_4core4hint21unreachable_unchecked18precondition_checkCsg1amJnYx2jd_4main
  1707: 80205d0c     0 NOTYPE  LOCAL  DEFAULT  135 .L0 
  1708: 80205d0c     0 NOTYPE  LOCAL  DEFAULT  136 .L0 
  1709: 80205d0c     0 NOTYPE  LOCAL  DEFAULT  136 .L0 
  1710: 80205d0c     0 NOTYPE  LOCAL  DEFAULT  136 $x
  1711: 80205d0c     0 NOTYPE  LOCAL  DEFAULT  136 .L0 
  1712: 80205d18     0 NOTYPE  LOCAL  DEFAULT  136 .L0 
  1713: 8021f9d6   199 OBJECT  LOCAL  DEFAULT  892 .Lanon.5dba09689a7922d3e671df3e684fc40c.0
  1714: 80205d44     0 NOTYPE  LOCAL  DEFAULT  136 .L0 
  1715: 8021f9d6     0 NOTYPE  LOCAL  DEFAULT  892 $d
  1716: 00002387     0 NOTYPE  LOCAL  DEFAULT  896 $d
  1717: 0000b351     0 NOTYPE  LOCAL  DEFAULT  897 .L0 
  1718: 0000b351     0 NOTYPE  LOCAL  DEFAULT  897 $d
  1719: 000038a1     0 NOTYPE  LOCAL  DEFAULT  904 .Lline_table_start0
  1720: 00000a00     0 NOTYPE  LOCAL  DEFAULT  899 .L0 
  1721: 00000790     0 NOTYPE  LOCAL  DEFAULT  898 $d
  1722: 00000a00     0 NOTYPE  LOCAL  DEFAULT  899 $d
  1723: 000948bf     0 NOTYPE  LOCAL  DEFAULT  900 $d
  1724: 0000005e     0 NOTYPE  LOCAL  DEFAULT  901 $d
  1725: 00000000     0 NOTYPE  LOCAL  DEFAULT  ABS $d
  1726: 000010d4     0 NOTYPE  LOCAL  DEFAULT  903 .L0 
  1727: 000010d4     0 NOTYPE  LOCAL  DEFAULT  903 $d
  1728: 000038a1     0 NOTYPE  LOCAL  DEFAULT  904 $d
  1729: 80205cdc    48 FUNC    LOCAL  HIDDEN   135 _RNvNtCsakCY22H5bhg_4core4hint21unreachable_uncheckedCsg1amJnYx2jd_4main
  1730: 00000000     0 FILE    LOCAL  DEFAULT  ABS 9ks7vdwrxwzd5d8sniclog495
  1731: 80205d44     0 NOTYPE  LOCAL  DEFAULT  137 .L0 
  1732: 80205d44     0 NOTYPE  LOCAL  DEFAULT  137 .L0 
  1733: 80205d44     0 NOTYPE  LOCAL  DEFAULT  137 $x
  1734: 80205d44     0 NOTYPE  LOCAL  DEFAULT  137 .L0 
  1735: 80205d58     0 NOTYPE  LOCAL  DEFAULT  137 .L0 
  1736: 80205d58     0 NOTYPE  LOCAL  DEFAULT  138 .L0 
  1737: 80205d58     0 NOTYPE  LOCAL  DEFAULT  138 .L0 
  1738: 80205d58     0 NOTYPE  LOCAL  DEFAULT  138 $x
  1739: 80205d58     0 NOTYPE  LOCAL  DEFAULT  138 .L0 
  1740: 80205d80     0 NOTYPE  LOCAL  DEFAULT  138 .L0 
  1741: 00002414     0 NOTYPE  LOCAL  DEFAULT  896 $d
  1742: 0000b403     0 NOTYPE  LOCAL  DEFAULT  897 .L0 
  1743: 0000b403     0 NOTYPE  LOCAL  DEFAULT  897 $d
  1744: 0000398f     0 NOTYPE  LOCAL  DEFAULT  904 .Lline_table_start0
  1745: 00000a18     0 NOTYPE  LOCAL  DEFAULT  899 .L0 
  1746: 000007b8     0 NOTYPE  LOCAL  DEFAULT  898 $d
  1747: 00000a18     0 NOTYPE  LOCAL  DEFAULT  899 $d
  1748: 000948bf     0 NOTYPE  LOCAL  DEFAULT  900 $d
  1749: 0000005e     0 NOTYPE  LOCAL  DEFAULT  901 $d
  1750: 00000000     0 NOTYPE  LOCAL  DEFAULT  ABS $d
  1751: 00001118     0 NOTYPE  LOCAL  DEFAULT  903 .L0 
  1752: 00001118     0 NOTYPE  LOCAL  DEFAULT  903 $d
  1753: 0000398f     0 NOTYPE  LOCAL  DEFAULT  904 $d
  1754: 80205d44    20 FUNC    LOCAL  HIDDEN   137 _RNvMNtNtNtCsakCY22H5bhg_4core4iter8adapters6copiedINtB2_6CopiedINtNtNtB8_5slice4iter4IterhEE3newCsg1amJnYx2jd_4main
  1755: 80205d58    40 FUNC    LOCAL  HIDDEN   138 _RNvXs_NtNtNtCsakCY22H5bhg_4core4iter8adapters6copiedINtB4_6CopiedINtNtNtBa_5slice4iter4IterhEENtNtNtB8_6traits8iterator8Iterator4nextCsg1amJnYx2jd_4main
  1756: 00000000     0 FILE    LOCAL  DEFAULT  ABS 9zaib5tk2pq7bxnjb56a57ynz
  1757: 80205d80     0 NOTYPE  LOCAL  DEFAULT  139 .L0 
  1758: 80205d80     0 NOTYPE  LOCAL  DEFAULT  139 .L0 
  1759: 80205d80     0 NOTYPE  LOCAL  DEFAULT  139 $x
  1760: 80205d80     0 NOTYPE  LOCAL  DEFAULT  139 .L0 
  1761: 80205da0    32 FUNC    LOCAL  DEFAULT  140 _RINvNtCsakCY22H5bhg_4core3ptr13drop_in_placeINtNtNtCsj4ivliY6BXz_4spin5mutex4spin14SpinMutexGuardINtCsigOxFuwXbws_22buddy_system_allocator4HeapKj20_EEECsg1amJnYx2jd_4main
  1762: 80205da0     0 NOTYPE  LOCAL  DEFAULT  139 .L0 
  1763: 80205da0     0 NOTYPE  LOCAL  DEFAULT  140 .L0 
  1764: 80205da0     0 NOTYPE  LOCAL  DEFAULT  140 .L0 
  1765: 80205da0     0 NOTYPE  LOCAL  DEFAULT  140 $x
  1766: 80205da0     0 NOTYPE  LOCAL  DEFAULT  140 .L0 
  1767: 80205dc0    44 FUNC    LOCAL  DEFAULT  141 _RNvXsd_NtNtCsj4ivliY6BXz_4spin5mutex4spinINtB5_14SpinMutexGuardINtCsigOxFuwXbws_22buddy_system_allocator4HeapKj20_EENtNtNtCsakCY22H5bhg_4core3ops4drop4Drop4dropCsg1amJnYx2jd_4main
  1768: 80205dc0     0 NOTYPE  LOCAL  DEFAULT  140 .L0 
  1769: 80205dc0     0 NOTYPE  LOCAL  DEFAULT  141 .L0 
  1770: 80205dc0     0 NOTYPE  LOCAL  DEFAULT  141 .L0 
  1771: 80205dc0     0 NOTYPE  LOCAL  DEFAULT  141 $x
  1772: 80205dc0     0 NOTYPE  LOCAL  DEFAULT  141 .L0 
  1773: 80205dec     0 NOTYPE  LOCAL  DEFAULT  141 .L0 
  1774: 80205dec     0 NOTYPE  LOCAL  DEFAULT  142 .L0 
  1775: 80205dec     0 NOTYPE  LOCAL  DEFAULT  142 .L0 
  1776: 80205dec     0 NOTYPE  LOCAL  DEFAULT  142 $x
  1777: 80205dec     0 NOTYPE  LOCAL  DEFAULT  142 .L0 
  1778: 80205e18     0 NOTYPE  LOCAL  DEFAULT  142 .L0 
  1779: 000024df     0 NOTYPE  LOCAL  DEFAULT  896 $d
  1780: 0000b5ff     0 NOTYPE  LOCAL  DEFAULT  897 .L0 
  1781: 0000b5ff     0 NOTYPE  LOCAL  DEFAULT  897 $d
  1782: 00003a5e     0 NOTYPE  LOCAL  DEFAULT  904 .Lline_table_start0
  1783: 00000a30     0 NOTYPE  LOCAL  DEFAULT  899 .L0 
  1784: 000007e0     0 NOTYPE  LOCAL  DEFAULT  898 $d
  1785: 00000a30     0 NOTYPE  LOCAL  DEFAULT  899 $d
  1786: 000948bf     0 NOTYPE  LOCAL  DEFAULT  900 $d
  1787: 0000005e     0 NOTYPE  LOCAL  DEFAULT  901 $d
  1788: 00000000     0 NOTYPE  LOCAL  DEFAULT  ABS $d
  1789: 00001160     0 NOTYPE  LOCAL  DEFAULT  903 .L0 
  1790: 00001160     0 NOTYPE  LOCAL  DEFAULT  903 $d
  1791: 00003a5e     0 NOTYPE  LOCAL  DEFAULT  904 $d
  1792: 80205d80    32 FUNC    LOCAL  HIDDEN   139 _RINvNtCsakCY22H5bhg_4core3ptr13drop_in_placeINtNtCsj4ivliY6BXz_4spin5mutex10MutexGuardINtCsigOxFuwXbws_22buddy_system_allocator4HeapKj20_EEECsg1amJnYx2jd_4main
  1793: 80205dec    44 FUNC    LOCAL  HIDDEN   142 _RNvYNvYeNtNtCsevzKAMQQtOE_5alloc6borrow7ToOwned8to_ownedINtNtNtCsakCY22H5bhg_4core3ops8function6FnOnceTReEE9call_onceCsg1amJnYx2jd_4main
  1794: 00000000     0 FILE    LOCAL  DEFAULT  ABS ahwejt21trh3nldh74b39rloq
  1795: 80205e18    36 FUNC    LOCAL  DEFAULT  143 _RINvMs2_NtCsevzKAMQQtOE_5alloc7raw_vecNtB6_11RawVecInner3ptrNtNtCsg1amJnYx2jd_4main7process7ProcessEB10_
  1796: 80205e18     0 NOTYPE  LOCAL  DEFAULT  143 .L0 
  1797: 80205e18     0 NOTYPE  LOCAL  DEFAULT  143 .L0 
  1798: 80205e18     0 NOTYPE  LOCAL  DEFAULT  143 $x
  1799: 80205e18     0 NOTYPE  LOCAL  DEFAULT  143 .L0 
  1800: 80205e3c    44 FUNC    LOCAL  DEFAULT  144 _RINvMs2_NtCsevzKAMQQtOE_5alloc7raw_vecNtB6_11RawVecInner8non_nullNtNtCsg1amJnYx2jd_4main7process7ProcessEB15_
  1801: 80205e3c     0 NOTYPE  LOCAL  DEFAULT  143 .L0 
  1802: 80205e3c     0 NOTYPE  LOCAL  DEFAULT  144 .L0 
  1803: 80205e3c     0 NOTYPE  LOCAL  DEFAULT  144 .L0 
  1804: 80205e3c     0 NOTYPE  LOCAL  DEFAULT  144 $x
  1805: 80205e3c     0 NOTYPE  LOCAL  DEFAULT  144 .L0 
  1806: 80205e68     0 NOTYPE  LOCAL  DEFAULT  144 .L0 
  1807: 80205e68     0 NOTYPE  LOCAL  DEFAULT  145 .L0 
  1808: 80205e68     0 NOTYPE  LOCAL  DEFAULT  145 .L0 
  1809: 80205e68     0 NOTYPE  LOCAL  DEFAULT  145 $x
  1810: 80205e68     0 NOTYPE  LOCAL  DEFAULT  145 .L0 
  1811: 80205ea4    36 FUNC    LOCAL  DEFAULT  147 _RNvMs0_NtCsevzKAMQQtOE_5alloc7raw_vecINtB5_6RawVecNtNtCsg1amJnYx2jd_4main7process7ProcessE6new_inBQ_
  1812: 80205e84     0 NOTYPE  LOCAL  DEFAULT  145 .L0 
  1813: 80205e84     0 NOTYPE  LOCAL  DEFAULT  146 .L0 
  1814: 80205e84     0 NOTYPE  LOCAL  DEFAULT  146 .L0 
  1815: 80205e84     0 NOTYPE  LOCAL  DEFAULT  146 $x
  1816: 80205e84     0 NOTYPE  LOCAL  DEFAULT  146 .L0 
  1817: 80205ea4     0 NOTYPE  LOCAL  DEFAULT  146 .L0 
  1818: 80205ea4     0 NOTYPE  LOCAL  DEFAULT  147 .L0 
  1819: 80205ea4     0 NOTYPE  LOCAL  DEFAULT  147 .L0 
  1820: 80205ea4     0 NOTYPE  LOCAL  DEFAULT  147 $x
  1821: 80205ea4     0 NOTYPE  LOCAL  DEFAULT  147 .L0 
  1822: 80205ec8     0 NOTYPE  LOCAL  DEFAULT  147 .L0 
  1823: 80205ec8     0 NOTYPE  LOCAL  DEFAULT  148 .L0 
  1824: 80205ec8     0 NOTYPE  LOCAL  DEFAULT  148 .L0 
  1825: 80205ec8     0 NOTYPE  LOCAL  DEFAULT  148 $x
  1826: 80205ec8     0 NOTYPE  LOCAL  DEFAULT  148 .L0 
  1827: 80205eec     0 NOTYPE  LOCAL  DEFAULT  148 .L0 
  1828: 80205eec     0 NOTYPE  LOCAL  DEFAULT  149 .L0 
  1829: 80205eec     0 NOTYPE  LOCAL  DEFAULT  149 .L0 
  1830: 80205eec     0 NOTYPE  LOCAL  DEFAULT  149 $x
  1831: 80205eec     0 NOTYPE  LOCAL  DEFAULT  149 .L0 
  1832: 80205f14     0 NOTYPE  LOCAL  DEFAULT  149 .L0 
  1833: 000025e4     0 NOTYPE  LOCAL  DEFAULT  896 $d
  1834: 0000ba6f     0 NOTYPE  LOCAL  DEFAULT  897 .L0 
  1835: 0000ba6f     0 NOTYPE  LOCAL  DEFAULT  897 $d
  1836: 00003bcf     0 NOTYPE  LOCAL  DEFAULT  904 .Lline_table_start0
  1837: 00000a58     0 NOTYPE  LOCAL  DEFAULT  899 .L0 
  1838: 00000818     0 NOTYPE  LOCAL  DEFAULT  898 $d
  1839: 00000a58     0 NOTYPE  LOCAL  DEFAULT  899 $d
  1840: 000948bf     0 NOTYPE  LOCAL  DEFAULT  900 $d
  1841: 0000005e     0 NOTYPE  LOCAL  DEFAULT  901 $d
  1842: 00000000     0 NOTYPE  LOCAL  DEFAULT  ABS $d
  1843: 000011e4     0 NOTYPE  LOCAL  DEFAULT  903 .L0 
  1844: 000011e4     0 NOTYPE  LOCAL  DEFAULT  903 $d
  1845: 00003bcf     0 NOTYPE  LOCAL  DEFAULT  904 $d
  1846: 80205e68    28 FUNC    LOCAL  HIDDEN   145 _RNvMNtCsevzKAMQQtOE_5alloc7raw_vecINtB2_6RawVecNtNtCsg1amJnYx2jd_4main7process7ProcessE3newBN_
  1847: 80205ec8    36 FUNC    LOCAL  HIDDEN   148 _RNvMs0_NtCsevzKAMQQtOE_5alloc7raw_vecINtB5_6RawVecNtNtCsg1amJnYx2jd_4main7process7ProcessE8capacityBQ_
  1848: 80205eec    40 FUNC    LOCAL  HIDDEN   149 _RNvMs3_NtCsevzKAMQQtOE_5alloc7raw_vecINtB5_6RawVecNtNtCsg1amJnYx2jd_4main7process7ProcessE8grow_oneBQ_
  1849: 80205e84    32 FUNC    LOCAL  HIDDEN   146 _RNvMs0_NtCsevzKAMQQtOE_5alloc7raw_vecINtB5_6RawVecNtNtCsg1amJnYx2jd_4main7process7ProcessE3ptrBQ_
  1850: 00000000     0 FILE    LOCAL  DEFAULT  ABS amg6uuen106z5b5ydfddzrisf
  1851: 80205f14     0 NOTYPE  LOCAL  DEFAULT  150 .L0 
  1852: 80205f14     0 NOTYPE  LOCAL  DEFAULT  150 .L0 
  1853: 80205f14     0 NOTYPE  LOCAL  DEFAULT  150 $x
  1854: 80205f14     0 NOTYPE  LOCAL  DEFAULT  150 .L0 
  1855: 000026f0     0 NOTYPE  LOCAL  DEFAULT  896 $d
  1856: 0000c28c     0 NOTYPE  LOCAL  DEFAULT  897 .L0 
  1857: 0000c28c     0 NOTYPE  LOCAL  DEFAULT  897 $d
  1858: 00003d1c     0 NOTYPE  LOCAL  DEFAULT  904 .Lline_table_start0
  1859: 00000868     0 NOTYPE  LOCAL  DEFAULT  898 $d
  1860: 000948bf     0 NOTYPE  LOCAL  DEFAULT  900 $d
  1861: 0000005e     0 NOTYPE  LOCAL  DEFAULT  901 $d
  1862: 00000000     0 NOTYPE  LOCAL  DEFAULT  ABS $d
  1863: 000012bc     0 NOTYPE  LOCAL  DEFAULT  903 .L0 
  1864: 000012bc     0 NOTYPE  LOCAL  DEFAULT  903 $d
  1865: 00003d1c     0 NOTYPE  LOCAL  DEFAULT  904 $d
  1866: 80205f14    40 FUNC    LOCAL  HIDDEN   150 _RNvXs1g_NtCsakCY22H5bhg_4core3fmtRNtNtNtB8_5panic10panic_info9PanicInfoNtB6_5Debug3fmtCsg1amJnYx2jd_4main
  1867: 00000000     0 FILE    LOCAL  DEFAULT  ABS amg8jsmfj2bd2sjpnrjuoos9h
  1868: 80205f3c     0 NOTYPE  LOCAL  DEFAULT  151 .L0 
  1869: 80205f3c     0 NOTYPE  LOCAL  DEFAULT  151 .L0 
  1870: 80205f3c     0 NOTYPE  LOCAL  DEFAULT  151 $x
  1871: 80205f3c     0 NOTYPE  LOCAL  DEFAULT  151 .L0 
  1872: 80205f54     0 NOTYPE  LOCAL  DEFAULT  151 .L0 
  1873: 8021fa9d   228 OBJECT  LOCAL  DEFAULT  892 .Lanon.627f640cc84d3d2b91c40ac6f9326214.0
  1874: 80205f68     0 NOTYPE  LOCAL  DEFAULT  151 .L0 
  1875: 80205f78     0 NOTYPE  LOCAL  DEFAULT  151 .L0 
  1876: 80205f9c     0 NOTYPE  LOCAL  DEFAULT  151 .L0 
  1877: 80205fa8     0 NOTYPE  LOCAL  DEFAULT  151 .L0 
  1878: 80205fa8     0 NOTYPE  LOCAL  DEFAULT  152 .L0 
  1879: 80205fa8     0 NOTYPE  LOCAL  DEFAULT  152 .L0 
  1880: 80205fa8     0 NOTYPE  LOCAL  DEFAULT  152 $x
  1881: 80205fa8     0 NOTYPE  LOCAL  DEFAULT  152 .L0 
  1882: 80205fbc     0 NOTYPE  LOCAL  DEFAULT  152 .L0 
  1883: 8021fb81   215 OBJECT  LOCAL  DEFAULT  892 .Lanon.627f640cc84d3d2b91c40ac6f9326214.1
  1884: 80205fd0     0 NOTYPE  LOCAL  DEFAULT  152 .L0 
  1885: 80205fe0     0 NOTYPE  LOCAL  DEFAULT  152 .L0 
  1886: 80206004     0 NOTYPE  LOCAL  DEFAULT  152 .L0 
  1887: 80206010     0 NOTYPE  LOCAL  DEFAULT  152 .L0 
  1888: 80206010     0 NOTYPE  LOCAL  DEFAULT  153 .L0 
  1889: 80206010     0 NOTYPE  LOCAL  DEFAULT  153 .L0 
  1890: 80206010     0 NOTYPE  LOCAL  DEFAULT  153 $x
  1891: 80206010     0 NOTYPE  LOCAL  DEFAULT  153 .L0 
  1892: 80206044     0 NOTYPE  LOCAL  DEFAULT  153 .L0 
  1893: 8021fc58   283 OBJECT  LOCAL  DEFAULT  892 .Lanon.627f640cc84d3d2b91c40ac6f9326214.2
  1894: 80206058     0 NOTYPE  LOCAL  DEFAULT  153 .L0 
  1895: 80206084     0 NOTYPE  LOCAL  DEFAULT  153 .L0 
  1896: 802060f0     0 NOTYPE  LOCAL  DEFAULT  153 .L0 
  1897: 80206114     0 NOTYPE  LOCAL  DEFAULT  153 .L0 
  1898: 80206120     0 NOTYPE  LOCAL  DEFAULT  153 .L0 
  1899: 80206120     0 NOTYPE  LOCAL  DEFAULT  154 .L0 
  1900: 80206120     0 NOTYPE  LOCAL  DEFAULT  154 .L0 
  1901: 80206120     0 NOTYPE  LOCAL  DEFAULT  154 $x
  1902: 80206120     0 NOTYPE  LOCAL  DEFAULT  154 .L0 
  1903: 80206138     0 NOTYPE  LOCAL  DEFAULT  154 .L0 
  1904: 8021fd73   218 OBJECT  LOCAL  DEFAULT  892 .Lanon.627f640cc84d3d2b91c40ac6f9326214.3
  1905: 8020614c     0 NOTYPE  LOCAL  DEFAULT  154 .L0 
  1906: 8020615c     0 NOTYPE  LOCAL  DEFAULT  154 .L0 
  1907: 80206180     0 NOTYPE  LOCAL  DEFAULT  154 .L0 
  1908: 8020618c     0 NOTYPE  LOCAL  DEFAULT  154 .L0 
  1909: 8020618c     0 NOTYPE  LOCAL  DEFAULT  155 .L0 
  1910: 8020618c     0 NOTYPE  LOCAL  DEFAULT  155 .L0 
  1911: 8020618c     0 NOTYPE  LOCAL  DEFAULT  155 $x
  1912: 8020618c     0 NOTYPE  LOCAL  DEFAULT  155 .L0 
  1913: 802061a4     0 NOTYPE  LOCAL  DEFAULT  155 .L0 
  1914: 8021fe4d   219 OBJECT  LOCAL  DEFAULT  892 .Lanon.627f640cc84d3d2b91c40ac6f9326214.4
  1915: 802061b8     0 NOTYPE  LOCAL  DEFAULT  155 .L0 
  1916: 802061c8     0 NOTYPE  LOCAL  DEFAULT  155 .L0 
  1917: 802061ec     0 NOTYPE  LOCAL  DEFAULT  155 .L0 
  1918: 802061f8     0 NOTYPE  LOCAL  DEFAULT  155 .L0 
  1919: 8021fa9d     0 NOTYPE  LOCAL  DEFAULT  892 $d
  1920: 8021fb81     0 NOTYPE  LOCAL  DEFAULT  892 $d
  1921: 8021fc58     0 NOTYPE  LOCAL  DEFAULT  892 $d
  1922: 8021fd73     0 NOTYPE  LOCAL  DEFAULT  892 $d
  1923: 8021fe4d     0 NOTYPE  LOCAL  DEFAULT  892 $d
  1924: 000027f5     0 NOTYPE  LOCAL  DEFAULT  896 $d
  1925: 0000c714     0 NOTYPE  LOCAL  DEFAULT  897 .L0 
  1926: 0000c714     0 NOTYPE  LOCAL  DEFAULT  897 $d
  1927: 00003dca     0 NOTYPE  LOCAL  DEFAULT  904 .Lline_table_start0
  1928: 00000b10     0 NOTYPE  LOCAL  DEFAULT  899 .L0 
  1929: 00000a98     0 NOTYPE  LOCAL  DEFAULT  899 .L0 
  1930: 00000ab0     0 NOTYPE  LOCAL  DEFAULT  899 .L0 
  1931: 00000ac8     0 NOTYPE  LOCAL  DEFAULT  899 .L0 
  1932: 00000ae0     0 NOTYPE  LOCAL  DEFAULT  899 .L0 
  1933: 00000af8     0 NOTYPE  LOCAL  DEFAULT  899 .L0 
  1934: 00000888     0 NOTYPE  LOCAL  DEFAULT  898 $d
  1935: 00000a98     0 NOTYPE  LOCAL  DEFAULT  899 $d
  1936: 000948bf     0 NOTYPE  LOCAL  DEFAULT  900 $d
  1937: 0000005e     0 NOTYPE  LOCAL  DEFAULT  901 $d
  1938: 00000000     0 NOTYPE  LOCAL  DEFAULT  ABS $d
  1939: 000012ec     0 NOTYPE  LOCAL  DEFAULT  903 .L0 
  1940: 000012ec     0 NOTYPE  LOCAL  DEFAULT  903 $d
  1941: 00003dca     0 NOTYPE  LOCAL  DEFAULT  904 $d
  1942: 80205f3c   108 FUNC    LOCAL  HIDDEN   151 _RNvNvNtCsakCY22H5bhg_4core3ptr11write_bytes18precondition_checkCsg1amJnYx2jd_4main
  1943: 80206010   272 FUNC    LOCAL  HIDDEN   153 _RNvNvNtCsakCY22H5bhg_4core3ptr19copy_nonoverlapping18precondition_checkCsg1amJnYx2jd_4main
  1944: 80205fa8   104 FUNC    LOCAL  HIDDEN   152 _RNvNvNtCsakCY22H5bhg_4core3ptr14write_volatile18precondition_checkCsg1amJnYx2jd_4main
  1945: 80206120   108 FUNC    LOCAL  HIDDEN   154 _RNvNvNtCsakCY22H5bhg_4core3ptr4read18precondition_checkCsg1amJnYx2jd_4main
  1946: 8020618c   108 FUNC    LOCAL  HIDDEN   155 _RNvNvNtCsakCY22H5bhg_4core3ptr5write18precondition_checkCsg1amJnYx2jd_4main
  1947: 00000000     0 FILE    LOCAL  DEFAULT  ABS b0u9rfa0mnnrtx39uvvc2ucc9
  1948: 802061f8     0 NOTYPE  LOCAL  DEFAULT  156 .L0 
  1949: 802061f8     0 NOTYPE  LOCAL  DEFAULT  156 .L0 
  1950: 802061f8     0 NOTYPE  LOCAL  DEFAULT  156 $x
  1951: 802061f8     0 NOTYPE  LOCAL  DEFAULT  156 .L0 
  1952: 80206220     0 NOTYPE  LOCAL  DEFAULT  156 .L0 
  1953: 80206244     0 NOTYPE  LOCAL  DEFAULT  156 .L0 
  1954: 80206244     0 NOTYPE  LOCAL  DEFAULT  157 .L0 
  1955: 80206244     0 NOTYPE  LOCAL  DEFAULT  157 .L0 
  1956: 80206244     0 NOTYPE  LOCAL  DEFAULT  157 $x
  1957: 80206244     0 NOTYPE  LOCAL  DEFAULT  157 .L0 
  1958: 80206280     0 NOTYPE  LOCAL  DEFAULT  157 .L0 
  1959: 80206280     0 NOTYPE  LOCAL  DEFAULT  158 .L0 
  1960: 80206280     0 NOTYPE  LOCAL  DEFAULT  158 .L0 
  1961: 80206280     0 NOTYPE  LOCAL  DEFAULT  158 $x
  1962: 80206280     0 NOTYPE  LOCAL  DEFAULT  158 .L0 
  1963: 802062a4     0 NOTYPE  LOCAL  DEFAULT  158 .L0 
  1964: 802062cc     0 NOTYPE  LOCAL  DEFAULT  158 .L0 
  1965: 802062f8     0 NOTYPE  LOCAL  DEFAULT  158 .L0 
  1966: 802062f8     0 NOTYPE  LOCAL  DEFAULT  159 .L0 
  1967: 802062f8     0 NOTYPE  LOCAL  DEFAULT  159 .L0 
  1968: 802062f8     0 NOTYPE  LOCAL  DEFAULT  159 $x
  1969: 802062f8     0 NOTYPE  LOCAL  DEFAULT  159 .L0 
  1970: 80206320     0 NOTYPE  LOCAL  DEFAULT  159 .L0 
  1971: 80206350     0 NOTYPE  LOCAL  DEFAULT  159 .L0 
  1972: 80206368     0 NOTYPE  LOCAL  DEFAULT  159 .L0 
  1973: 80206368     0 NOTYPE  LOCAL  DEFAULT  160 .L0 
  1974: 80206368     0 NOTYPE  LOCAL  DEFAULT  160 .L0 
  1975: 80206368     0 NOTYPE  LOCAL  DEFAULT  160 $x
  1976: 80206368     0 NOTYPE  LOCAL  DEFAULT  160 .L0 
  1977: 80206388     0 NOTYPE  LOCAL  DEFAULT  160 .L0 
  1978: 80206398     0 NOTYPE  LOCAL  DEFAULT  160 .L0 
  1979: 802063b8     0 NOTYPE  LOCAL  DEFAULT  160 .L0 
  1980: 802063b8     0 NOTYPE  LOCAL  DEFAULT  161 .L0 
  1981: 802063b8     0 NOTYPE  LOCAL  DEFAULT  161 .L0 
  1982: 802063b8     0 NOTYPE  LOCAL  DEFAULT  161 $x
  1983: 802063b8     0 NOTYPE  LOCAL  DEFAULT  161 .L0 
  1984: 802063d4     0 NOTYPE  LOCAL  DEFAULT  161 .L0 
  1985: 802063e0     0 NOTYPE  LOCAL  DEFAULT  161 .L0 
  1986: 802063f4     0 NOTYPE  LOCAL  DEFAULT  161 .L0 
  1987: 802063f4     0 NOTYPE  LOCAL  DEFAULT  162 .L0 
  1988: 802063f4     0 NOTYPE  LOCAL  DEFAULT  162 .L0 
  1989: 802063f4     0 NOTYPE  LOCAL  DEFAULT  162 $x
  1990: 802063f4     0 NOTYPE  LOCAL  DEFAULT  162 .L0 
  1991: 80206408     0 NOTYPE  LOCAL  DEFAULT  162 .L0 
  1992: 80206408     0 NOTYPE  LOCAL  DEFAULT  163 .L0 
  1993: 80206408     0 NOTYPE  LOCAL  DEFAULT  163 .L0 
  1994: 80206408     0 NOTYPE  LOCAL  DEFAULT  163 $x
  1995: 80206408     0 NOTYPE  LOCAL  DEFAULT  163 .L0 
  1996: 8020641c     0 NOTYPE  LOCAL  DEFAULT  163 .L0 
  1997: 80206428     0 NOTYPE  LOCAL  DEFAULT  163 .L0 
  1998: 80206428     0 NOTYPE  LOCAL  DEFAULT  164 .L0 
  1999: 80206428     0 NOTYPE  LOCAL  DEFAULT  164 .L0 
  2000: 80206428     0 NOTYPE  LOCAL  DEFAULT  164 $x
  2001: 80206428     0 NOTYPE  LOCAL  DEFAULT  164 .L0 
  2002: 8020643c     0 NOTYPE  LOCAL  DEFAULT  164 .L0 
  2003: 0000007b     0 NOTYPE  LOCAL  DEFAULT  905 .L0 
  2004: 0000007b     0 NOTYPE  LOCAL  DEFAULT  905 $d
  2005: 000000a4     0 NOTYPE  LOCAL  DEFAULT  905 .L0 
  2006: 0000289f     0 NOTYPE  LOCAL  DEFAULT  896 $d
  2007: 0000c993     0 NOTYPE  LOCAL  DEFAULT  897 .L0 
  2008: 0000c993     0 NOTYPE  LOCAL  DEFAULT  897 $d
  2009: 00003fab     0 NOTYPE  LOCAL  DEFAULT  904 .Lline_table_start0
  2010: 00000b40     0 NOTYPE  LOCAL  DEFAULT  899 .L0 
  2011: 000008c8     0 NOTYPE  LOCAL  DEFAULT  898 $d
  2012: 00000b40     0 NOTYPE  LOCAL  DEFAULT  899 $d
  2013: 000948bf     0 NOTYPE  LOCAL  DEFAULT  900 $d
  2014: 0000005e     0 NOTYPE  LOCAL  DEFAULT  901 $d
  2015: 00000000     0 NOTYPE  LOCAL  DEFAULT  ABS $d
  2016: 00001390     0 NOTYPE  LOCAL  DEFAULT  903 .L0 
  2017: 00001390     0 NOTYPE  LOCAL  DEFAULT  903 $d
  2018: 00003fab     0 NOTYPE  LOCAL  DEFAULT  904 $d
  2019: 802062f8   112 FUNC    LOCAL  HIDDEN   159 _RNvXsp_NtCsakCY22H5bhg_4core6resultINtB5_6ResultNtNtCsg1amJnYx2jd_4main7process7ProcessuENtNtNtB7_3ops9try_trait3Try6branchBO_
  2020: 80206428    20 FUNC    LOCAL  HIDDEN   164 _RNvXsq_NtCsakCY22H5bhg_4core6resultINtB5_6ResultuuEINtNtNtB7_3ops9try_trait12FromResidualIBy_NtNtB7_7convert10InfallibleuEE13from_residualCsg1amJnYx2jd_4main
  2021: 80206244    60 FUNC    LOCAL  HIDDEN   157 _RNvMNtCsakCY22H5bhg_4core6resultINtB2_6ResultbbE5is_okCsg1amJnYx2jd_4main
  2022: 802061f8    76 FUNC    LOCAL  HIDDEN   156 _RNvMNtCsakCY22H5bhg_4core6resultINtB2_6ResultINtNtNtB4_3ptr8non_null7NonNullhEuE2okCsg1amJnYx2jd_4main
  2023: 80206280   120 FUNC    LOCAL  HIDDEN   158 _RNvXsp_NtCsakCY22H5bhg_4core6resultINtB5_6ResultNtNtCsg1amJnYx2jd_4main10virtmemory3UvmuENtNtNtB7_3ops9try_trait3Try6branchBO_
  2024: 80206408    32 FUNC    LOCAL  HIDDEN   163 _RNvXsq_NtCsakCY22H5bhg_4core6resultINtB5_6ResultNtNtCsg1amJnYx2jd_4main7process7ProcessuEINtNtNtB7_3ops9try_trait12FromResidualIBy_NtNtB7_7convert10InfallibleuEE13from_residualBO_
  2025: 80206368    80 FUNC    LOCAL  HIDDEN   160 _RNvXsp_NtCsakCY22H5bhg_4core6resultINtB5_6ResultOmuENtNtNtB7_3ops9try_trait3Try6branchCsg1amJnYx2jd_4main
  2026: 802063b8    60 FUNC    LOCAL  HIDDEN   161 _RNvXsp_NtCsakCY22H5bhg_4core6resultINtB5_6ResultuuENtNtNtB7_3ops9try_trait3Try6branchCsg1amJnYx2jd_4main
  2027: 802063f4    20 FUNC    LOCAL  HIDDEN   162 _RNvXsq_NtCsakCY22H5bhg_4core6resultINtB5_6ResultNtNtCsg1amJnYx2jd_4main10virtmemory3KvmuEINtNtNtB7_3ops9try_trait12FromResidualIBy_NtNtB7_7convert10InfallibleuEE13from_residualBO_
  2028: 00000000     0 FILE    LOCAL  DEFAULT  ABS b8maqt8673n1oybw6npg4a4w0
  2029: 8020643c     0 NOTYPE  LOCAL  DEFAULT  165 .L0 
  2030: 8020643c     0 NOTYPE  LOCAL  DEFAULT  165 .L0 
  2031: 8020643c     0 NOTYPE  LOCAL  DEFAULT  165 $x
  2032: 8020643c     0 NOTYPE  LOCAL  DEFAULT  165 .L0 
  2033: 000029bc     0 NOTYPE  LOCAL  DEFAULT  896 $d
  2034: 0000d833     0 NOTYPE  LOCAL  DEFAULT  897 .L0 
  2035: 0000d833     0 NOTYPE  LOCAL  DEFAULT  897 $d
  2036: 00004223     0 NOTYPE  LOCAL  DEFAULT  904 .Lline_table_start0
  2037: 00000928     0 NOTYPE  LOCAL  DEFAULT  898 $d
  2038: 000948bf     0 NOTYPE  LOCAL  DEFAULT  900 $d
  2039: 0000005e     0 NOTYPE  LOCAL  DEFAULT  901 $d
  2040: 00000000     0 NOTYPE  LOCAL  DEFAULT  ABS $d
  2041: 00001484     0 NOTYPE  LOCAL  DEFAULT  903 .L0 
  2042: 00001484     0 NOTYPE  LOCAL  DEFAULT  903 $d
  2043: 00004223     0 NOTYPE  LOCAL  DEFAULT  904 $d
  2044: 8020643c    20 FUNC    LOCAL  HIDDEN   165 _RNvNtNtCsakCY22H5bhg_4core3str8converts19from_utf8_uncheckedCsg1amJnYx2jd_4main
  2045: 00000000     0 FILE    LOCAL  DEFAULT  ABS bmgp8zlhwwtq3zh6z8g3lhws8
  2046: 80200000     0 NOTYPE  LOCAL  DEFAULT    1 .Lpcrel_hi0
  2047: 80200000     0 NOTYPE  LOCAL  DEFAULT    1 $x
  2048: 80200010     0 NOTYPE  LOCAL  DEFAULT    1 spin
  2049: 80206450     0 NOTYPE  LOCAL  DEFAULT  166 .L0 
  2050: 80206450     0 NOTYPE  LOCAL  DEFAULT  166 .L0 
  2051: 80206450     0 NOTYPE  LOCAL  DEFAULT  166 $x
  2052: 80206450     0 NOTYPE  LOCAL  DEFAULT  166 .L0 
  2053: 8021ff28    16 OBJECT  LOCAL  DEFAULT  892 .Lanon.aee5b48c3cc7b91dec812ea3e0231290.1
  2054: 80206498     0 NOTYPE  LOCAL  DEFAULT  166 .L0 
  2055: 80206498     0 NOTYPE  LOCAL  DEFAULT  167 .L0 
  2056: 80206498     0 NOTYPE  LOCAL  DEFAULT  167 .L0 
  2057: 80206498     0 NOTYPE  LOCAL  DEFAULT  167 $x
  2058: 80206498     0 NOTYPE  LOCAL  DEFAULT  167 .L0 
  2059: 80206500     0 NOTYPE  LOCAL  DEFAULT  167 .L0 
  2060: 80206500     0 NOTYPE  LOCAL  DEFAULT  168 .L0 
  2061: 80206500     0 NOTYPE  LOCAL  DEFAULT  168 .L0 
  2062: 80206500     0 NOTYPE  LOCAL  DEFAULT  168 $x
  2063: 80206500     0 NOTYPE  LOCAL  DEFAULT  168 .L0 
  2064: 80206574     0 NOTYPE  LOCAL  DEFAULT  168 .L0 
  2065: 80206574     0 NOTYPE  LOCAL  DEFAULT  169 .L0 
  2066: 80206574     0 NOTYPE  LOCAL  DEFAULT  169 .L0 
  2067: 80206574     0 NOTYPE  LOCAL  DEFAULT  169 $x
  2068: 80206574     0 NOTYPE  LOCAL  DEFAULT  169 .L0 
  2069: 8020658c     0 NOTYPE  LOCAL  DEFAULT  169 .L0 
  2070: 802065a4     0 NOTYPE  LOCAL  DEFAULT  169 .L0 
  2071: 802065d0     0 NOTYPE  LOCAL  DEFAULT  169 .L0 
  2072: 80206614     0 NOTYPE  LOCAL  DEFAULT  169 .L0 
  2073: 80206614     0 NOTYPE  LOCAL  DEFAULT  170 .L0 
  2074: 80206614     0 NOTYPE  LOCAL  DEFAULT  170 .L0 
  2075: 80206614     0 NOTYPE  LOCAL  DEFAULT  170 $x
  2076: 80206614     0 NOTYPE  LOCAL  DEFAULT  170 .L0 
  2077: 8020665c     0 NOTYPE  LOCAL  DEFAULT  170 .L0 
  2078: 8020665c     0 NOTYPE  LOCAL  DEFAULT  171 .L0 
  2079: 8020665c     0 NOTYPE  LOCAL  DEFAULT  171 .L0 
  2080: 8020665c     0 NOTYPE  LOCAL  DEFAULT  171 $x
  2081: 8020665c     0 NOTYPE  LOCAL  DEFAULT  171 .L0 
  2082: 80206674     0 NOTYPE  LOCAL  DEFAULT  171 .L0 
  2083: 8020668c     0 NOTYPE  LOCAL  DEFAULT  171 .L0 
  2084: 802066c0     0 NOTYPE  LOCAL  DEFAULT  171 .L0 
  2085: 8021ff38    16 OBJECT  LOCAL  DEFAULT  892 .Lanon.aee5b48c3cc7b91dec812ea3e0231290.3
  2086: 802066e4     0 NOTYPE  LOCAL  DEFAULT  171 .L0 
  2087: 802066e4   440 FUNC    LOCAL  DEFAULT  172 _RNvCsg1amJnYx2jd_4main5proc0
  2088: 802066e4     0 NOTYPE  LOCAL  DEFAULT  172 .L0 
  2089: 802066e4     0 NOTYPE  LOCAL  DEFAULT  172 .L0 
  2090: 802066e4     0 NOTYPE  LOCAL  DEFAULT  172 $x
  2091: 802066e4     0 NOTYPE  LOCAL  DEFAULT  172 .L0 
  2092: 802066f4     0 NOTYPE  LOCAL  DEFAULT  172 .L0 
  2093: 80206700     0 NOTYPE  LOCAL  DEFAULT  172 .L0 
  2094: 80206714     0 NOTYPE  LOCAL  DEFAULT  172 .L0 
  2095: 8020671c     0 NOTYPE  LOCAL  DEFAULT  172 .L0 
  2096: 80206734     0 NOTYPE  LOCAL  DEFAULT  172 .L0 
  2097: 80206760     0 NOTYPE  LOCAL  DEFAULT  172 .L0 
  2098: 802067b8     0 NOTYPE  LOCAL  DEFAULT  172 .L0 
  2099: 802067e8     0 NOTYPE  LOCAL  DEFAULT  172 .L0 
  2100: 80206800     0 NOTYPE  LOCAL  DEFAULT  172 .L0 
  2101: 8020682c     0 NOTYPE  LOCAL  DEFAULT  172 .L0 
  2102: 8021ff48    16 OBJECT  LOCAL  DEFAULT  892 .Lanon.aee5b48c3cc7b91dec812ea3e0231290.6
  2103: 8020689c     0 NOTYPE  LOCAL  DEFAULT  172 .L0 
  2104: 8020689c   440 FUNC    LOCAL  DEFAULT  173 _RNvCsg1amJnYx2jd_4main5proc1
  2105: 8020689c     0 NOTYPE  LOCAL  DEFAULT  173 .L0 
  2106: 8020689c     0 NOTYPE  LOCAL  DEFAULT  173 .L0 
  2107: 8020689c     0 NOTYPE  LOCAL  DEFAULT  173 $x
  2108: 8020689c     0 NOTYPE  LOCAL  DEFAULT  173 .L0 
  2109: 802068ac     0 NOTYPE  LOCAL  DEFAULT  173 .L0 
  2110: 802068b8     0 NOTYPE  LOCAL  DEFAULT  173 .L0 
  2111: 802068cc     0 NOTYPE  LOCAL  DEFAULT  173 .L0 
  2112: 802068d4     0 NOTYPE  LOCAL  DEFAULT  173 .L0 
  2113: 802068ec     0 NOTYPE  LOCAL  DEFAULT  173 .L0 
  2114: 80206918     0 NOTYPE  LOCAL  DEFAULT  173 .L0 
  2115: 80206970     0 NOTYPE  LOCAL  DEFAULT  173 .L0 
  2116: 802069a0     0 NOTYPE  LOCAL  DEFAULT  173 .L0 
  2117: 802069b8     0 NOTYPE  LOCAL  DEFAULT  173 .L0 
  2118: 802069e4     0 NOTYPE  LOCAL  DEFAULT  173 .L0 
  2119: 8021ff58    16 OBJECT  LOCAL  DEFAULT  892 .Lanon.aee5b48c3cc7b91dec812ea3e0231290.8
  2120: 80206a54     0 NOTYPE  LOCAL  DEFAULT  173 .L0 
  2121: 80206a54     0 NOTYPE  LOCAL  DEFAULT  174 .L0 
  2122: 80206a54     0 NOTYPE  LOCAL  DEFAULT  174 .L0 
  2123: 80206a54     0 NOTYPE  LOCAL  DEFAULT  174 $x
  2124: 80206a54     0 NOTYPE  LOCAL  DEFAULT  174 .L0 
  2125: 80206a78     0 NOTYPE  LOCAL  DEFAULT  174 .L0 
  2126: 80206a98     0 NOTYPE  LOCAL  DEFAULT  174 .L0 
  2127: 80206ab0     0 NOTYPE  LOCAL  DEFAULT  174 .L0 
  2128: 80206b1c     0 NOTYPE  LOCAL  DEFAULT  174 .L0 
  2129: 80206b28     0 NOTYPE  LOCAL  DEFAULT  174 .L0 
  2130: 80206b38     0 NOTYPE  LOCAL  DEFAULT  174 .L0 
  2131: 80206b44     0 NOTYPE  LOCAL  DEFAULT  174 .L0 
  2132: 80206b54     0 NOTYPE  LOCAL  DEFAULT  174 .L0 
  2133: 80206b80     0 NOTYPE  LOCAL  DEFAULT  174 .L0 
  2134: 8021ffa4    16 OBJECT  LOCAL  DEFAULT  892 .Lanon.aee5b48c3cc7b91dec812ea3e0231290.11
  2135: 80206b94     0 NOTYPE  LOCAL  DEFAULT  174 .L0 
  2136: 80206bb8     0 NOTYPE  LOCAL  DEFAULT  174 .L0 
  2137: 8021ffc4    12 OBJECT  LOCAL  DEFAULT  892 .Lanon.aee5b48c3cc7b91dec812ea3e0231290.13
  2138: 80206be4     0 NOTYPE  LOCAL  DEFAULT  174 .L0 
  2139: 80206c3c     0 NOTYPE  LOCAL  DEFAULT  174 .L0 
  2140: 80206c5c     0 NOTYPE  LOCAL  DEFAULT  174 .L0 
  2141: 80206c6c     0 NOTYPE  LOCAL  DEFAULT  174 .L0 
  2142: 80206c80     0 NOTYPE  LOCAL  DEFAULT  174 .L0 
  2143: 8021ffb4    16 OBJECT  LOCAL  DEFAULT  892 .Lanon.aee5b48c3cc7b91dec812ea3e0231290.12
  2144: 80206c90     0 NOTYPE  LOCAL  DEFAULT  174 .L0 
  2145: 80206c94     0 NOTYPE  LOCAL  DEFAULT  174 .L0 
  2146: 8021ffd0    16 OBJECT  LOCAL  DEFAULT  892 .Lanon.aee5b48c3cc7b91dec812ea3e0231290.14
  2147: 80206cc8     0 NOTYPE  LOCAL  DEFAULT  174 .L0 
  2148: 80206cd8     0 NOTYPE  LOCAL  DEFAULT  174 .L0 
  2149: 8021ff68    43 OBJECT  LOCAL  DEFAULT  892 .Lanon.aee5b48c3cc7b91dec812ea3e0231290.9
  2150: 8021ff94    16 OBJECT  LOCAL  DEFAULT  892 .Lanon.aee5b48c3cc7b91dec812ea3e0231290.10
  2151: 8021ffe0    16 OBJECT  LOCAL  DEFAULT  892 .Lanon.aee5b48c3cc7b91dec812ea3e0231290.15
  2152: 8021fff0    16 OBJECT  LOCAL  DEFAULT  892 .Lanon.aee5b48c3cc7b91dec812ea3e0231290.16
  2153: 80220000    13 OBJECT  LOCAL  DEFAULT  892 .Lanon.aee5b48c3cc7b91dec812ea3e0231290.17
  2154: 80206d90     0 NOTYPE  LOCAL  DEFAULT  174 .L0 
  2155: 80220010    16 OBJECT  LOCAL  DEFAULT  892 .Lanon.aee5b48c3cc7b91dec812ea3e0231290.18
  2156: 80206e30     0 NOTYPE  LOCAL  DEFAULT  174 .L0 
  2157: 80220020    16 OBJECT  LOCAL  DEFAULT  892 .Lanon.aee5b48c3cc7b91dec812ea3e0231290.19
  2158: 80206e5c     0 NOTYPE  LOCAL  DEFAULT  174 .L0 
  2159: 80206e70     0 NOTYPE  LOCAL  DEFAULT  174 .L0 
  2160: 80206e84     0 NOTYPE  LOCAL  DEFAULT  174 .L0 
  2161: 80220030    16 OBJECT  LOCAL  DEFAULT  892 .Lanon.aee5b48c3cc7b91dec812ea3e0231290.20
  2162: 80206ebc     0 NOTYPE  LOCAL  DEFAULT  174 .L0 
  2163: 80220040    16 OBJECT  LOCAL  DEFAULT  892 .Lanon.aee5b48c3cc7b91dec812ea3e0231290.21
  2164: 80206ee4     0 NOTYPE  LOCAL  DEFAULT  174 .L0 
  2165: 80220050    10 OBJECT  LOCAL  DEFAULT  892 .Lanon.aee5b48c3cc7b91dec812ea3e0231290.22
  2166: 80206f10     0 NOTYPE  LOCAL  DEFAULT  174 .L0 
  2167: 80206f68     0 NOTYPE  LOCAL  DEFAULT  174 .L0 
  2168: 80206f68     0 NOTYPE  LOCAL  DEFAULT  174 .L0 
  2169: 8021dd88     0 NOTYPE  LOCAL  DEFAULT  892 $d
  2170: 8021ff28     0 NOTYPE  LOCAL  DEFAULT  892 $d
  2171: 8021ff38     0 NOTYPE  LOCAL  DEFAULT  892 $d
  2172: 80223bcc     0 NOTYPE  LOCAL  DEFAULT  895 $d
  2173: 80223c5c     0 NOTYPE  LOCAL  DEFAULT  895 $d
  2174: 8021ff48     0 NOTYPE  LOCAL  DEFAULT  892 $d
  2175: 8021ff58     0 NOTYPE  LOCAL  DEFAULT  892 $d
  2176: 8021ff68     0 NOTYPE  LOCAL  DEFAULT  892 $d
  2177: 8021ff94     0 NOTYPE  LOCAL  DEFAULT  892 $d
  2178: 8021ffa4     0 NOTYPE  LOCAL  DEFAULT  892 $d
  2179: 8021ffb4     0 NOTYPE  LOCAL  DEFAULT  892 $d
  2180: 8021ffc4     0 NOTYPE  LOCAL  DEFAULT  892 $d
  2181: 8021ffd0     0 NOTYPE  LOCAL  DEFAULT  892 $d
  2182: 8021ffe0     0 NOTYPE  LOCAL  DEFAULT  892 $d
  2183: 8021fff0     0 NOTYPE  LOCAL  DEFAULT  892 $d
  2184: 80220000     0 NOTYPE  LOCAL  DEFAULT  892 $d
  2185: 80220010     0 NOTYPE  LOCAL  DEFAULT  892 $d
  2186: 80220020     0 NOTYPE  LOCAL  DEFAULT  892 $d
  2187: 80220030     0 NOTYPE  LOCAL  DEFAULT  892 $d
  2188: 80220040     0 NOTYPE  LOCAL  DEFAULT  892 $d
  2189: 80220050     0 NOTYPE  LOCAL  DEFAULT  892 $d
  2190: 00002a29     0 NOTYPE  LOCAL  DEFAULT  896 $d
  2191: 0000d8e7     0 NOTYPE  LOCAL  DEFAULT  897 .L0 
  2192: 0000d8e7     0 NOTYPE  LOCAL  DEFAULT  897 $d
  2193: 000042cf     0 NOTYPE  LOCAL  DEFAULT  904 .Lline_table_start0
  2194: 00000bf8     0 NOTYPE  LOCAL  DEFAULT  899 .L0 
  2195: 00000b90     0 NOTYPE  LOCAL  DEFAULT  899 .L0 
  2196: 00000bb0     0 NOTYPE  LOCAL  DEFAULT  899 .L0 
  2197: 00000bc8     0 NOTYPE  LOCAL  DEFAULT  899 .L0 
  2198: 00000be0     0 NOTYPE  LOCAL  DEFAULT  899 .L0 
  2199: 00000948     0 NOTYPE  LOCAL  DEFAULT  898 $d
  2200: 00000b90     0 NOTYPE  LOCAL  DEFAULT  899 $d
  2201: 000948bf     0 NOTYPE  LOCAL  DEFAULT  900 $d
  2202: 0000005e     0 NOTYPE  LOCAL  DEFAULT  901 $d
  2203: 00000000     0 NOTYPE  LOCAL  DEFAULT  ABS $d
  2204: 000014b0     0 NOTYPE  LOCAL  DEFAULT  903 .L0 
  2205: 000014b0     0 NOTYPE  LOCAL  DEFAULT  903 $d
  2206: 000042cf     0 NOTYPE  LOCAL  DEFAULT  904 $d
  2207: 80206450    72 FUNC    LOCAL  HIDDEN   166 _RNvCsbSr5EDxESP4_7___rustc12___rust_alloc
  2208: 80206498   104 FUNC    LOCAL  HIDDEN   167 _RNvCsbSr5EDxESP4_7___rustc14___rust_dealloc
  2209: 80206500   116 FUNC    LOCAL  HIDDEN   168 _RNvCsbSr5EDxESP4_7___rustc14___rust_realloc
  2210: 80206574   160 FUNC    LOCAL  HIDDEN   169 _RNvCsbSr5EDxESP4_7___rustc17rust_begin_unwind
  2211: 80206614    72 FUNC    LOCAL  HIDDEN   170 _RNvCsbSr5EDxESP4_7___rustc19___rust_alloc_zeroed
  2212: 80223c5c    60 OBJECT  LOCAL  HIDDEN   895 _RNvCsg1amJnYx2jd_4main3CPU
  2213: 8020665c   136 FUNC    LOCAL  HIDDEN   171 _RNvCsg1amJnYx2jd_4main10uart_print
  2214: 80223bcc   144 OBJECT  LOCAL  HIDDEN   895 _RNvCsg1amJnYx2jd_4main14HEAP_ALLOCATOR
  2215: 00000000     0 FILE    LOCAL  DEFAULT  ABS c0l9en5g2t6xljif17fdc3j98
  2216: 80206f68     0 NOTYPE  LOCAL  DEFAULT  175 .L0 
  2217: 80206f68     0 NOTYPE  LOCAL  DEFAULT  175 .L0 
  2218: 80206f68     0 NOTYPE  LOCAL  DEFAULT  175 $x
  2219: 80206f68     0 NOTYPE  LOCAL  DEFAULT  175 .L0 
  2220: 80206f88     0 NOTYPE  LOCAL  DEFAULT  175 .L0 
  2221: 80206f88     0 NOTYPE  LOCAL  DEFAULT  176 .L0 
  2222: 80206f88     0 NOTYPE  LOCAL  DEFAULT  176 .L0 
  2223: 80206f88     0 NOTYPE  LOCAL  DEFAULT  176 $x
  2224: 80206f88     0 NOTYPE  LOCAL  DEFAULT  176 .L0 
  2225: 80206f98     0 NOTYPE  LOCAL  DEFAULT  176 .L0 
  2226: 00002cb6     0 NOTYPE  LOCAL  DEFAULT  896 $d
  2227: 0000f24f     0 NOTYPE  LOCAL  DEFAULT  897 .L0 
  2228: 0000f24f     0 NOTYPE  LOCAL  DEFAULT  897 $d
  2229: 000048eb     0 NOTYPE  LOCAL  DEFAULT  904 .Lline_table_start0
  2230: 00000c48     0 NOTYPE  LOCAL  DEFAULT  899 .L0 
  2231: 000009c0     0 NOTYPE  LOCAL  DEFAULT  898 $d
  2232: 00000c48     0 NOTYPE  LOCAL  DEFAULT  899 $d
  2233: 000948bf     0 NOTYPE  LOCAL  DEFAULT  900 $d
  2234: 0000005e     0 NOTYPE  LOCAL  DEFAULT  901 $d
  2235: 00000000     0 NOTYPE  LOCAL  DEFAULT  ABS $d
  2236: 000015b0     0 NOTYPE  LOCAL  DEFAULT  903 .L0 
  2237: 000015b0     0 NOTYPE  LOCAL  DEFAULT  903 $d
  2238: 000048eb     0 NOTYPE  LOCAL  DEFAULT  904 $d
  2239: 80206f68    32 FUNC    LOCAL  HIDDEN   175 _RINvMs1_NtNtCsakCY22H5bhg_4core3ptr6uniqueINtB6_6UniquehE4castNtNtCsg1amJnYx2jd_4main7process7ProcessEB12_
  2240: 80206f88    16 FUNC    LOCAL  HIDDEN   176 _RNvMs1_NtNtCsakCY22H5bhg_4core3ptr6uniqueINtB5_6UniqueNtNtCsg1amJnYx2jd_4main7process7ProcessE15as_non_null_ptrBU_
  2241: 00000000     0 FILE    LOCAL  DEFAULT  ABS cweltfcxsqtxfkdaqfziqwm3c
  2242: 80206f98    56 FUNC    LOCAL  DEFAULT  177 _RNvMs0_NtCsg1amJnYx2jd_4main10virtmemoryNtB5_3PTE7from_paB7_
  2243: 80206f98     0 NOTYPE  LOCAL  DEFAULT  177 .L0 
  2244: 80206f98     0 NOTYPE  LOCAL  DEFAULT  177 .L0 
  2245: 80206f98     0 NOTYPE  LOCAL  DEFAULT  177 $x
  2246: 80206f98     0 NOTYPE  LOCAL  DEFAULT  177 .L0 
  2247: 80206fb0     0 NOTYPE  LOCAL  DEFAULT  177 .L0 
  2248: 80206fbc     0 NOTYPE  LOCAL  DEFAULT  177 .L0 
  2249: 80207a18   168 FUNC    LOCAL  DEFAULT  186 _RNvXNtCsg1amJnYx2jd_4main10virtmemoryNtB2_3PTEINtNtCsakCY22H5bhg_4core7convert4FrommE4from
  2250: 80206fd0     0 NOTYPE  LOCAL  DEFAULT  177 .L0 
  2251: 80206fd0   120 FUNC    LOCAL  DEFAULT  178 _RNvMs3_NtCsg1amJnYx2jd_4main10virtmemoryNtB5_2VA3vpn
  2252: 80206fd0     0 NOTYPE  LOCAL  DEFAULT  178 .L0 
  2253: 80206fd0     0 NOTYPE  LOCAL  DEFAULT  178 .L0 
  2254: 80206fd0     0 NOTYPE  LOCAL  DEFAULT  178 $x
  2255: 80206fd0     0 NOTYPE  LOCAL  DEFAULT  178 .L0 
  2256: 80207048     0 NOTYPE  LOCAL  DEFAULT  178 .L0 
  2257: 80207048     0 NOTYPE  LOCAL  DEFAULT  179 .L0 
  2258: 80207048     0 NOTYPE  LOCAL  DEFAULT  179 .L0 
  2259: 80207048     0 NOTYPE  LOCAL  DEFAULT  179 $x
  2260: 80207048     0 NOTYPE  LOCAL  DEFAULT  179 .L0 
  2261: 80207090     0 NOTYPE  LOCAL  DEFAULT  179 .L0 
  2262: 802074a0   792 FUNC    LOCAL  DEFAULT  184 _RNvNtCsg1amJnYx2jd_4main10virtmemory3map
  2263: 802070ac     0 NOTYPE  LOCAL  DEFAULT  179 .L0 
  2264: 802070ac   556 FUNC    LOCAL  DEFAULT  180 _RNvMs7_NtCsg1amJnYx2jd_4main10virtmemoryNtB5_3Kvm4init
  2265: 802070ac     0 NOTYPE  LOCAL  DEFAULT  180 .L0 
  2266: 802070ac     0 NOTYPE  LOCAL  DEFAULT  180 .L0 
  2267: 802070ac     0 NOTYPE  LOCAL  DEFAULT  180 $x
  2268: 802070ac     0 NOTYPE  LOCAL  DEFAULT  180 .L0 
  2269: 802070d0     0 NOTYPE  LOCAL  DEFAULT  180 .L0 
  2270: 802070fc     0 NOTYPE  LOCAL  DEFAULT  180 .L0 
  2271: 80207108     0 NOTYPE  LOCAL  DEFAULT  180 .L0 
  2272: 80207124     0 NOTYPE  LOCAL  DEFAULT  180 .L0 
  2273: 80220098    16 OBJECT  LOCAL  DEFAULT  892 .Lanon.367b02bec762b8b0e9ebb0ef9c2daf66.3
  2274: 80207134     0 NOTYPE  LOCAL  DEFAULT  180 .L0 
  2275: 80220108    16 OBJECT  LOCAL  DEFAULT  892 .Lanon.367b02bec762b8b0e9ebb0ef9c2daf66.10
  2276: 8020716c     0 NOTYPE  LOCAL  DEFAULT  180 .L0 
  2277: 8020717c     0 NOTYPE  LOCAL  DEFAULT  180 .L0 
  2278: 802200a8    16 OBJECT  LOCAL  DEFAULT  892 .Lanon.367b02bec762b8b0e9ebb0ef9c2daf66.4
  2279: 80207190     0 NOTYPE  LOCAL  DEFAULT  180 .L0 
  2280: 802200b8    16 OBJECT  LOCAL  DEFAULT  892 .Lanon.367b02bec762b8b0e9ebb0ef9c2daf66.5
  2281: 802071d4     0 NOTYPE  LOCAL  DEFAULT  180 .L0 
  2282: 802200f8    16 OBJECT  LOCAL  DEFAULT  892 .Lanon.367b02bec762b8b0e9ebb0ef9c2daf66.9
  2283: 802200c8    16 OBJECT  LOCAL  DEFAULT  892 .Lanon.367b02bec762b8b0e9ebb0ef9c2daf66.6
  2284: 80207248     0 NOTYPE  LOCAL  DEFAULT  180 .L0 
  2285: 802200e8    16 OBJECT  LOCAL  DEFAULT  892 .Lanon.367b02bec762b8b0e9ebb0ef9c2daf66.8
  2286: 80207294     0 NOTYPE  LOCAL  DEFAULT  180 .L0 
  2287: 802200d8    16 OBJECT  LOCAL  DEFAULT  892 .Lanon.367b02bec762b8b0e9ebb0ef9c2daf66.7
  2288: 802072c0     0 NOTYPE  LOCAL  DEFAULT  180 .L0 
  2289: 802072d8     0 NOTYPE  LOCAL  DEFAULT  180 .L0 
  2290: 802072d8     0 NOTYPE  LOCAL  DEFAULT  181 .L0 
  2291: 802072d8     0 NOTYPE  LOCAL  DEFAULT  181 .L0 
  2292: 802072d8     0 NOTYPE  LOCAL  DEFAULT  181 $x
  2293: 802072d8     0 NOTYPE  LOCAL  DEFAULT  181 .L0 
  2294: 802072f4     0 NOTYPE  LOCAL  DEFAULT  181 .L0 
  2295: 80207304     0 NOTYPE  LOCAL  DEFAULT  181 .L0 
  2296: 8020732c     0 NOTYPE  LOCAL  DEFAULT  181 .L0 
  2297: 80207344     0 NOTYPE  LOCAL  DEFAULT  181 .L0 
  2298: 80207344     0 NOTYPE  LOCAL  DEFAULT  182 .L0 
  2299: 80207344     0 NOTYPE  LOCAL  DEFAULT  182 .L0 
  2300: 80207344     0 NOTYPE  LOCAL  DEFAULT  182 $x
  2301: 80207344     0 NOTYPE  LOCAL  DEFAULT  182 .L0 
  2302: 80207378     0 NOTYPE  LOCAL  DEFAULT  182 .L0 
  2303: 802073b0     0 NOTYPE  LOCAL  DEFAULT  182 .L0 
  2304: 802073b0     0 NOTYPE  LOCAL  DEFAULT  183 .L0 
  2305: 802073b0     0 NOTYPE  LOCAL  DEFAULT  183 .L0 
  2306: 802073b0     0 NOTYPE  LOCAL  DEFAULT  183 $x
  2307: 802073b0     0 NOTYPE  LOCAL  DEFAULT  183 .L0 
  2308: 802073e8     0 NOTYPE  LOCAL  DEFAULT  183 .L0 
  2309: 80207410     0 NOTYPE  LOCAL  DEFAULT  183 .L0 
  2310: 80220118    16 OBJECT  LOCAL  DEFAULT  892 .Lanon.367b02bec762b8b0e9ebb0ef9c2daf66.11
  2311: 80207420     0 NOTYPE  LOCAL  DEFAULT  183 .L0 
  2312: 80220138    16 OBJECT  LOCAL  DEFAULT  892 .Lanon.367b02bec762b8b0e9ebb0ef9c2daf66.13
  2313: 8020746c     0 NOTYPE  LOCAL  DEFAULT  183 .L0 
  2314: 80220128    16 OBJECT  LOCAL  DEFAULT  892 .Lanon.367b02bec762b8b0e9ebb0ef9c2daf66.12
  2315: 8020748c     0 NOTYPE  LOCAL  DEFAULT  183 .L0 
  2316: 802074a0     0 NOTYPE  LOCAL  DEFAULT  183 .L0 
  2317: 802074a0     0 NOTYPE  LOCAL  DEFAULT  184 .L0 
  2318: 802074a0     0 NOTYPE  LOCAL  DEFAULT  184 .L0 
  2319: 802074a0     0 NOTYPE  LOCAL  DEFAULT  184 $x
  2320: 802074a0     0 NOTYPE  LOCAL  DEFAULT  184 .L0 
  2321: 802201d0    23 OBJECT  LOCAL  DEFAULT  892 .Lanon.367b02bec762b8b0e9ebb0ef9c2daf66.22
  2322: 80207518     0 NOTYPE  LOCAL  DEFAULT  184 .L0 
  2323: 802201b0    14 OBJECT  LOCAL  DEFAULT  892 .Lanon.367b02bec762b8b0e9ebb0ef9c2daf66.20
  2324: 802201e8    16 OBJECT  LOCAL  DEFAULT  892 .Lanon.367b02bec762b8b0e9ebb0ef9c2daf66.23
  2325: 80207580     0 NOTYPE  LOCAL  DEFAULT  184 .L0 
  2326: 80207584     0 NOTYPE  LOCAL  DEFAULT  184 .L0 
  2327: 80207594     0 NOTYPE  LOCAL  DEFAULT  184 .L0 
  2328: 80220198    24 OBJECT  LOCAL  DEFAULT  892 .Lanon.367b02bec762b8b0e9ebb0ef9c2daf66.19
  2329: 802075c0     0 NOTYPE  LOCAL  DEFAULT  184 .L0 
  2330: 802201c0    16 OBJECT  LOCAL  DEFAULT  892 .Lanon.367b02bec762b8b0e9ebb0ef9c2daf66.21
  2331: 8020761c     0 NOTYPE  LOCAL  DEFAULT  184 .L0 
  2332: 80207620     0 NOTYPE  LOCAL  DEFAULT  184 .L0 
  2333: 80207624     0 NOTYPE  LOCAL  DEFAULT  184 .L0 
  2334: 80220148    16 OBJECT  LOCAL  DEFAULT  892 .Lanon.367b02bec762b8b0e9ebb0ef9c2daf66.14
  2335: 80207638     0 NOTYPE  LOCAL  DEFAULT  184 .L0 
  2336: 8020764c     0 NOTYPE  LOCAL  DEFAULT  184 .L0 
  2337: 80207654     0 NOTYPE  LOCAL  DEFAULT  184 .L0 
  2338: 802077b8   608 FUNC    LOCAL  DEFAULT  185 _RNvNtCsg1amJnYx2jd_4main10virtmemory4walk
  2339: 8020768c     0 NOTYPE  LOCAL  DEFAULT  184 .L0 
  2340: 8020769c     0 NOTYPE  LOCAL  DEFAULT  184 .L0 
  2341: 80220188    16 OBJECT  LOCAL  DEFAULT  892 .Lanon.367b02bec762b8b0e9ebb0ef9c2daf66.18
  2342: 802076c0     0 NOTYPE  LOCAL  DEFAULT  184 .L0 
  2343: 802076d4     0 NOTYPE  LOCAL  DEFAULT  184 .L0 
  2344: 80207bb0   132 FUNC    LOCAL  DEFAULT  190 _RNvXs_NtCsg1amJnYx2jd_4main10virtmemoryNtB4_3PTEINtNtCsakCY22H5bhg_4core7convert4IntomE4into
  2345: 8020772c     0 NOTYPE  LOCAL  DEFAULT  184 .L0 
  2346: 80207744     0 NOTYPE  LOCAL  DEFAULT  184 .L0 
  2347: 80220158    16 OBJECT  LOCAL  DEFAULT  892 .Lanon.367b02bec762b8b0e9ebb0ef9c2daf66.15
  2348: 80220168    16 OBJECT  LOCAL  DEFAULT  892 .Lanon.367b02bec762b8b0e9ebb0ef9c2daf66.16
  2349: 802077a4     0 NOTYPE  LOCAL  DEFAULT  184 .L0 
  2350: 802077a8     0 NOTYPE  LOCAL  DEFAULT  184 .L0 
  2351: 80220178    16 OBJECT  LOCAL  DEFAULT  892 .Lanon.367b02bec762b8b0e9ebb0ef9c2daf66.17
  2352: 802077b8     0 NOTYPE  LOCAL  DEFAULT  184 .L0 
  2353: 802077b8     0 NOTYPE  LOCAL  DEFAULT  184 .L0 
  2354: 802077b8     0 NOTYPE  LOCAL  DEFAULT  185 .L0 
  2355: 802077b8     0 NOTYPE  LOCAL  DEFAULT  185 .L0 
  2356: 802077b8     0 NOTYPE  LOCAL  DEFAULT  185 $x
  2357: 802077b8     0 NOTYPE  LOCAL  DEFAULT  185 .L0 
  2358: 80207b10    60 FUNC    LOCAL  DEFAULT  188 _RNvXs4_NtCsg1amJnYx2jd_4main10virtmemoryNtB5_2VAINtNtCsakCY22H5bhg_4core7convert4FrommE4from
  2359: 802077f0     0 NOTYPE  LOCAL  DEFAULT  185 .L0 
  2360: 802077fc     0 NOTYPE  LOCAL  DEFAULT  185 .L0 
  2361: 8020782c     0 NOTYPE  LOCAL  DEFAULT  185 .L0 
  2362: 80207848     0 NOTYPE  LOCAL  DEFAULT  185 .L0 
  2363: 8020785c     0 NOTYPE  LOCAL  DEFAULT  185 .L0 
  2364: 80207878     0 NOTYPE  LOCAL  DEFAULT  185 .L0 
  2365: 802201f8    16 OBJECT  LOCAL  DEFAULT  892 .Lanon.367b02bec762b8b0e9ebb0ef9c2daf66.24
  2366: 80207894     0 NOTYPE  LOCAL  DEFAULT  185 .L0 
  2367: 8020789c     0 NOTYPE  LOCAL  DEFAULT  185 .L0 
  2368: 80207900     0 NOTYPE  LOCAL  DEFAULT  185 .L0 
  2369: 8020790c     0 NOTYPE  LOCAL  DEFAULT  185 .L0 
  2370: 80207964     0 NOTYPE  LOCAL  DEFAULT  185 .L0 
  2371: 80220208    16 OBJECT  LOCAL  DEFAULT  892 .Lanon.367b02bec762b8b0e9ebb0ef9c2daf66.25
  2372: 80207980     0 NOTYPE  LOCAL  DEFAULT  185 .L0 
  2373: 8020799c     0 NOTYPE  LOCAL  DEFAULT  185 .L0 
  2374: 802079c4     0 NOTYPE  LOCAL  DEFAULT  185 .L0 
  2375: 802079e0     0 NOTYPE  LOCAL  DEFAULT  185 .L0 
  2376: 802079f4     0 NOTYPE  LOCAL  DEFAULT  185 .L0 
  2377: 80207a08     0 NOTYPE  LOCAL  DEFAULT  185 .L0 
  2378: 80207a14     0 NOTYPE  LOCAL  DEFAULT  185 .L0 
  2379: 80207a18     0 NOTYPE  LOCAL  DEFAULT  185 .L0 
  2380: 80207a18     0 NOTYPE  LOCAL  DEFAULT  186 .L0 
  2381: 80207a18     0 NOTYPE  LOCAL  DEFAULT  186 .L0 
  2382: 80207a18     0 NOTYPE  LOCAL  DEFAULT  186 $x
  2383: 80207a18     0 NOTYPE  LOCAL  DEFAULT  186 .L0 
  2384: 80207ac0     0 NOTYPE  LOCAL  DEFAULT  186 .L0 
  2385: 80207ac0     0 NOTYPE  LOCAL  DEFAULT  187 .L0 
  2386: 80207ac0     0 NOTYPE  LOCAL  DEFAULT  187 .L0 
  2387: 80207ac0     0 NOTYPE  LOCAL  DEFAULT  187 $x
  2388: 80207ac0     0 NOTYPE  LOCAL  DEFAULT  187 .L0 
  2389: 80207acc     0 NOTYPE  LOCAL  DEFAULT  187 .L0 
  2390: 80207b10     0 NOTYPE  LOCAL  DEFAULT  187 .L0 
  2391: 80207b10     0 NOTYPE  LOCAL  DEFAULT  188 .L0 
  2392: 80207b10     0 NOTYPE  LOCAL  DEFAULT  188 .L0 
  2393: 80207b10     0 NOTYPE  LOCAL  DEFAULT  188 $x
  2394: 80207b10     0 NOTYPE  LOCAL  DEFAULT  188 .L0 
  2395: 80207b4c     0 NOTYPE  LOCAL  DEFAULT  188 .L0 
  2396: 80207b4c     0 NOTYPE  LOCAL  DEFAULT  189 .L0 
  2397: 80207b4c     0 NOTYPE  LOCAL  DEFAULT  189 .L0 
  2398: 80207b4c     0 NOTYPE  LOCAL  DEFAULT  189 $x
  2399: 80207b4c     0 NOTYPE  LOCAL  DEFAULT  189 .L0 
  2400: 80207b64     0 NOTYPE  LOCAL  DEFAULT  189 .L0 
  2401: 80207b74     0 NOTYPE  LOCAL  DEFAULT  189 .L0 
  2402: 8022005a    43 OBJECT  LOCAL  DEFAULT  892 .Lanon.367b02bec762b8b0e9ebb0ef9c2daf66.0
  2403: 80220088    16 OBJECT  LOCAL  DEFAULT  892 .Lanon.367b02bec762b8b0e9ebb0ef9c2daf66.1
  2404: 80220218    16 OBJECT  LOCAL  DEFAULT  892 .Lanon.367b02bec762b8b0e9ebb0ef9c2daf66.26
  2405: 80207bb0     0 NOTYPE  LOCAL  DEFAULT  189 .L0 
  2406: 80207bb0     0 NOTYPE  LOCAL  DEFAULT  190 .L0 
  2407: 80207bb0     0 NOTYPE  LOCAL  DEFAULT  190 .L0 
  2408: 80207bb0     0 NOTYPE  LOCAL  DEFAULT  190 $x
  2409: 80207bb0     0 NOTYPE  LOCAL  DEFAULT  190 .L0 
  2410: 80207c34     0 NOTYPE  LOCAL  DEFAULT  190 .L0 
  2411: 8022005a     0 NOTYPE  LOCAL  DEFAULT  892 $d
  2412: 80220088     0 NOTYPE  LOCAL  DEFAULT  892 $d
  2413: 8021e411     0 NOTYPE  LOCAL  DEFAULT  892 $d
  2414: 80220098     0 NOTYPE  LOCAL  DEFAULT  892 $d
  2415: 802200a8     0 NOTYPE  LOCAL  DEFAULT  892 $d
  2416: 802200b8     0 NOTYPE  LOCAL  DEFAULT  892 $d
  2417: 802200c8     0 NOTYPE  LOCAL  DEFAULT  892 $d
  2418: 802200d8     0 NOTYPE  LOCAL  DEFAULT  892 $d
  2419: 802200e8     0 NOTYPE  LOCAL  DEFAULT  892 $d
  2420: 802200f8     0 NOTYPE  LOCAL  DEFAULT  892 $d
  2421: 80220108     0 NOTYPE  LOCAL  DEFAULT  892 $d
  2422: 80220118     0 NOTYPE  LOCAL  DEFAULT  892 $d
  2423: 80220128     0 NOTYPE  LOCAL  DEFAULT  892 $d
  2424: 80220138     0 NOTYPE  LOCAL  DEFAULT  892 $d
  2425: 80220148     0 NOTYPE  LOCAL  DEFAULT  892 $d
  2426: 80220158     0 NOTYPE  LOCAL  DEFAULT  892 $d
  2427: 80220168     0 NOTYPE  LOCAL  DEFAULT  892 $d
  2428: 80220178     0 NOTYPE  LOCAL  DEFAULT  892 $d
  2429: 80220188     0 NOTYPE  LOCAL  DEFAULT  892 $d
  2430: 80220198     0 NOTYPE  LOCAL  DEFAULT  892 $d
  2431: 802201b0     0 NOTYPE  LOCAL  DEFAULT  892 $d
  2432: 802201c0     0 NOTYPE  LOCAL  DEFAULT  892 $d
  2433: 802201d0     0 NOTYPE  LOCAL  DEFAULT  892 $d
  2434: 802201e8     0 NOTYPE  LOCAL  DEFAULT  892 $d
  2435: 802201f8     0 NOTYPE  LOCAL  DEFAULT  892 $d
  2436: 80220208     0 NOTYPE  LOCAL  DEFAULT  892 $d
  2437: 80220218     0 NOTYPE  LOCAL  DEFAULT  892 $d
  2438: 000000cd     0 NOTYPE  LOCAL  DEFAULT  905 .L0 
  2439: 000000cd     0 NOTYPE  LOCAL  DEFAULT  905 $d
  2440: 000000f6     0 NOTYPE  LOCAL  DEFAULT  905 .L0 
  2441: 00002d85     0 NOTYPE  LOCAL  DEFAULT  896 $d
  2442: 0000f813     0 NOTYPE  LOCAL  DEFAULT  897 .L0 
  2443: 0000f813     0 NOTYPE  LOCAL  DEFAULT  897 $d
  2444: 000049ad     0 NOTYPE  LOCAL  DEFAULT  904 .Lline_table_start0
  2445: 00000e28     0 NOTYPE  LOCAL  DEFAULT  899 .L0 
  2446: 00000cd8     0 NOTYPE  LOCAL  DEFAULT  899 .L0 
  2447: 00000d00     0 NOTYPE  LOCAL  DEFAULT  899 .L0 
  2448: 00000d28     0 NOTYPE  LOCAL  DEFAULT  899 .L0 
  2449: 00000d50     0 NOTYPE  LOCAL  DEFAULT  899 .L0 
  2450: 00000d68     0 NOTYPE  LOCAL  DEFAULT  899 .L0 
  2451: 00000d80     0 NOTYPE  LOCAL  DEFAULT  899 .L0 
  2452: 00000d98     0 NOTYPE  LOCAL  DEFAULT  899 .L0 
  2453: 00000db0     0 NOTYPE  LOCAL  DEFAULT  899 .L0 
  2454: 00000dc8     0 NOTYPE  LOCAL  DEFAULT  899 .L0 
  2455: 00000de0     0 NOTYPE  LOCAL  DEFAULT  899 .L0 
  2456: 00000df8     0 NOTYPE  LOCAL  DEFAULT  899 .L0 
  2457: 00000e10     0 NOTYPE  LOCAL  DEFAULT  899 .L0 
  2458: 00000c60     0 NOTYPE  LOCAL  DEFAULT  899 .L0 
  2459: 00000c78     0 NOTYPE  LOCAL  DEFAULT  899 .L0 
  2460: 00000c90     0 NOTYPE  LOCAL  DEFAULT  899 .L0 
  2461: 00000ca8     0 NOTYPE  LOCAL  DEFAULT  899 .L0 
  2462: 00000cc0     0 NOTYPE  LOCAL  DEFAULT  899 .L0 
  2463: 000009e8     0 NOTYPE  LOCAL  DEFAULT  898 $d
  2464: 00000c60     0 NOTYPE  LOCAL  DEFAULT  899 $d
  2465: 000948bf     0 NOTYPE  LOCAL  DEFAULT  900 $d
  2466: 0000005e     0 NOTYPE  LOCAL  DEFAULT  901 $d
  2467: 00000000     0 NOTYPE  LOCAL  DEFAULT  ABS $d
  2468: 000015f8     0 NOTYPE  LOCAL  DEFAULT  903 .L0 
  2469: 000015f8     0 NOTYPE  LOCAL  DEFAULT  903 $d
  2470: 000049ad     0 NOTYPE  LOCAL  DEFAULT  904 $d
  2471: 80207048   100 FUNC    LOCAL  HIDDEN   179 _RNvMs7_NtCsg1amJnYx2jd_4main10virtmemoryNtB5_3Kvm12alloc_kstack
  2472: 80207344   108 FUNC    LOCAL  HIDDEN   182 _RNvMs8_NtCsg1amJnYx2jd_4main10virtmemoryNtB5_3Uvm3new
  2473: 802073b0   240 FUNC    LOCAL  HIDDEN   183 _RNvMs8_NtCsg1amJnYx2jd_4main10virtmemoryNtB5_3Uvm9init_proc
  2474: 80207b4c   100 FUNC    LOCAL  HIDDEN   189 _RNvXs6_NtCsg1amJnYx2jd_4main10virtmemoryNtB5_3KvmNtNtCsakCY22H5bhg_4core7default7Default7default
  2475: 80207ac0    80 FUNC    LOCAL  HIDDEN   187 _RNvXs2_NtCsg1amJnYx2jd_4main10virtmemoryNtB5_4SATPINtNtCsakCY22H5bhg_4core7convert4IntomE4into
  2476: 802072d8   108 FUNC    LOCAL  HIDDEN   181 _RNvMs7_NtCsg1amJnYx2jd_4main10virtmemoryNtB5_3Kvm9start_kvm
  2477: 00000000     0 FILE    LOCAL  DEFAULT  ABS dlh9yd4qh9ncv7o0scd53spsn
  2478: 80207c34     0 NOTYPE  LOCAL  DEFAULT  191 .L0 
  2479: 80207c34     0 NOTYPE  LOCAL  DEFAULT  191 .L0 
  2480: 80207c34     0 NOTYPE  LOCAL  DEFAULT  191 $x
  2481: 80207c34     0 NOTYPE  LOCAL  DEFAULT  191 .L0 
  2482: 80207c44     0 NOTYPE  LOCAL  DEFAULT  191 .L0 
  2483: 80207c44     0 NOTYPE  LOCAL  DEFAULT  192 .L0 
  2484: 80207c44     0 NOTYPE  LOCAL  DEFAULT  192 .L0 
  2485: 80207c44     0 NOTYPE  LOCAL  DEFAULT  192 $x
  2486: 80207c44     0 NOTYPE  LOCAL  DEFAULT  192 .L0 
  2487: 80207c54     0 NOTYPE  LOCAL  DEFAULT  192 .L0 
  2488: 00002ff6     0 NOTYPE  LOCAL  DEFAULT  896 $d
  2489: 00010ccf     0 NOTYPE  LOCAL  DEFAULT  897 .L0 
  2490: 00010ccf     0 NOTYPE  LOCAL  DEFAULT  897 $d
  2491: 00004fd6     0 NOTYPE  LOCAL  DEFAULT  904 .Lline_table_start0
  2492: 00000ea8     0 NOTYPE  LOCAL  DEFAULT  899 .L0 
  2493: 00000a80     0 NOTYPE  LOCAL  DEFAULT  898 $d
  2494: 00000ea8     0 NOTYPE  LOCAL  DEFAULT  899 $d
  2495: 000948bf     0 NOTYPE  LOCAL  DEFAULT  900 $d
  2496: 0000005e     0 NOTYPE  LOCAL  DEFAULT  901 $d
  2497: 00000000     0 NOTYPE  LOCAL  DEFAULT  ABS $d
  2498: 000017ac     0 NOTYPE  LOCAL  DEFAULT  903 .L0 
  2499: 000017ac     0 NOTYPE  LOCAL  DEFAULT  903 $d
  2500: 00004fd6     0 NOTYPE  LOCAL  DEFAULT  904 $d
  2501: 80207c34    16 FUNC    LOCAL  HIDDEN   191 _RINvNtNtCsakCY22H5bhg_4core3ptr8metadata18from_raw_parts_mutNtNtCsg1amJnYx2jd_4main7process7ProcessuEB10_
  2502: 80207c44    16 FUNC    LOCAL  HIDDEN   192 _RINvNtNtCsakCY22H5bhg_4core3ptr8metadata18from_raw_parts_muthuECsg1amJnYx2jd_4main
  2503: 00000000     0 FILE    LOCAL  DEFAULT  ABS dp7azgxzfc7bs9flef0zta3mj
  2504: 80207c54     0 NOTYPE  LOCAL  DEFAULT  193 .L0 
  2505: 80207c54     0 NOTYPE  LOCAL  DEFAULT  193 .L0 
  2506: 80207c54     0 NOTYPE  LOCAL  DEFAULT  193 $x
  2507: 80207c54     0 NOTYPE  LOCAL  DEFAULT  193 .L0 
  2508: 80220298    16 OBJECT  LOCAL  DEFAULT  892 .Lanon.fc81cb03f7a9dde8f8953a96b310dfbf.8
  2509: 80220284    18 OBJECT  LOCAL  DEFAULT  892 .Lanon.fc81cb03f7a9dde8f8953a96b310dfbf.7
  2510: 80220274    16 OBJECT  LOCAL  DEFAULT  892 .Lanon.fc81cb03f7a9dde8f8953a96b310dfbf.6
  2511: 80220268    10 OBJECT  LOCAL  DEFAULT  892 .Lanon.fc81cb03f7a9dde8f8953a96b310dfbf.5
  2512: 80220258    16 OBJECT  LOCAL  DEFAULT  892 .Lanon.fc81cb03f7a9dde8f8953a96b310dfbf.4
  2513: 80220228     9 OBJECT  LOCAL  DEFAULT  892 .Lanon.fc81cb03f7a9dde8f8953a96b310dfbf.0
  2514: 80220231     7 OBJECT  LOCAL  DEFAULT  892 .Lanon.fc81cb03f7a9dde8f8953a96b310dfbf.1
  2515: 80220238    16 OBJECT  LOCAL  DEFAULT  892 .Lanon.fc81cb03f7a9dde8f8953a96b310dfbf.2
  2516: 80220228     0 NOTYPE  LOCAL  DEFAULT  892 $d
  2517: 80220231     0 NOTYPE  LOCAL  DEFAULT  892 $d
  2518: 80220238     0 NOTYPE  LOCAL  DEFAULT  892 $d
  2519: 80220250     0 NOTYPE  LOCAL  DEFAULT  892 $d
  2520: 80220258     0 NOTYPE  LOCAL  DEFAULT  892 $d
  2521: 80220268     0 NOTYPE  LOCAL  DEFAULT  892 $d
  2522: 80220274     0 NOTYPE  LOCAL  DEFAULT  892 $d
  2523: 80220284     0 NOTYPE  LOCAL  DEFAULT  892 $d
  2524: 80220298     0 NOTYPE  LOCAL  DEFAULT  892 $d
  2525: 000030b5     0 NOTYPE  LOCAL  DEFAULT  896 $d
  2526: 000111db     0 NOTYPE  LOCAL  DEFAULT  897 .L0 
  2527: 000111db     0 NOTYPE  LOCAL  DEFAULT  897 $d
  2528: 00005097     0 NOTYPE  LOCAL  DEFAULT  904 .Lline_table_start0
  2529: 00000aa8     0 NOTYPE  LOCAL  DEFAULT  898 $d
  2530: 000948bf     0 NOTYPE  LOCAL  DEFAULT  900 $d
  2531: 0000005e     0 NOTYPE  LOCAL  DEFAULT  901 $d
  2532: 00000000     0 NOTYPE  LOCAL  DEFAULT  ABS $d
  2533: 000017f0     0 NOTYPE  LOCAL  DEFAULT  903 .L0 
  2534: 000017f0     0 NOTYPE  LOCAL  DEFAULT  903 $d
  2535: 00005097     0 NOTYPE  LOCAL  DEFAULT  904 $d
  2536: 80207c54   208 FUNC    LOCAL  HIDDEN   193 _RNvXs3_NtNtCsakCY22H5bhg_4core5panic10panic_infoNtB5_9PanicInfoNtNtB9_3fmt5Debug3fmtCsg1amJnYx2jd_4main
  2537: 00000000     0 FILE    LOCAL  DEFAULT  ABS dwhrdq7n9q7vi9fbtkpckdnny
  2538: 80207d24     0 NOTYPE  LOCAL  DEFAULT  194 .L0 
  2539: 80207d24     0 NOTYPE  LOCAL  DEFAULT  194 .L0 
  2540: 80207d24     0 NOTYPE  LOCAL  DEFAULT  194 $x
  2541: 80207d24     0 NOTYPE  LOCAL  DEFAULT  194 .L0 
  2542: 80207d88     0 NOTYPE  LOCAL  DEFAULT  194 .L0 
  2543: 80207d88     0 NOTYPE  LOCAL  DEFAULT  195 .L0 
  2544: 80207d88     0 NOTYPE  LOCAL  DEFAULT  195 .L0 
  2545: 80207d88     0 NOTYPE  LOCAL  DEFAULT  195 $x
  2546: 80207d88     0 NOTYPE  LOCAL  DEFAULT  195 .L0 
  2547: 80207dec     0 NOTYPE  LOCAL  DEFAULT  195 .L0 
  2548: 80207dec     0 NOTYPE  LOCAL  DEFAULT  196 .L0 
  2549: 80207dec     0 NOTYPE  LOCAL  DEFAULT  196 .L0 
  2550: 80207dec     0 NOTYPE  LOCAL  DEFAULT  196 $x
  2551: 80207dec     0 NOTYPE  LOCAL  DEFAULT  196 .L0 
  2552: 80207e50     0 NOTYPE  LOCAL  DEFAULT  196 .L0 
  2553: 000031d3     0 NOTYPE  LOCAL  DEFAULT  896 $d
  2554: 00011773     0 NOTYPE  LOCAL  DEFAULT  897 .L0 
  2555: 00011773     0 NOTYPE  LOCAL  DEFAULT  897 $d
  2556: 00005153     0 NOTYPE  LOCAL  DEFAULT  904 .Lline_table_start0
  2557: 00000ec0     0 NOTYPE  LOCAL  DEFAULT  899 .L0 
  2558: 00000ae8     0 NOTYPE  LOCAL  DEFAULT  898 $d
  2559: 00000ec0     0 NOTYPE  LOCAL  DEFAULT  899 $d
  2560: 000948bf     0 NOTYPE  LOCAL  DEFAULT  900 $d
  2561: 0000005e     0 NOTYPE  LOCAL  DEFAULT  901 $d
  2562: 00000000     0 NOTYPE  LOCAL  DEFAULT  ABS $d
  2563: 00001820     0 NOTYPE  LOCAL  DEFAULT  903 .L0 
  2564: 00001820     0 NOTYPE  LOCAL  DEFAULT  903 $d
  2565: 00005153     0 NOTYPE  LOCAL  DEFAULT  904 $d
  2566: 80207d24   100 FUNC    LOCAL  HIDDEN   194 _RINvMNtNtCsakCY22H5bhg_4core3fmt2rtNtB3_8Argument10new_binaryjECsg1amJnYx2jd_4main
  2567: 80207dec   100 FUNC    LOCAL  HIDDEN   196 _RINvMNtNtCsakCY22H5bhg_4core3fmt2rtNtB3_8Argument9new_debugRNtNtNtB7_5panic10panic_info9PanicInfoECsg1amJnYx2jd_4main
  2568: 80207d88   100 FUNC    LOCAL  HIDDEN   195 _RINvMNtNtCsakCY22H5bhg_4core3fmt2rtNtB3_8Argument11new_displaylECsg1amJnYx2jd_4main
  2569: 00000000     0 FILE    LOCAL  DEFAULT  ABS dza5awcxwhv8mz84ujlme5vx2
  2570: 80207e50     0 NOTYPE  LOCAL  DEFAULT  197 .L0 
  2571: 80207e50     0 NOTYPE  LOCAL  DEFAULT  197 .L0 
  2572: 80207e50     0 NOTYPE  LOCAL  DEFAULT  197 $x
  2573: 80207e50     0 NOTYPE  LOCAL  DEFAULT  197 .L0 
  2574: 802202a8     0 NOTYPE  LOCAL  DEFAULT  892 .LJTI0_0
  2575: 80207e90     0 NOTYPE  LOCAL  DEFAULT  197 .L0 
  2576: 80207ec8     0 NOTYPE  LOCAL  DEFAULT  197 .L0 
  2577: 80207f00     0 NOTYPE  LOCAL  DEFAULT  197 .L0 
  2578: 80207f38     0 NOTYPE  LOCAL  DEFAULT  197 .L0 
  2579: 80207f70     0 NOTYPE  LOCAL  DEFAULT  197 .L0 
  2580: 80207fb4     0 NOTYPE  LOCAL  DEFAULT  197 .L0 
  2581: 802202a8     0 NOTYPE  LOCAL  DEFAULT  892 $d
  2582: 80207fb4     0 NOTYPE  LOCAL  DEFAULT  198 .L0 
  2583: 80207fb4     0 NOTYPE  LOCAL  DEFAULT  198 .L0 
  2584: 80207fb4     0 NOTYPE  LOCAL  DEFAULT  198 $x
  2585: 80207fb4     0 NOTYPE  LOCAL  DEFAULT  198 .L0 
  2586: 802202bc     0 NOTYPE  LOCAL  DEFAULT  892 .LJTI1_0
  2587: 80207ff8     0 NOTYPE  LOCAL  DEFAULT  198 .L0 
  2588: 80208008     0 NOTYPE  LOCAL  DEFAULT  198 .L0 
  2589: 8020801c     0 NOTYPE  LOCAL  DEFAULT  198 .L0 
  2590: 802202e4    42 OBJECT  LOCAL  DEFAULT  892 .Lanon.e2a8177eeec433e7b66333732208a042.0
  2591: 80220310    16 OBJECT  LOCAL  DEFAULT  892 .Lanon.e2a8177eeec433e7b66333732208a042.2
  2592: 80208040     0 NOTYPE  LOCAL  DEFAULT  198 .L0 
  2593: 80220320    50 OBJECT  LOCAL  DEFAULT  892 .Lanon.e2a8177eeec433e7b66333732208a042.3
  2594: 80220354    16 OBJECT  LOCAL  DEFAULT  892 .Lanon.e2a8177eeec433e7b66333732208a042.4
  2595: 80208064     0 NOTYPE  LOCAL  DEFAULT  198 .L0 
  2596: 80208088     0 NOTYPE  LOCAL  DEFAULT  198 .L0 
  2597: 802202bc     0 NOTYPE  LOCAL  DEFAULT  892 $d
  2598: 80208088     0 NOTYPE  LOCAL  DEFAULT  199 .L0 
  2599: 80208088     0 NOTYPE  LOCAL  DEFAULT  199 .L0 
  2600: 80208088     0 NOTYPE  LOCAL  DEFAULT  199 $x
  2601: 80208088     0 NOTYPE  LOCAL  DEFAULT  199 .L0 
  2602: 802202d0     0 NOTYPE  LOCAL  DEFAULT  892 .LJTI2_0
  2603: 802080c8     0 NOTYPE  LOCAL  DEFAULT  199 .L0 
  2604: 802080f0     0 NOTYPE  LOCAL  DEFAULT  199 .L0 
  2605: 80208118     0 NOTYPE  LOCAL  DEFAULT  199 .L0 
  2606: 80208140     0 NOTYPE  LOCAL  DEFAULT  199 .L0 
  2607: 80208168     0 NOTYPE  LOCAL  DEFAULT  199 .L0 
  2608: 8020819c     0 NOTYPE  LOCAL  DEFAULT  199 .L0 
  2609: 802202d0     0 NOTYPE  LOCAL  DEFAULT  892 $d
  2610: 802202e4     0 NOTYPE  LOCAL  DEFAULT  892 $d
  2611: 8021eb6a     0 NOTYPE  LOCAL  DEFAULT  892 $d
  2612: 80220310     0 NOTYPE  LOCAL  DEFAULT  892 $d
  2613: 80220320     0 NOTYPE  LOCAL  DEFAULT  892 $d
  2614: 80220354     0 NOTYPE  LOCAL  DEFAULT  892 $d
  2615: 000032e1     0 NOTYPE  LOCAL  DEFAULT  896 $d
  2616: 00011ca3     0 NOTYPE  LOCAL  DEFAULT  897 .L0 
  2617: 00011ca3     0 NOTYPE  LOCAL  DEFAULT  897 $d
  2618: 00005275     0 NOTYPE  LOCAL  DEFAULT  904 .Lline_table_start0
  2619: 00000ee0     0 NOTYPE  LOCAL  DEFAULT  899 .L0 
  2620: 00000b18     0 NOTYPE  LOCAL  DEFAULT  898 $d
  2621: 00000ee0     0 NOTYPE  LOCAL  DEFAULT  899 $d
  2622: 000948bf     0 NOTYPE  LOCAL  DEFAULT  900 $d
  2623: 0000005e     0 NOTYPE  LOCAL  DEFAULT  901 $d
  2624: 00000000     0 NOTYPE  LOCAL  DEFAULT  ABS $d
  2625: 00001888     0 NOTYPE  LOCAL  DEFAULT  903 .L0 
  2626: 00001888     0 NOTYPE  LOCAL  DEFAULT  903 $d
  2627: 00005275     0 NOTYPE  LOCAL  DEFAULT  904 $d
  2628: 80207fb4   212 FUNC    LOCAL  HIDDEN   198 _RINvNtNtCsakCY22H5bhg_4core4sync6atomic12atomic_storehECsg1amJnYx2jd_4main
  2629: 80208088   276 FUNC    LOCAL  HIDDEN   199 _RINvNtNtCsakCY22H5bhg_4core4sync6atomic9atomic_orhhECsg1amJnYx2jd_4main
  2630: 80207e50   356 FUNC    LOCAL  HIDDEN   197 _RINvNtNtCsakCY22H5bhg_4core4sync6atomic10atomic_andhhECsg1amJnYx2jd_4main
  2631: 00000000     0 FILE    LOCAL  DEFAULT  ABS dzje9jzmnty251h8l90lp13q4
  2632: 8020819c     0 NOTYPE  LOCAL  DEFAULT  200 .L0 
  2633: 8020819c     0 NOTYPE  LOCAL  DEFAULT  200 .L0 
  2634: 8020819c     0 NOTYPE  LOCAL  DEFAULT  200 $x
  2635: 8020819c     0 NOTYPE  LOCAL  DEFAULT  200 .L0 
  2636: 802081fc     0 NOTYPE  LOCAL  DEFAULT  200 .L0 
  2637: 802081fc     0 NOTYPE  LOCAL  DEFAULT  201 .L0 
  2638: 802081fc     0 NOTYPE  LOCAL  DEFAULT  201 .L0 
  2639: 802081fc     0 NOTYPE  LOCAL  DEFAULT  201 $x
  2640: 802081fc     0 NOTYPE  LOCAL  DEFAULT  201 .L0 
  2641: 80208250     0 NOTYPE  LOCAL  DEFAULT  201 .L0 
  2642: 80208250     0 NOTYPE  LOCAL  DEFAULT  202 .L0 
  2643: 80208250     0 NOTYPE  LOCAL  DEFAULT  202 .L0 
  2644: 80208250     0 NOTYPE  LOCAL  DEFAULT  202 $x
  2645: 80208250     0 NOTYPE  LOCAL  DEFAULT  202 .L0 
  2646: 802082b4     0 NOTYPE  LOCAL  DEFAULT  202 .L0 
  2647: 802082b4     0 NOTYPE  LOCAL  DEFAULT  203 .L0 
  2648: 802082b4     0 NOTYPE  LOCAL  DEFAULT  203 .L0 
  2649: 802082b4     0 NOTYPE  LOCAL  DEFAULT  203 $x
  2650: 802082b4     0 NOTYPE  LOCAL  DEFAULT  203 .L0 
  2651: 80208314     0 NOTYPE  LOCAL  DEFAULT  203 .L0 
  2652: 0000011e     0 NOTYPE  LOCAL  DEFAULT  905 .L0 
  2653: 0000011e     0 NOTYPE  LOCAL  DEFAULT  905 $d
  2654: 0000336b     0 NOTYPE  LOCAL  DEFAULT  896 $d
  2655: 00011e1b     0 NOTYPE  LOCAL  DEFAULT  897 .L0 
  2656: 00011e1b     0 NOTYPE  LOCAL  DEFAULT  897 $d
  2657: 0000540c     0 NOTYPE  LOCAL  DEFAULT  904 .Lline_table_start0
  2658: 00000f00     0 NOTYPE  LOCAL  DEFAULT  899 .L0 
  2659: 00000b48     0 NOTYPE  LOCAL  DEFAULT  898 $d
  2660: 00000f00     0 NOTYPE  LOCAL  DEFAULT  899 $d
  2661: 000948bf     0 NOTYPE  LOCAL  DEFAULT  900 $d
  2662: 0000005e     0 NOTYPE  LOCAL  DEFAULT  901 $d
  2663: 00000000     0 NOTYPE  LOCAL  DEFAULT  ABS $d
  2664: 000018f4     0 NOTYPE  LOCAL  DEFAULT  903 .L0 
  2665: 000018f4     0 NOTYPE  LOCAL  DEFAULT  903 $d
  2666: 0000540c     0 NOTYPE  LOCAL  DEFAULT  904 $d
  2667: 80208250   100 FUNC    LOCAL  HIDDEN   202 _RINvNtCsakCY22H5bhg_4core3ptr5writeNtNtCsg1amJnYx2jd_4main7process7ProcessEBB_
  2668: 8020819c    96 FUNC    LOCAL  HIDDEN   200 _RINvNtCsakCY22H5bhg_4core3ptr14write_volatilehECsg1amJnYx2jd_4main
  2669: 802082b4    96 FUNC    LOCAL  HIDDEN   203 _RINvNtCsakCY22H5bhg_4core3ptr5writemECsg1amJnYx2jd_4main
  2670: 802081fc    84 FUNC    LOCAL  HIDDEN   201 _RINvNtCsakCY22H5bhg_4core3ptr4readmECsg1amJnYx2jd_4main
  2671: 00000000     0 FILE    LOCAL  DEFAULT  ABS eevlk5zhokmt5vcb7kyx9e0kc
  2672: 0000344c     0 NOTYPE  LOCAL  DEFAULT  896 $d
  2673: 00012378     0 NOTYPE  LOCAL  DEFAULT  897 .L0 
  2674: 00012378     0 NOTYPE  LOCAL  DEFAULT  897 $d
  2675: 0000559a     0 NOTYPE  LOCAL  DEFAULT  904 .Lline_table_start0
  2676: 00000b80     0 NOTYPE  LOCAL  DEFAULT  898 $d
  2677: 000948bf     0 NOTYPE  LOCAL  DEFAULT  900 $d
  2678: 0000005e     0 NOTYPE  LOCAL  DEFAULT  901 $d
  2679: 00000000     0 NOTYPE  LOCAL  DEFAULT  ABS $d
  2680: 00001988     0 NOTYPE  LOCAL  DEFAULT  903 .L0 
  2681: 00001988     0 NOTYPE  LOCAL  DEFAULT  903 $d
  2682: 0000559a     0 NOTYPE  LOCAL  DEFAULT  904 $d
  2683: 00000000     0 FILE    LOCAL  DEFAULT  ABS epgn3kvqjrvezs9k9vztg1qar
  2684: 80208314    32 FUNC    LOCAL  DEFAULT  204 _RNvMs0_NtCsakCY22H5bhg_4core3numl12unsigned_absCsg1amJnYx2jd_4main
  2685: 80208314     0 NOTYPE  LOCAL  DEFAULT  204 .L0 
  2686: 80208314     0 NOTYPE  LOCAL  DEFAULT  204 .L0 
  2687: 80208314     0 NOTYPE  LOCAL  DEFAULT  204 $x
  2688: 80208314     0 NOTYPE  LOCAL  DEFAULT  204 .L0 
  2689: 80208334    80 FUNC    LOCAL  DEFAULT  205 _RNvMs0_NtCsakCY22H5bhg_4core3numl12wrapping_absCsg1amJnYx2jd_4main
  2690: 80208334     0 NOTYPE  LOCAL  DEFAULT  204 .L0 
  2691: 80208334     0 NOTYPE  LOCAL  DEFAULT  205 .L0 
  2692: 80208334     0 NOTYPE  LOCAL  DEFAULT  205 .L0 
  2693: 80208334     0 NOTYPE  LOCAL  DEFAULT  205 $x
  2694: 80208334     0 NOTYPE  LOCAL  DEFAULT  205 .L0 
  2695: 8020836c     0 NOTYPE  LOCAL  DEFAULT  205 .L0 
  2696: 80208384     0 NOTYPE  LOCAL  DEFAULT  205 .L0 
  2697: 80208384     0 NOTYPE  LOCAL  DEFAULT  206 .L0 
  2698: 80208384     0 NOTYPE  LOCAL  DEFAULT  206 .L0 
  2699: 80208384     0 NOTYPE  LOCAL  DEFAULT  206 $x
  2700: 80208384     0 NOTYPE  LOCAL  DEFAULT  206 .L0 
  2701: 80208418    72 FUNC    LOCAL  DEFAULT  207 _RNvMs0_NtCsakCY22H5bhg_4core3numl24overflowing_add_unsignedCsg1amJnYx2jd_4main
  2702: 802083b4     0 NOTYPE  LOCAL  DEFAULT  206 .L0 
  2703: 80208418     0 NOTYPE  LOCAL  DEFAULT  206 .L0 
  2704: 80208418     0 NOTYPE  LOCAL  DEFAULT  207 .L0 
  2705: 80208418     0 NOTYPE  LOCAL  DEFAULT  207 .L0 
  2706: 80208418     0 NOTYPE  LOCAL  DEFAULT  207 $x
  2707: 80208418     0 NOTYPE  LOCAL  DEFAULT  207 .L0 
  2708: 80208438     0 NOTYPE  LOCAL  DEFAULT  207 .L0 
  2709: 80208460     0 NOTYPE  LOCAL  DEFAULT  207 .L0 
  2710: 80208460     0 NOTYPE  LOCAL  DEFAULT  208 .L0 
  2711: 80208460     0 NOTYPE  LOCAL  DEFAULT  208 .L0 
  2712: 80208460     0 NOTYPE  LOCAL  DEFAULT  208 $x
  2713: 80208460     0 NOTYPE  LOCAL  DEFAULT  208 .L0 
  2714: 8020847c     0 NOTYPE  LOCAL  DEFAULT  208 .L0 
  2715: 802084a0     0 NOTYPE  LOCAL  DEFAULT  208 .L0 
  2716: 80208500     0 NOTYPE  LOCAL  DEFAULT  208 .L0 
  2717: 80208500     0 NOTYPE  LOCAL  DEFAULT  209 .L0 
  2718: 80208500     0 NOTYPE  LOCAL  DEFAULT  209 .L0 
  2719: 80208500     0 NOTYPE  LOCAL  DEFAULT  209 $x
  2720: 80208500     0 NOTYPE  LOCAL  DEFAULT  209 .L0 
  2721: 80208548   280 FUNC    LOCAL  DEFAULT  210 _RNvMs9_NtCsakCY22H5bhg_4core3numj31one_less_than_next_power_of_twoCsg1amJnYx2jd_4main
  2722: 80220364    16 OBJECT  LOCAL  DEFAULT  892 .Lanon.94943a6430477b4fc52eed8fb8eaec85.1
  2723: 80208548     0 NOTYPE  LOCAL  DEFAULT  209 .L0 
  2724: 80208548     0 NOTYPE  LOCAL  DEFAULT  210 .L0 
  2725: 80208548     0 NOTYPE  LOCAL  DEFAULT  210 .L0 
  2726: 80208548     0 NOTYPE  LOCAL  DEFAULT  210 $x
  2727: 80208548     0 NOTYPE  LOCAL  DEFAULT  210 .L0 
  2728: 80208588     0 NOTYPE  LOCAL  DEFAULT  210 .L0 
  2729: 80208618     0 NOTYPE  LOCAL  DEFAULT  210 .L0 
  2730: 80208620     0 NOTYPE  LOCAL  DEFAULT  210 .L0 
  2731: 80208638     0 NOTYPE  LOCAL  DEFAULT  210 .L0 
  2732: 80208640     0 NOTYPE  LOCAL  DEFAULT  210 .L0 
  2733: 80208644     0 NOTYPE  LOCAL  DEFAULT  210 .L0 
  2734: 80208654     0 NOTYPE  LOCAL  DEFAULT  210 .L0 
  2735: 80208660     0 NOTYPE  LOCAL  DEFAULT  210 .L0 
  2736: 80208660     0 NOTYPE  LOCAL  DEFAULT  211 .L0 
  2737: 80208660     0 NOTYPE  LOCAL  DEFAULT  211 .L0 
  2738: 80208660     0 NOTYPE  LOCAL  DEFAULT  211 $x
  2739: 80208660     0 NOTYPE  LOCAL  DEFAULT  211 .L0 
  2740: 802086a4     0 NOTYPE  LOCAL  DEFAULT  211 .L0 
  2741: 80208730     0 NOTYPE  LOCAL  DEFAULT  211 .L0 
  2742: 80208730     0 NOTYPE  LOCAL  DEFAULT  212 .L0 
  2743: 80208730     0 NOTYPE  LOCAL  DEFAULT  212 .L0 
  2744: 80208730     0 NOTYPE  LOCAL  DEFAULT  212 $x
  2745: 80208730     0 NOTYPE  LOCAL  DEFAULT  212 .L0 
  2746: 80208750     0 NOTYPE  LOCAL  DEFAULT  212 .L0 
  2747: 80220374   184 OBJECT  LOCAL  DEFAULT  892 .Lanon.94943a6430477b4fc52eed8fb8eaec85.2
  2748: 8020876c     0 NOTYPE  LOCAL  DEFAULT  212 .L0 
  2749: 80208790     0 NOTYPE  LOCAL  DEFAULT  212 .L0 
  2750: 802087b4     0 NOTYPE  LOCAL  DEFAULT  212 .L0 
  2751: 802087b4     0 NOTYPE  LOCAL  DEFAULT  212 .L0 
  2752: 8021e780     0 NOTYPE  LOCAL  DEFAULT  892 $d
  2753: 80220364     0 NOTYPE  LOCAL  DEFAULT  892 $d
  2754: 80220374     0 NOTYPE  LOCAL  DEFAULT  892 $d
  2755: 000034fd     0 NOTYPE  LOCAL  DEFAULT  896 $d
  2756: 00012598     0 NOTYPE  LOCAL  DEFAULT  897 .L0 
  2757: 00012598     0 NOTYPE  LOCAL  DEFAULT  897 $d
  2758: 00005689     0 NOTYPE  LOCAL  DEFAULT  904 .Lline_table_start0
  2759: 00000f80     0 NOTYPE  LOCAL  DEFAULT  899 .L0 
  2760: 00000f28     0 NOTYPE  LOCAL  DEFAULT  899 .L0 
  2761: 00000f48     0 NOTYPE  LOCAL  DEFAULT  899 .L0 
  2762: 00000f68     0 NOTYPE  LOCAL  DEFAULT  899 .L0 
  2763: 00000ba0     0 NOTYPE  LOCAL  DEFAULT  898 $d
  2764: 00000f28     0 NOTYPE  LOCAL  DEFAULT  899 $d
  2765: 000948bf     0 NOTYPE  LOCAL  DEFAULT  900 $d
  2766: 0000005e     0 NOTYPE  LOCAL  DEFAULT  901 $d
  2767: 00000000     0 NOTYPE  LOCAL  DEFAULT  ABS $d
  2768: 000019b8     0 NOTYPE  LOCAL  DEFAULT  903 .L0 
  2769: 000019b8     0 NOTYPE  LOCAL  DEFAULT  903 $d
  2770: 00005689     0 NOTYPE  LOCAL  DEFAULT  904 $d
  2771: 80208730   132 FUNC    LOCAL  HIDDEN   212 _RNvNvMs6_NtCsakCY22H5bhg_4core3numm13unchecked_add18precondition_checkCsg1amJnYx2jd_4main
  2772: 80208384   148 FUNC    LOCAL  HIDDEN   206 _RNvMs0_NtCsakCY22H5bhg_4core3numl20checked_add_unsignedCsg1amJnYx2jd_4main
  2773: 80208500    72 FUNC    LOCAL  HIDDEN   209 _RNvMs9_NtCsakCY22H5bhg_4core3numj17next_power_of_twoCsg1amJnYx2jd_4main
  2774: 80208460   160 FUNC    LOCAL  HIDDEN   208 _RNvMs9_NtCsakCY22H5bhg_4core3numj11checked_mulCsg1amJnYx2jd_4main
  2775: 80208660   208 FUNC    LOCAL  HIDDEN   211 _RNvMs9_NtCsakCY22H5bhg_4core3numj8abs_diffCsg1amJnYx2jd_4main
  2776: 00000000     0 FILE    LOCAL  DEFAULT  ABS 24uc9cx68zqzsjdqbzvyq82qn
  2777: 802087b4     0 NOTYPE  LOCAL  DEFAULT  213 .L0 
  2778: 802087b4     0 NOTYPE  LOCAL  DEFAULT  213 $x
  2779: 802087bc     0 NOTYPE  LOCAL  DEFAULT  214 .L0 
  2780: 802087bc     0 NOTYPE  LOCAL  DEFAULT  214 $x
  2781: 0000005e     0 NOTYPE  LOCAL  DEFAULT  901 $d
  2782: 00000000     0 NOTYPE  LOCAL  DEFAULT  ABS $d
  2783: 80223b8c     0 NOTYPE  LOCAL  DEFAULT  893 $d
  2784: 00000000     0 FILE    LOCAL  DEFAULT  ABS buddy_system_allocator.d4d0ed359c8ea632-cgu.0
  2785: 802087c0     0 NOTYPE  LOCAL  DEFAULT  215 .L0 
  2786: 802087c0     0 NOTYPE  LOCAL  DEFAULT  215 .L0 
  2787: 802087c0     0 NOTYPE  LOCAL  DEFAULT  215 $x
  2788: 802087c0     0 NOTYPE  LOCAL  DEFAULT  215 .L0 
  2789: 802087cc     0 NOTYPE  LOCAL  DEFAULT  215 .L0 
  2790: 8022042c    16 OBJECT  LOCAL  DEFAULT  892 .Lanon.0ab17b1b73deef8740e9cde9e02bc182.15
  2791: 8022043c    16 OBJECT  LOCAL  DEFAULT  892 .Lanon.0ab17b1b73deef8740e9cde9e02bc182.16
  2792: 8022044c    16 OBJECT  LOCAL  DEFAULT  892 .Lanon.0ab17b1b73deef8740e9cde9e02bc182.17
  2793: 802088cc     0 NOTYPE  LOCAL  DEFAULT  215 .L0 
  2794: 802088cc     0 NOTYPE  LOCAL  DEFAULT  216 .L0 
  2795: 802088cc     0 NOTYPE  LOCAL  DEFAULT  216 .L0 
  2796: 802088cc     0 NOTYPE  LOCAL  DEFAULT  216 $x
  2797: 802088cc     0 NOTYPE  LOCAL  DEFAULT  216 .L0 
  2798: 802088f0     0 NOTYPE  LOCAL  DEFAULT  216 .L0 
  2799: 802088f0     0 NOTYPE  LOCAL  DEFAULT  217 .L0 
  2800: 802088f0     0 NOTYPE  LOCAL  DEFAULT  217 .L0 
  2801: 802088f0     0 NOTYPE  LOCAL  DEFAULT  217 $x
  2802: 802088f0     0 NOTYPE  LOCAL  DEFAULT  217 .L0 
  2803: 80208900     0 NOTYPE  LOCAL  DEFAULT  217 .L0 
  2804: 80208a0c    28 FUNC    LOCAL  DEFAULT  224 _RNvNvMNtNtCsakCY22H5bhg_4core3ptr9const_ptrPp7is_null7runtimeCsigOxFuwXbws_22buddy_system_allocator
  2805: 80208914     0 NOTYPE  LOCAL  DEFAULT  217 .L0 
  2806: 80208914     0 NOTYPE  LOCAL  DEFAULT  218 .L0 
  2807: 80208914     0 NOTYPE  LOCAL  DEFAULT  218 .L0 
  2808: 80208914     0 NOTYPE  LOCAL  DEFAULT  218 $x
  2809: 80208914     0 NOTYPE  LOCAL  DEFAULT  218 .L0 
  2810: 8020893c     0 NOTYPE  LOCAL  DEFAULT  218 .L0 
  2811: 8020893c     0 NOTYPE  LOCAL  DEFAULT  219 .L0 
  2812: 8020893c     0 NOTYPE  LOCAL  DEFAULT  219 .L0 
  2813: 8020893c     0 NOTYPE  LOCAL  DEFAULT  219 $x
  2814: 8020893c     0 NOTYPE  LOCAL  DEFAULT  219 .L0 
  2815: 80208950     0 NOTYPE  LOCAL  DEFAULT  219 .L0 
  2816: 80208950     0 NOTYPE  LOCAL  DEFAULT  220 .L0 
  2817: 80208950     0 NOTYPE  LOCAL  DEFAULT  220 .L0 
  2818: 80208950     0 NOTYPE  LOCAL  DEFAULT  220 $x
  2819: 80208950     0 NOTYPE  LOCAL  DEFAULT  220 .L0 
  2820: 8020897c     0 NOTYPE  LOCAL  DEFAULT  220 .L0 
  2821: 802089b4     0 NOTYPE  LOCAL  DEFAULT  220 .L0 
  2822: 802089b4     0 NOTYPE  LOCAL  DEFAULT  221 .L0 
  2823: 802089b4     0 NOTYPE  LOCAL  DEFAULT  221 .L0 
  2824: 802089b4     0 NOTYPE  LOCAL  DEFAULT  221 $x
  2825: 802089b4     0 NOTYPE  LOCAL  DEFAULT  221 .L0 
  2826: 802089d4     0 NOTYPE  LOCAL  DEFAULT  221 .L0 
  2827: 802089d4     0 NOTYPE  LOCAL  DEFAULT  222 .L0 
  2828: 802089d4     0 NOTYPE  LOCAL  DEFAULT  222 .L0 
  2829: 802089d4     0 NOTYPE  LOCAL  DEFAULT  222 $x
  2830: 802089d4     0 NOTYPE  LOCAL  DEFAULT  222 .L0 
  2831: 802089f8     0 NOTYPE  LOCAL  DEFAULT  222 .L0 
  2832: 802089f8     0 NOTYPE  LOCAL  DEFAULT  223 .L0 
  2833: 802089f8     0 NOTYPE  LOCAL  DEFAULT  223 .L0 
  2834: 802089f8     0 NOTYPE  LOCAL  DEFAULT  223 $x
  2835: 802089f8     0 NOTYPE  LOCAL  DEFAULT  223 .L0 
  2836: 80208a0c     0 NOTYPE  LOCAL  DEFAULT  223 .L0 
  2837: 80208a0c     0 NOTYPE  LOCAL  DEFAULT  224 .L0 
  2838: 80208a0c     0 NOTYPE  LOCAL  DEFAULT  224 .L0 
  2839: 80208a0c     0 NOTYPE  LOCAL  DEFAULT  224 $x
  2840: 80208a0c     0 NOTYPE  LOCAL  DEFAULT  224 .L0 
  2841: 80208a28     0 NOTYPE  LOCAL  DEFAULT  224 .L0 
  2842: 80208a28     0 NOTYPE  LOCAL  DEFAULT  225 .L0 
  2843: 80208a28     0 NOTYPE  LOCAL  DEFAULT  225 .L0 
  2844: 80208a28     0 NOTYPE  LOCAL  DEFAULT  225 $x
  2845: 80208a28     0 NOTYPE  LOCAL  DEFAULT  225 .L0 
  2846: 80208a68     0 NOTYPE  LOCAL  DEFAULT  225 .L0 
  2847: 80208aac     0 NOTYPE  LOCAL  DEFAULT  225 .L0 
  2848: 8022042c     0 NOTYPE  LOCAL  DEFAULT  892 $d
  2849: 8022043c     0 NOTYPE  LOCAL  DEFAULT  892 $d
  2850: 8022044c     0 NOTYPE  LOCAL  DEFAULT  892 $d
  2851: 00000147     0 NOTYPE  LOCAL  DEFAULT  905 .L0 
  2852: 00000147     0 NOTYPE  LOCAL  DEFAULT  905 $d
  2853: 00000170     0 NOTYPE  LOCAL  DEFAULT  905 .L0 
  2854: 0000019b     0 NOTYPE  LOCAL  DEFAULT  905 .L0 
  2855: 000001c8     0 NOTYPE  LOCAL  DEFAULT  905 .L0 
  2856: 00003650     0 NOTYPE  LOCAL  DEFAULT  896 $d
  2857: 00012bf4     0 NOTYPE  LOCAL  DEFAULT  897 .L0 
  2858: 00012bf4     0 NOTYPE  LOCAL  DEFAULT  897 $d
  2859: 00005a2c     0 NOTYPE  LOCAL  DEFAULT  904 .Lline_table_start0
  2860: 00001018     0 NOTYPE  LOCAL  DEFAULT  899 .L0 
  2861: 00000fd0     0 NOTYPE  LOCAL  DEFAULT  899 .L0 
  2862: 00000fe8     0 NOTYPE  LOCAL  DEFAULT  899 .L0 
  2863: 00001000     0 NOTYPE  LOCAL  DEFAULT  899 .L0 
  2864: 00000c00     0 NOTYPE  LOCAL  DEFAULT  898 $d
  2865: 00000fd0     0 NOTYPE  LOCAL  DEFAULT  899 $d
  2866: 000948bf     0 NOTYPE  LOCAL  DEFAULT  900 $d
  2867: 0000005e     0 NOTYPE  LOCAL  DEFAULT  901 $d
  2868: 00000000     0 NOTYPE  LOCAL  DEFAULT  ABS $d
  2869: 00001ac4     0 NOTYPE  LOCAL  DEFAULT  903 .L0 
  2870: 00001ac4     0 NOTYPE  LOCAL  DEFAULT  903 $d
  2871: 00005a2c     0 NOTYPE  LOCAL  DEFAULT  904 $d
  2872: 00000000     0 FILE    LOCAL  DEFAULT  ABS alloc.a8ffb13cea69265a-cgu.0
  2873: 80208aac     0 NOTYPE  LOCAL  DEFAULT  226 .L0 
  2874: 80208aac     0 NOTYPE  LOCAL  DEFAULT  226 .L0 
  2875: 80208aac     0 NOTYPE  LOCAL  DEFAULT  226 $x
  2876: 80208aac     0 NOTYPE  LOCAL  DEFAULT  226 .L0 
  2877: 80208ac0     0 NOTYPE  LOCAL  DEFAULT  226 .L0 
  2878: 80208ac0     0 NOTYPE  LOCAL  DEFAULT  227 .L0 
  2879: 80208ac0     0 NOTYPE  LOCAL  DEFAULT  227 .L0 
  2880: 80208ac0     0 NOTYPE  LOCAL  DEFAULT  227 $x
  2881: 80208ac0     0 NOTYPE  LOCAL  DEFAULT  227 .L0 
  2882: 80208ad4     0 NOTYPE  LOCAL  DEFAULT  227 .L0 
  2883: 80208ad4     0 NOTYPE  LOCAL  DEFAULT  228 .L0 
  2884: 80208ad4     0 NOTYPE  LOCAL  DEFAULT  228 .L0 
  2885: 80208ad4     0 NOTYPE  LOCAL  DEFAULT  228 $x
  2886: 80208ad4     0 NOTYPE  LOCAL  DEFAULT  228 .L0 
  2887: 80208af8     0 NOTYPE  LOCAL  DEFAULT  228 .L0 
  2888: 80208af8     0 NOTYPE  LOCAL  DEFAULT  229 .L0 
  2889: 80208af8     0 NOTYPE  LOCAL  DEFAULT  229 .L0 
  2890: 80208af8     0 NOTYPE  LOCAL  DEFAULT  229 $x
  2891: 80208af8     0 NOTYPE  LOCAL  DEFAULT  229 .L0 
  2892: 80208b24     0 NOTYPE  LOCAL  DEFAULT  229 .L0 
  2893: 80208b24     0 NOTYPE  LOCAL  DEFAULT  230 .L0 
  2894: 80208b24     0 NOTYPE  LOCAL  DEFAULT  230 .L0 
  2895: 80208b24     0 NOTYPE  LOCAL  DEFAULT  230 $x
  2896: 80208b24     0 NOTYPE  LOCAL  DEFAULT  230 .L0 
  2897: 80208b40     0 NOTYPE  LOCAL  DEFAULT  230 .L0 
  2898: 80208b88     0 NOTYPE  LOCAL  DEFAULT  230 .L0 
  2899: 80208d08    36 FUNC    LOCAL  DEFAULT  234 _RNvMNtCsevzKAMQQtOE_5alloc6stringNtB2_6String7reserveB4_
  2900: 80208b88     0 NOTYPE  LOCAL  DEFAULT  231 .L0 
  2901: 80208b88     0 NOTYPE  LOCAL  DEFAULT  231 .L0 
  2902: 80208b88     0 NOTYPE  LOCAL  DEFAULT  231 $x
  2903: 80208b88     0 NOTYPE  LOCAL  DEFAULT  231 .L0 
  2904: 80208bcc     0 NOTYPE  LOCAL  DEFAULT  231 .L0 
  2905: 80208bcc     0 NOTYPE  LOCAL  DEFAULT  232 .L0 
  2906: 80208bcc     0 NOTYPE  LOCAL  DEFAULT  232 .L0 
  2907: 80208bcc     0 NOTYPE  LOCAL  DEFAULT  232 $x
  2908: 80208bcc     0 NOTYPE  LOCAL  DEFAULT  232 .L0 
  2909: 80208bec     0 NOTYPE  LOCAL  DEFAULT  232 .L0 
  2910: 80208bec     0 NOTYPE  LOCAL  DEFAULT  233 .L0 
  2911: 80208bec     0 NOTYPE  LOCAL  DEFAULT  233 .L0 
  2912: 80208bec     0 NOTYPE  LOCAL  DEFAULT  233 $x
  2913: 80208bec     0 NOTYPE  LOCAL  DEFAULT  233 .L0 
  2914: 80208c20     0 NOTYPE  LOCAL  DEFAULT  233 .L0 
  2915: 80208c3c     0 NOTYPE  LOCAL  DEFAULT  233 .L0 
  2916: 80208c7c     0 NOTYPE  LOCAL  DEFAULT  233 .L0 
  2917: 8022045c    16 OBJECT  LOCAL  DEFAULT  892 .Lanon.576af42f0b505f0d8159281c7e393a50.15
  2918: 80208cec     0 NOTYPE  LOCAL  DEFAULT  233 .L0 
  2919: 80208cf8     0 NOTYPE  LOCAL  DEFAULT  233 .L0 
  2920: 8022046c    16 OBJECT  LOCAL  DEFAULT  892 .Lanon.576af42f0b505f0d8159281c7e393a50.16
  2921: 80208d08     0 NOTYPE  LOCAL  DEFAULT  233 .L0 
  2922: 80208d08     0 NOTYPE  LOCAL  DEFAULT  233 .L0 
  2923: 80208d08     0 NOTYPE  LOCAL  DEFAULT  234 .L0 
  2924: 80208d08     0 NOTYPE  LOCAL  DEFAULT  234 .L0 
  2925: 80208d08     0 NOTYPE  LOCAL  DEFAULT  234 $x
  2926: 80208d08     0 NOTYPE  LOCAL  DEFAULT  234 .L0 
  2927: 80208d2c     0 NOTYPE  LOCAL  DEFAULT  234 .L0 
  2928: 80208d2c     0 NOTYPE  LOCAL  DEFAULT  235 .L0 
  2929: 80208d2c     0 NOTYPE  LOCAL  DEFAULT  235 .L0 
  2930: 80208d2c     0 NOTYPE  LOCAL  DEFAULT  235 $x
  2931: 80208d2c     0 NOTYPE  LOCAL  DEFAULT  235 .L0 
  2932: 80208d5c     0 NOTYPE  LOCAL  DEFAULT  235 .L0 
  2933: 80208d5c     0 NOTYPE  LOCAL  DEFAULT  236 .L0 
  2934: 80208d5c     0 NOTYPE  LOCAL  DEFAULT  236 .L0 
  2935: 80208d5c     0 NOTYPE  LOCAL  DEFAULT  236 $x
  2936: 80208d5c     0 NOTYPE  LOCAL  DEFAULT  236 .L0 
  2937: 80208d7c     0 NOTYPE  LOCAL  DEFAULT  236 .L0 
  2938: 80208d7c     0 NOTYPE  LOCAL  DEFAULT  237 .L0 
  2939: 80208d7c     0 NOTYPE  LOCAL  DEFAULT  237 .L0 
  2940: 80208d7c     0 NOTYPE  LOCAL  DEFAULT  237 $x
  2941: 80208d7c     0 NOTYPE  LOCAL  DEFAULT  237 .L0 
  2942: 80208dac     0 NOTYPE  LOCAL  DEFAULT  237 .L0 
  2943: 80208dac     0 NOTYPE  LOCAL  DEFAULT  238 .L0 
  2944: 80208dac     0 NOTYPE  LOCAL  DEFAULT  238 .L0 
  2945: 80208dac     0 NOTYPE  LOCAL  DEFAULT  238 $x
  2946: 80208dac     0 NOTYPE  LOCAL  DEFAULT  238 .L0 
  2947: 80208dd0     0 NOTYPE  LOCAL  DEFAULT  238 .L0 
  2948: 80208dd0     0 NOTYPE  LOCAL  DEFAULT  239 .L0 
  2949: 80208dd0     0 NOTYPE  LOCAL  DEFAULT  239 .L0 
  2950: 80208dd0     0 NOTYPE  LOCAL  DEFAULT  239 $x
  2951: 80208dd0     0 NOTYPE  LOCAL  DEFAULT  239 .L0 
  2952: 80208de0     0 NOTYPE  LOCAL  DEFAULT  239 .L0 
  2953: 8020a250   100 FUNC    LOCAL  DEFAULT  267 _RNvNvMs1_NtNtCsakCY22H5bhg_4core3ptr8non_nullINtB7_7NonNullpE13new_unchecked18precondition_checkCsevzKAMQQtOE_5alloc
  2954: 80208de0     0 NOTYPE  LOCAL  DEFAULT  240 .L0 
  2955: 80208de0     0 NOTYPE  LOCAL  DEFAULT  240 .L0 
  2956: 80208de0     0 NOTYPE  LOCAL  DEFAULT  240 $x
  2957: 80208de0     0 NOTYPE  LOCAL  DEFAULT  240 .L0 
  2958: 80208e34     0 NOTYPE  LOCAL  DEFAULT  240 .L0 
  2959: 80208e34     0 NOTYPE  LOCAL  DEFAULT  241 .L0 
  2960: 80208e34     0 NOTYPE  LOCAL  DEFAULT  241 .L0 
  2961: 80208e34     0 NOTYPE  LOCAL  DEFAULT  241 $x
  2962: 80208e34     0 NOTYPE  LOCAL  DEFAULT  241 .L0 
  2963: 80208e7c     0 NOTYPE  LOCAL  DEFAULT  241 .L0 
  2964: 80208e7c     0 NOTYPE  LOCAL  DEFAULT  242 .L0 
  2965: 80208e7c     0 NOTYPE  LOCAL  DEFAULT  242 .L0 
  2966: 80208e7c     0 NOTYPE  LOCAL  DEFAULT  242 $x
  2967: 80208e7c     0 NOTYPE  LOCAL  DEFAULT  242 .L0 
  2968: 8022047c    16 OBJECT  LOCAL  DEFAULT  892 .Lanon.576af42f0b505f0d8159281c7e393a50.23
  2969: 80208ed4     0 NOTYPE  LOCAL  DEFAULT  242 .L0 
  2970: 80208ed4     0 NOTYPE  LOCAL  DEFAULT  243 .L0 
  2971: 80208ed4     0 NOTYPE  LOCAL  DEFAULT  243 .L0 
  2972: 80208ed4     0 NOTYPE  LOCAL  DEFAULT  243 $x
  2973: 80208ed4     0 NOTYPE  LOCAL  DEFAULT  243 .L0 
  2974: 80208efc     0 NOTYPE  LOCAL  DEFAULT  243 .L0 
  2975: 80208f48     0 NOTYPE  LOCAL  DEFAULT  243 .L0 
  2976: 80208f48     0 NOTYPE  LOCAL  DEFAULT  244 .L0 
  2977: 80208f48     0 NOTYPE  LOCAL  DEFAULT  244 .L0 
  2978: 80208f48     0 NOTYPE  LOCAL  DEFAULT  244 $x
  2979: 80208f48     0 NOTYPE  LOCAL  DEFAULT  244 .L0 
  2980: 80208f9c     0 NOTYPE  LOCAL  DEFAULT  244 .L0 
  2981: 80208fb0     0 NOTYPE  LOCAL  DEFAULT  244 .L0 
  2982: 80208fb0     0 NOTYPE  LOCAL  DEFAULT  245 .L0 
  2983: 80208fb0     0 NOTYPE  LOCAL  DEFAULT  245 .L0 
  2984: 80208fb0     0 NOTYPE  LOCAL  DEFAULT  245 $x
  2985: 80208fb0     0 NOTYPE  LOCAL  DEFAULT  245 .L0 
  2986: 80209044     0 NOTYPE  LOCAL  DEFAULT  245 .L0 
  2987: 8022048c    16 OBJECT  LOCAL  DEFAULT  892 .Lanon.576af42f0b505f0d8159281c7e393a50.29
  2988: 80209088     0 NOTYPE  LOCAL  DEFAULT  245 .L0 
  2989: 8022049c    16 OBJECT  LOCAL  DEFAULT  892 .Lanon.576af42f0b505f0d8159281c7e393a50.30
  2990: 802090c0     0 NOTYPE  LOCAL  DEFAULT  245 .L0 
  2991: 802204ac    16 OBJECT  LOCAL  DEFAULT  892 .Lanon.576af42f0b505f0d8159281c7e393a50.31
  2992: 80209118     0 NOTYPE  LOCAL  DEFAULT  245 .L0 
  2993: 80209118     0 NOTYPE  LOCAL  DEFAULT  246 .L0 
  2994: 80209118     0 NOTYPE  LOCAL  DEFAULT  246 .L0 
  2995: 80209118     0 NOTYPE  LOCAL  DEFAULT  246 $x
  2996: 80209118     0 NOTYPE  LOCAL  DEFAULT  246 .L0 
  2997: 8020918c     0 NOTYPE  LOCAL  DEFAULT  246 .L0 
  2998: 8020918c     0 NOTYPE  LOCAL  DEFAULT  247 .L0 
  2999: 8020918c     0 NOTYPE  LOCAL  DEFAULT  247 .L0 
  3000: 8020918c     0 NOTYPE  LOCAL  DEFAULT  247 $x
  3001: 8020918c     0 NOTYPE  LOCAL  DEFAULT  247 .L0 
  3002: 802091c8     0 NOTYPE  LOCAL  DEFAULT  247 .L0 
  3003: 802091c8     0 NOTYPE  LOCAL  DEFAULT  248 .L0 
  3004: 802091c8     0 NOTYPE  LOCAL  DEFAULT  248 .L0 
  3005: 802091c8     0 NOTYPE  LOCAL  DEFAULT  248 $x
  3006: 802091c8     0 NOTYPE  LOCAL  DEFAULT  248 .L0 
  3007: 80209234     0 NOTYPE  LOCAL  DEFAULT  248 .L0 
  3008: 80209234     0 NOTYPE  LOCAL  DEFAULT  249 .L0 
  3009: 80209234     0 NOTYPE  LOCAL  DEFAULT  249 .L0 
  3010: 80209234     0 NOTYPE  LOCAL  DEFAULT  249 $x
  3011: 80209234     0 NOTYPE  LOCAL  DEFAULT  249 .L0 
  3012: 80209284     0 NOTYPE  LOCAL  DEFAULT  249 .L0 
  3013: 80209284     0 NOTYPE  LOCAL  DEFAULT  250 .L0 
  3014: 80209284     0 NOTYPE  LOCAL  DEFAULT  250 .L0 
  3015: 80209284     0 NOTYPE  LOCAL  DEFAULT  250 $x
  3016: 80209284     0 NOTYPE  LOCAL  DEFAULT  250 .L0 
  3017: 80209294     0 NOTYPE  LOCAL  DEFAULT  250 .L0 
  3018: 80209718   128 FUNC    LOCAL  DEFAULT  253 _RNvMs4_NtCsakCY22H5bhg_4core3fmtNtB5_9Arguments6as_strCsevzKAMQQtOE_5alloc
  3019: 802092dc     0 NOTYPE  LOCAL  DEFAULT  250 .L0 
  3020: 802092e0     0 NOTYPE  LOCAL  DEFAULT  250 .L0 
  3021: 802092e8     0 NOTYPE  LOCAL  DEFAULT  250 .L0 
  3022: 802092ec     0 NOTYPE  LOCAL  DEFAULT  250 .L0 
  3023: 802092fc     0 NOTYPE  LOCAL  DEFAULT  250 .L0 
  3024: 8020931c     0 NOTYPE  LOCAL  DEFAULT  250 .L0 
  3025: 80209330     0 NOTYPE  LOCAL  DEFAULT  250 .L0 
  3026: 80209350     0 NOTYPE  LOCAL  DEFAULT  250 .L0 
  3027: 80209364     0 NOTYPE  LOCAL  DEFAULT  250 .L0 
  3028: 802093a8     0 NOTYPE  LOCAL  DEFAULT  250 .L0 
  3029: 802204bc    16 OBJECT  LOCAL  DEFAULT  892 .Lanon.576af42f0b505f0d8159281c7e393a50.40
  3030: 80209418     0 NOTYPE  LOCAL  DEFAULT  250 .L0 
  3031: 80209428     0 NOTYPE  LOCAL  DEFAULT  250 .L0 
  3032: 8020943c     0 NOTYPE  LOCAL  DEFAULT  250 .L0 
  3033: 802204cc    16 OBJECT  LOCAL  DEFAULT  892 .Lanon.576af42f0b505f0d8159281c7e393a50.41
  3034: 802204dc    16 OBJECT  LOCAL  DEFAULT  892 .Lanon.576af42f0b505f0d8159281c7e393a50.42
  3035: 802204ec    16 OBJECT  LOCAL  DEFAULT  892 .Lanon.576af42f0b505f0d8159281c7e393a50.43
  3036: 802204fc    16 OBJECT  LOCAL  DEFAULT  892 .Lanon.576af42f0b505f0d8159281c7e393a50.44
  3037: 80209574     0 NOTYPE  LOCAL  DEFAULT  250 .L0 
  3038: 80209584     0 NOTYPE  LOCAL  DEFAULT  250 .L0 
  3039: 802095a8     0 NOTYPE  LOCAL  DEFAULT  250 .L0 
  3040: 8022050c    16 OBJECT  LOCAL  DEFAULT  892 .Lanon.576af42f0b505f0d8159281c7e393a50.45
  3041: 802095ec     0 NOTYPE  LOCAL  DEFAULT  250 .L0 
  3042: 802095f4     0 NOTYPE  LOCAL  DEFAULT  250 .L0 
  3043: 802095f8     0 NOTYPE  LOCAL  DEFAULT  250 .L0 
  3044: 8022051c    16 OBJECT  LOCAL  DEFAULT  892 .Lanon.576af42f0b505f0d8159281c7e393a50.46
  3045: 80209608     0 NOTYPE  LOCAL  DEFAULT  250 .L0 
  3046: 80209628     0 NOTYPE  LOCAL  DEFAULT  250 .L0 
  3047: 8022052c    16 OBJECT  LOCAL  DEFAULT  892 .Lanon.576af42f0b505f0d8159281c7e393a50.47
  3048: 80209644     0 NOTYPE  LOCAL  DEFAULT  250 .L0 
  3049: 80209654     0 NOTYPE  LOCAL  DEFAULT  250 .L0 
  3050: 8020967c     0 NOTYPE  LOCAL  DEFAULT  250 .L0 
  3051: 8020967c     0 NOTYPE  LOCAL  DEFAULT  250 .L0 
  3052: 8020967c     0 NOTYPE  LOCAL  DEFAULT  251 .L0 
  3053: 8020967c     0 NOTYPE  LOCAL  DEFAULT  251 .L0 
  3054: 8020967c     0 NOTYPE  LOCAL  DEFAULT  251 $x
  3055: 8020967c     0 NOTYPE  LOCAL  DEFAULT  251 .L0 
  3056: 802096a4     0 NOTYPE  LOCAL  DEFAULT  251 .L0 
  3057: 802096a4   116 FUNC    LOCAL  DEFAULT  252 _RNvMs4_NtCsakCY22H5bhg_4core3fmtNtB5_9Arguments23as_statically_known_strCsevzKAMQQtOE_5alloc
  3058: 802096a4     0 NOTYPE  LOCAL  DEFAULT  252 .L0 
  3059: 802096a4     0 NOTYPE  LOCAL  DEFAULT  252 .L0 
  3060: 802096a4     0 NOTYPE  LOCAL  DEFAULT  252 $x
  3061: 802096a4     0 NOTYPE  LOCAL  DEFAULT  252 .L0 
  3062: 802096c4     0 NOTYPE  LOCAL  DEFAULT  252 .L0 
  3063: 80209718     0 NOTYPE  LOCAL  DEFAULT  252 .L0 
  3064: 80209718     0 NOTYPE  LOCAL  DEFAULT  253 .L0 
  3065: 80209718     0 NOTYPE  LOCAL  DEFAULT  253 .L0 
  3066: 80209718     0 NOTYPE  LOCAL  DEFAULT  253 $x
  3067: 80209718     0 NOTYPE  LOCAL  DEFAULT  253 .L0 
  3068: 80209734     0 NOTYPE  LOCAL  DEFAULT  253 .L0 
  3069: 8022053c    16 OBJECT  LOCAL  DEFAULT  892 .Lanon.576af42f0b505f0d8159281c7e393a50.48
  3070: 80209798     0 NOTYPE  LOCAL  DEFAULT  253 .L0 
  3071: 80209798     0 NOTYPE  LOCAL  DEFAULT  254 .L0 
  3072: 80209798     0 NOTYPE  LOCAL  DEFAULT  254 .L0 
  3073: 80209798     0 NOTYPE  LOCAL  DEFAULT  254 $x
  3074: 80209798     0 NOTYPE  LOCAL  DEFAULT  254 .L0 
  3075: 802097d8     0 NOTYPE  LOCAL  DEFAULT  254 .L0 
  3076: 802097d8     0 NOTYPE  LOCAL  DEFAULT  255 .L0 
  3077: 802097d8     0 NOTYPE  LOCAL  DEFAULT  255 .L0 
  3078: 802097d8     0 NOTYPE  LOCAL  DEFAULT  255 $x
  3079: 802097d8     0 NOTYPE  LOCAL  DEFAULT  255 .L0 
  3080: 8020a0c0   268 FUNC    LOCAL  DEFAULT  264 _RNvNtCsevzKAMQQtOE_5alloc7raw_vec12layout_arrayB3_
  3081: 80209868     0 NOTYPE  LOCAL  DEFAULT  255 .L0 
  3082: 802205b8    16 OBJECT  LOCAL  DEFAULT  892 .Lanon.576af42f0b505f0d8159281c7e393a50.53
  3083: 80209898     0 NOTYPE  LOCAL  DEFAULT  255 .L0 
  3084: 802098a4     0 NOTYPE  LOCAL  DEFAULT  255 .L0 
  3085: 80209900     0 NOTYPE  LOCAL  DEFAULT  255 .L0 
  3086: 80209924     0 NOTYPE  LOCAL  DEFAULT  255 .L0 
  3087: 8022054c    58 OBJECT  LOCAL  DEFAULT  892 .Lanon.576af42f0b505f0d8159281c7e393a50.49
  3088: 80220588    16 OBJECT  LOCAL  DEFAULT  892 .Lanon.576af42f0b505f0d8159281c7e393a50.50
  3089: 80209974     0 NOTYPE  LOCAL  DEFAULT  255 .L0 
  3090: 80220598    16 OBJECT  LOCAL  DEFAULT  892 .Lanon.576af42f0b505f0d8159281c7e393a50.51
  3091: 802099d0     0 NOTYPE  LOCAL  DEFAULT  255 .L0 
  3092: 802205a8    16 OBJECT  LOCAL  DEFAULT  892 .Lanon.576af42f0b505f0d8159281c7e393a50.52
  3093: 80209a28     0 NOTYPE  LOCAL  DEFAULT  255 .L0 
  3094: 80209a48     0 NOTYPE  LOCAL  DEFAULT  255 .L0 
  3095: 80209a48     0 NOTYPE  LOCAL  DEFAULT  256 .L0 
  3096: 80209a48     0 NOTYPE  LOCAL  DEFAULT  256 .L0 
  3097: 80209a48     0 NOTYPE  LOCAL  DEFAULT  256 $x
  3098: 80209a48     0 NOTYPE  LOCAL  DEFAULT  256 .L0 
  3099: 802205c8    16 OBJECT  LOCAL  DEFAULT  892 .Lanon.576af42f0b505f0d8159281c7e393a50.55
  3100: 80220608    16 OBJECT  LOCAL  DEFAULT  892 .Lanon.576af42f0b505f0d8159281c7e393a50.59
  3101: 80209b2c     0 NOTYPE  LOCAL  DEFAULT  256 .L0 
  3102: 802205f8    16 OBJECT  LOCAL  DEFAULT  892 .Lanon.576af42f0b505f0d8159281c7e393a50.58
  3103: 80209b58     0 NOTYPE  LOCAL  DEFAULT  256 .L0 
  3104: 80209b94     0 NOTYPE  LOCAL  DEFAULT  256 .L0 
  3105: 80209bc4     0 NOTYPE  LOCAL  DEFAULT  256 .L0 
  3106: 80209bfc     0 NOTYPE  LOCAL  DEFAULT  256 .L0 
  3107: 802205d8    16 OBJECT  LOCAL  DEFAULT  892 .Lanon.576af42f0b505f0d8159281c7e393a50.56
  3108: 80209c0c     0 NOTYPE  LOCAL  DEFAULT  256 .L0 
  3109: 80209c1c     0 NOTYPE  LOCAL  DEFAULT  256 .L0 
  3110: 802205e8    16 OBJECT  LOCAL  DEFAULT  892 .Lanon.576af42f0b505f0d8159281c7e393a50.57
  3111: 80209c50     0 NOTYPE  LOCAL  DEFAULT  256 .L0 
  3112: 80209c64     0 NOTYPE  LOCAL  DEFAULT  256 .L0 
  3113: 80209c7c     0 NOTYPE  LOCAL  DEFAULT  256 .L0 
  3114: 80209c7c     0 NOTYPE  LOCAL  DEFAULT  257 .L0 
  3115: 80209c7c     0 NOTYPE  LOCAL  DEFAULT  257 .L0 
  3116: 80209c7c     0 NOTYPE  LOCAL  DEFAULT  257 $x
  3117: 80209c7c     0 NOTYPE  LOCAL  DEFAULT  257 .L0 
  3118: 80220628    16 OBJECT  LOCAL  DEFAULT  892 .Lanon.576af42f0b505f0d8159281c7e393a50.61
  3119: 80209d20     0 NOTYPE  LOCAL  DEFAULT  257 .L0 
  3120: 80209d2c     0 NOTYPE  LOCAL  DEFAULT  257 .L0 
  3121: 80209dcc     0 NOTYPE  LOCAL  DEFAULT  257 .L0 
  3122: 80220618    16 OBJECT  LOCAL  DEFAULT  892 .Lanon.576af42f0b505f0d8159281c7e393a50.60
  3123: 80209e0c     0 NOTYPE  LOCAL  DEFAULT  257 .L0 
  3124: 80209e10     0 NOTYPE  LOCAL  DEFAULT  257 .L0 
  3125: 80209e20     0 NOTYPE  LOCAL  DEFAULT  257 .L0 
  3126: 80209e64     0 NOTYPE  LOCAL  DEFAULT  257 .L0 
  3127: 80209e88     0 NOTYPE  LOCAL  DEFAULT  257 .L0 
  3128: 80209e88     0 NOTYPE  LOCAL  DEFAULT  258 .L0 
  3129: 80209e88     0 NOTYPE  LOCAL  DEFAULT  258 .L0 
  3130: 80209e88     0 NOTYPE  LOCAL  DEFAULT  258 $x
  3131: 80209e88     0 NOTYPE  LOCAL  DEFAULT  258 .L0 
  3132: 80209ee4     0 NOTYPE  LOCAL  DEFAULT  258 .L0 
  3133: 80209f10     0 NOTYPE  LOCAL  DEFAULT  258 .L0 
  3134: 80209f24     0 NOTYPE  LOCAL  DEFAULT  258 .L0 
  3135: 80220638    16 OBJECT  LOCAL  DEFAULT  892 .Lanon.576af42f0b505f0d8159281c7e393a50.62
  3136: 80209f64     0 NOTYPE  LOCAL  DEFAULT  258 .L0 
  3137: 80209f64     0 NOTYPE  LOCAL  DEFAULT  259 .L0 
  3138: 80209f64     0 NOTYPE  LOCAL  DEFAULT  259 .L0 
  3139: 80209f64     0 NOTYPE  LOCAL  DEFAULT  259 $x
  3140: 80209f64     0 NOTYPE  LOCAL  DEFAULT  259 .L0 
  3141: 80209f84     0 NOTYPE  LOCAL  DEFAULT  259 .L0 
  3142: 80209fec     0 NOTYPE  LOCAL  DEFAULT  259 .L0 
  3143: 80209fec     0 NOTYPE  LOCAL  DEFAULT  260 .L0 
  3144: 80209fec     0 NOTYPE  LOCAL  DEFAULT  260 .L0 
  3145: 80209fec     0 NOTYPE  LOCAL  DEFAULT  260 $x
  3146: 80209fec     0 NOTYPE  LOCAL  DEFAULT  260 .L0 
  3147: 8020a014     0 NOTYPE  LOCAL  DEFAULT  260 .L0 
  3148: 8020a014     0 NOTYPE  LOCAL  DEFAULT  261 .L0 
  3149: 8020a014     0 NOTYPE  LOCAL  DEFAULT  261 .L0 
  3150: 8020a014     0 NOTYPE  LOCAL  DEFAULT  261 $x
  3151: 8020a014     0 NOTYPE  LOCAL  DEFAULT  261 .L0 
  3152: 8020a038     0 NOTYPE  LOCAL  DEFAULT  261 .L0 
  3153: 8020a038     0 NOTYPE  LOCAL  DEFAULT  262 .L0 
  3154: 8020a038     0 NOTYPE  LOCAL  DEFAULT  262 .L0 
  3155: 8020a038     0 NOTYPE  LOCAL  DEFAULT  262 $x
  3156: 8020a038     0 NOTYPE  LOCAL  DEFAULT  262 .L0 
  3157: 80220648    16 OBJECT  LOCAL  DEFAULT  892 .Lanon.576af42f0b505f0d8159281c7e393a50.63
  3158: 8020a070     0 NOTYPE  LOCAL  DEFAULT  262 .L0 
  3159: 8020a070     0 NOTYPE  LOCAL  DEFAULT  263 .L0 
  3160: 8020a070     0 NOTYPE  LOCAL  DEFAULT  263 .L0 
  3161: 8020a070     0 NOTYPE  LOCAL  DEFAULT  263 $x
  3162: 8020a070     0 NOTYPE  LOCAL  DEFAULT  263 .L0 
  3163: 8020a0b0     0 NOTYPE  LOCAL  DEFAULT  263 .L0 
  3164: 8020a0c0     0 NOTYPE  LOCAL  DEFAULT  263 .L0 
  3165: 8020a0c0     0 NOTYPE  LOCAL  DEFAULT  264 .L0 
  3166: 8020a0c0     0 NOTYPE  LOCAL  DEFAULT  264 .L0 
  3167: 8020a0c0     0 NOTYPE  LOCAL  DEFAULT  264 $x
  3168: 8020a0c0     0 NOTYPE  LOCAL  DEFAULT  264 .L0 
  3169: 80220658    73 OBJECT  LOCAL  DEFAULT  892 .Lanon.576af42f0b505f0d8159281c7e393a50.67
  3170: 802206a4    16 OBJECT  LOCAL  DEFAULT  892 .Lanon.576af42f0b505f0d8159281c7e393a50.68
  3171: 802206b4    16 OBJECT  LOCAL  DEFAULT  892 .Lanon.576af42f0b505f0d8159281c7e393a50.69
  3172: 8020a1ac     0 NOTYPE  LOCAL  DEFAULT  264 .L0 
  3173: 8020a1cc     0 NOTYPE  LOCAL  DEFAULT  264 .L0 
  3174: 8020a1cc     0 NOTYPE  LOCAL  DEFAULT  265 .L0 
  3175: 8020a1cc     0 NOTYPE  LOCAL  DEFAULT  265 .L0 
  3176: 8020a1cc     0 NOTYPE  LOCAL  DEFAULT  265 $x
  3177: 8020a1cc     0 NOTYPE  LOCAL  DEFAULT  265 .L0 
  3178: 8020a224     0 NOTYPE  LOCAL  DEFAULT  265 .L0 
  3179: 8020a224     0 NOTYPE  LOCAL  DEFAULT  266 .L0 
  3180: 8020a224     0 NOTYPE  LOCAL  DEFAULT  266 .L0 
  3181: 8020a224     0 NOTYPE  LOCAL  DEFAULT  266 $x
  3182: 8020a224     0 NOTYPE  LOCAL  DEFAULT  266 .L0 
  3183: 802206c4    17 OBJECT  LOCAL  DEFAULT  892 .Lanon.576af42f0b505f0d8159281c7e393a50.70
  3184: 802206d8    16 OBJECT  LOCAL  DEFAULT  892 .Lanon.576af42f0b505f0d8159281c7e393a50.71
  3185: 8020a250     0 NOTYPE  LOCAL  DEFAULT  266 .L0 
  3186: 8020a250     0 NOTYPE  LOCAL  DEFAULT  267 .L0 
  3187: 8020a250     0 NOTYPE  LOCAL  DEFAULT  267 .L0 
  3188: 8020a250     0 NOTYPE  LOCAL  DEFAULT  267 $x
  3189: 8020a250     0 NOTYPE  LOCAL  DEFAULT  267 .L0 
  3190: 8020a260     0 NOTYPE  LOCAL  DEFAULT  267 .L0 
  3191: 802206e8   210 OBJECT  LOCAL  DEFAULT  892 .Lanon.576af42f0b505f0d8159281c7e393a50.72
  3192: 8020a274     0 NOTYPE  LOCAL  DEFAULT  267 .L0 
  3193: 8020a290     0 NOTYPE  LOCAL  DEFAULT  267 .L0 
  3194: 8020a2b4     0 NOTYPE  LOCAL  DEFAULT  267 .L0 
  3195: 8020a2b4     0 NOTYPE  LOCAL  DEFAULT  267 .L0 
  3196: 8020a2b4     0 NOTYPE  LOCAL  DEFAULT  268 .L0 
  3197: 8020a2b4     0 NOTYPE  LOCAL  DEFAULT  268 .L0 
  3198: 8020a2b4     0 NOTYPE  LOCAL  DEFAULT  268 $x
  3199: 8020a2b4     0 NOTYPE  LOCAL  DEFAULT  268 .L0 
  3200: 8020a2c4     0 NOTYPE  LOCAL  DEFAULT  268 .L0 
  3201: 802207ba   221 OBJECT  LOCAL  DEFAULT  892 .Lanon.576af42f0b505f0d8159281c7e393a50.73
  3202: 8020a2d8     0 NOTYPE  LOCAL  DEFAULT  268 .L0 
  3203: 8020a2e0     0 NOTYPE  LOCAL  DEFAULT  268 .L0 
  3204: 8020a304     0 NOTYPE  LOCAL  DEFAULT  268 .L0 
  3205: 8020a310     0 NOTYPE  LOCAL  DEFAULT  268 .L0 
  3206: 8020a310     0 NOTYPE  LOCAL  DEFAULT  269 .L0 
  3207: 8020a310     0 NOTYPE  LOCAL  DEFAULT  269 .L0 
  3208: 8020a310     0 NOTYPE  LOCAL  DEFAULT  269 $x
  3209: 8020a310     0 NOTYPE  LOCAL  DEFAULT  269 .L0 
  3210: 8020a338     0 NOTYPE  LOCAL  DEFAULT  269 .L0 
  3211: 8020a338     0 NOTYPE  LOCAL  DEFAULT  270 .L0 
  3212: 8020a338     0 NOTYPE  LOCAL  DEFAULT  270 .L0 
  3213: 8020a338     0 NOTYPE  LOCAL  DEFAULT  270 $x
  3214: 8020a338     0 NOTYPE  LOCAL  DEFAULT  270 .L0 
  3215: 80220897     5 OBJECT  LOCAL  DEFAULT  892 .Lanon.576af42f0b505f0d8159281c7e393a50.93
  3216: 8020a374     0 NOTYPE  LOCAL  DEFAULT  270 .L0 
  3217: 8020a374    40 FUNC    LOCAL  DEFAULT  271 _RNvXsZ_NtCsevzKAMQQtOE_5alloc6stringNtB5_6StringNtNtCsakCY22H5bhg_4core3fmt5Write10write_charB7_
  3218: 8020a374     0 NOTYPE  LOCAL  DEFAULT  271 .L0 
  3219: 8020a374     0 NOTYPE  LOCAL  DEFAULT  271 .L0 
  3220: 8020a374     0 NOTYPE  LOCAL  DEFAULT  271 $x
  3221: 8020a374     0 NOTYPE  LOCAL  DEFAULT  271 .L0 
  3222: 8020a39c     0 NOTYPE  LOCAL  DEFAULT  271 .L0 
  3223: 8020a39c    44 FUNC    LOCAL  DEFAULT  272 _RNvXsZ_NtCsevzKAMQQtOE_5alloc6stringNtB5_6StringNtNtCsakCY22H5bhg_4core3fmt5Write9write_strB7_
  3224: 8020a39c     0 NOTYPE  LOCAL  DEFAULT  272 .L0 
  3225: 8020a39c     0 NOTYPE  LOCAL  DEFAULT  272 .L0 
  3226: 8020a39c     0 NOTYPE  LOCAL  DEFAULT  272 $x
  3227: 8020a39c     0 NOTYPE  LOCAL  DEFAULT  272 .L0 
  3228: 8020a3c8     0 NOTYPE  LOCAL  DEFAULT  272 .L0 
  3229: 8020a3c8     0 NOTYPE  LOCAL  DEFAULT  273 .L0 
  3230: 8020a3c8     0 NOTYPE  LOCAL  DEFAULT  273 .L0 
  3231: 8020a3c8     0 NOTYPE  LOCAL  DEFAULT  273 $x
  3232: 8020a3c8     0 NOTYPE  LOCAL  DEFAULT  273 .L0 
  3233: 8020a3e4     0 NOTYPE  LOCAL  DEFAULT  273 .L0 
  3234: 8022089c    24 OBJECT  LOCAL  DEFAULT  892 .Lanon.576af42f0b505f0d8159281c7e393a50.94
  3235: 8020a458     0 NOTYPE  LOCAL  DEFAULT  273 .L0 
  3236: 8020a458     0 NOTYPE  LOCAL  DEFAULT  274 .L0 
  3237: 8020a458     0 NOTYPE  LOCAL  DEFAULT  274 .L0 
  3238: 8020a458     0 NOTYPE  LOCAL  DEFAULT  274 $x
  3239: 8020a458     0 NOTYPE  LOCAL  DEFAULT  274 .L0 
  3240: 8020a478     0 NOTYPE  LOCAL  DEFAULT  274 .L0 
  3241: 8020a478     0 NOTYPE  LOCAL  DEFAULT  275 .L0 
  3242: 8020a478     0 NOTYPE  LOCAL  DEFAULT  275 .L0 
  3243: 8020a478     0 NOTYPE  LOCAL  DEFAULT  275 $x
  3244: 8020a478     0 NOTYPE  LOCAL  DEFAULT  275 .L0 
  3245: 8020a4a0     0 NOTYPE  LOCAL  DEFAULT  275 .L0 
  3246: 8022045c     0 NOTYPE  LOCAL  DEFAULT  892 $d
  3247: 8022046c     0 NOTYPE  LOCAL  DEFAULT  892 $d
  3248: 8022047c     0 NOTYPE  LOCAL  DEFAULT  892 $d
  3249: 8022048c     0 NOTYPE  LOCAL  DEFAULT  892 $d
  3250: 8022049c     0 NOTYPE  LOCAL  DEFAULT  892 $d
  3251: 802204ac     0 NOTYPE  LOCAL  DEFAULT  892 $d
  3252: 802204bc     0 NOTYPE  LOCAL  DEFAULT  892 $d
  3253: 802204cc     0 NOTYPE  LOCAL  DEFAULT  892 $d
  3254: 802204dc     0 NOTYPE  LOCAL  DEFAULT  892 $d
  3255: 802204ec     0 NOTYPE  LOCAL  DEFAULT  892 $d
  3256: 802204fc     0 NOTYPE  LOCAL  DEFAULT  892 $d
  3257: 8022050c     0 NOTYPE  LOCAL  DEFAULT  892 $d
  3258: 8022051c     0 NOTYPE  LOCAL  DEFAULT  892 $d
  3259: 8022052c     0 NOTYPE  LOCAL  DEFAULT  892 $d
  3260: 8022053c     0 NOTYPE  LOCAL  DEFAULT  892 $d
  3261: 8022054c     0 NOTYPE  LOCAL  DEFAULT  892 $d
  3262: 80220588     0 NOTYPE  LOCAL  DEFAULT  892 $d
  3263: 80220598     0 NOTYPE  LOCAL  DEFAULT  892 $d
  3264: 802205a8     0 NOTYPE  LOCAL  DEFAULT  892 $d
  3265: 802205b8     0 NOTYPE  LOCAL  DEFAULT  892 $d
  3266: 8021f3a4     0 NOTYPE  LOCAL  DEFAULT  892 $d
  3267: 802205c8     0 NOTYPE  LOCAL  DEFAULT  892 $d
  3268: 802205d8     0 NOTYPE  LOCAL  DEFAULT  892 $d
  3269: 802205e8     0 NOTYPE  LOCAL  DEFAULT  892 $d
  3270: 802205f8     0 NOTYPE  LOCAL  DEFAULT  892 $d
  3271: 80220608     0 NOTYPE  LOCAL  DEFAULT  892 $d
  3272: 80220618     0 NOTYPE  LOCAL  DEFAULT  892 $d
  3273: 80220628     0 NOTYPE  LOCAL  DEFAULT  892 $d
  3274: 80220638     0 NOTYPE  LOCAL  DEFAULT  892 $d
  3275: 80220648     0 NOTYPE  LOCAL  DEFAULT  892 $d
  3276: 80220658     0 NOTYPE  LOCAL  DEFAULT  892 $d
  3277: 802206a4     0 NOTYPE  LOCAL  DEFAULT  892 $d
  3278: 802206b4     0 NOTYPE  LOCAL  DEFAULT  892 $d
  3279: 802206c4     0 NOTYPE  LOCAL  DEFAULT  892 $d
  3280: 802206d8     0 NOTYPE  LOCAL  DEFAULT  892 $d
  3281: 802206e8     0 NOTYPE  LOCAL  DEFAULT  892 $d
  3282: 802207ba     0 NOTYPE  LOCAL  DEFAULT  892 $d
  3283: 80220897     0 NOTYPE  LOCAL  DEFAULT  892 $d
  3284: 8022089c     0 NOTYPE  LOCAL  DEFAULT  892 $d
  3285: 000001f3     0 NOTYPE  LOCAL  DEFAULT  905 .L0 
  3286: 000001f3     0 NOTYPE  LOCAL  DEFAULT  905 $d
  3287: 0000021c     0 NOTYPE  LOCAL  DEFAULT  905 .L0 
  3288: 00000245     0 NOTYPE  LOCAL  DEFAULT  905 .L0 
  3289: 0000026e     0 NOTYPE  LOCAL  DEFAULT  905 .L0 
  3290: 00000297     0 NOTYPE  LOCAL  DEFAULT  905 .L0 
  3291: 000002c0     0 NOTYPE  LOCAL  DEFAULT  905 .L0 
  3292: 000002e9     0 NOTYPE  LOCAL  DEFAULT  905 .L0 
  3293: 00000312     0 NOTYPE  LOCAL  DEFAULT  905 .L0 
  3294: 0000033b     0 NOTYPE  LOCAL  DEFAULT  905 .L0 
  3295: 00000364     0 NOTYPE  LOCAL  DEFAULT  905 .L0 
  3296: 0000038d     0 NOTYPE  LOCAL  DEFAULT  905 .L0 
  3297: 000003b6     0 NOTYPE  LOCAL  DEFAULT  905 .L0 
  3298: 000003df     0 NOTYPE  LOCAL  DEFAULT  905 .L0 
  3299: 00000408     0 NOTYPE  LOCAL  DEFAULT  905 .L0 
  3300: 00000431     0 NOTYPE  LOCAL  DEFAULT  905 .L0 
  3301: 0000045a     0 NOTYPE  LOCAL  DEFAULT  905 .L0 
  3302: 00000483     0 NOTYPE  LOCAL  DEFAULT  905 .L0 
  3303: 000004ac     0 NOTYPE  LOCAL  DEFAULT  905 .L0 
  3304: 000004d5     0 NOTYPE  LOCAL  DEFAULT  905 .L0 
  3305: 000004fe     0 NOTYPE  LOCAL  DEFAULT  905 .L0 
  3306: 00000527     0 NOTYPE  LOCAL  DEFAULT  905 .L0 
  3307: 00000550     0 NOTYPE  LOCAL  DEFAULT  905 .L0 
  3308: 00000579     0 NOTYPE  LOCAL  DEFAULT  905 .L0 
  3309: 000005a2     0 NOTYPE  LOCAL  DEFAULT  905 .L0 
  3310: 000005cb     0 NOTYPE  LOCAL  DEFAULT  905 .L0 
  3311: 000005f4     0 NOTYPE  LOCAL  DEFAULT  905 .L0 
  3312: 0000061d     0 NOTYPE  LOCAL  DEFAULT  905 .L0 
  3313: 00000646     0 NOTYPE  LOCAL  DEFAULT  905 .L0 
  3314: 0000066f     0 NOTYPE  LOCAL  DEFAULT  905 .L0 
  3315: 00000698     0 NOTYPE  LOCAL  DEFAULT  905 .L0 
  3316: 000006c1     0 NOTYPE  LOCAL  DEFAULT  905 .L0 
  3317: 000006ea     0 NOTYPE  LOCAL  DEFAULT  905 .L0 
  3318: 00000713     0 NOTYPE  LOCAL  DEFAULT  905 .L0 
  3319: 0000073c     0 NOTYPE  LOCAL  DEFAULT  905 .L0 
  3320: 00000765     0 NOTYPE  LOCAL  DEFAULT  905 .L0 
  3321: 0000390f     0 NOTYPE  LOCAL  DEFAULT  896 $d
  3322: 00013bda     0 NOTYPE  LOCAL  DEFAULT  897 .L0 
  3323: 00013bda     0 NOTYPE  LOCAL  DEFAULT  897 $d
  3324: 00006104     0 NOTYPE  LOCAL  DEFAULT  904 .Lline_table_start0
  3325: 000016f0     0 NOTYPE  LOCAL  DEFAULT  899 .L0 
  3326: 000016c0     0 NOTYPE  LOCAL  DEFAULT  899 .L0 
  3327: 000016d8     0 NOTYPE  LOCAL  DEFAULT  899 .L0 
  3328: 00001528     0 NOTYPE  LOCAL  DEFAULT  899 .L0 
  3329: 00001570     0 NOTYPE  LOCAL  DEFAULT  899 .L0 
  3330: 00001588     0 NOTYPE  LOCAL  DEFAULT  899 .L0 
  3331: 000015a8     0 NOTYPE  LOCAL  DEFAULT  899 .L0 
  3332: 000015c0     0 NOTYPE  LOCAL  DEFAULT  899 .L0 
  3333: 000015e0     0 NOTYPE  LOCAL  DEFAULT  899 .L0 
  3334: 000015f8     0 NOTYPE  LOCAL  DEFAULT  899 .L0 
  3335: 00001618     0 NOTYPE  LOCAL  DEFAULT  899 .L0 
  3336: 00001630     0 NOTYPE  LOCAL  DEFAULT  899 .L0 
  3337: 00001650     0 NOTYPE  LOCAL  DEFAULT  899 .L0 
  3338: 00001668     0 NOTYPE  LOCAL  DEFAULT  899 .L0 
  3339: 00001688     0 NOTYPE  LOCAL  DEFAULT  899 .L0 
  3340: 000016a0     0 NOTYPE  LOCAL  DEFAULT  899 .L0 
  3341: 00001558     0 NOTYPE  LOCAL  DEFAULT  899 .L0 
  3342: 00001100     0 NOTYPE  LOCAL  DEFAULT  899 .L0 
  3343: 00001120     0 NOTYPE  LOCAL  DEFAULT  899 .L0 
  3344: 00001138     0 NOTYPE  LOCAL  DEFAULT  899 .L0 
  3345: 00001158     0 NOTYPE  LOCAL  DEFAULT  899 .L0 
  3346: 00001540     0 NOTYPE  LOCAL  DEFAULT  899 .L0 
  3347: 00001170     0 NOTYPE  LOCAL  DEFAULT  899 .L0 
  3348: 00001190     0 NOTYPE  LOCAL  DEFAULT  899 .L0 
  3349: 000011b0     0 NOTYPE  LOCAL  DEFAULT  899 .L0 
  3350: 000011d0     0 NOTYPE  LOCAL  DEFAULT  899 .L0 
  3351: 000011e8     0 NOTYPE  LOCAL  DEFAULT  899 .L0 
  3352: 00001200     0 NOTYPE  LOCAL  DEFAULT  899 .L0 
  3353: 00001218     0 NOTYPE  LOCAL  DEFAULT  899 .L0 
  3354: 00001230     0 NOTYPE  LOCAL  DEFAULT  899 .L0 
  3355: 00001248     0 NOTYPE  LOCAL  DEFAULT  899 .L0 
  3356: 00001260     0 NOTYPE  LOCAL  DEFAULT  899 .L0 
  3357: 00001280     0 NOTYPE  LOCAL  DEFAULT  899 .L0 
  3358: 000012a0     0 NOTYPE  LOCAL  DEFAULT  899 .L0 
  3359: 000012c0     0 NOTYPE  LOCAL  DEFAULT  899 .L0 
  3360: 000012e0     0 NOTYPE  LOCAL  DEFAULT  899 .L0 
  3361: 000012f8     0 NOTYPE  LOCAL  DEFAULT  899 .L0 
  3362: 00001310     0 NOTYPE  LOCAL  DEFAULT  899 .L0 
  3363: 00001328     0 NOTYPE  LOCAL  DEFAULT  899 .L0 
  3364: 00001340     0 NOTYPE  LOCAL  DEFAULT  899 .L0 
  3365: 00001358     0 NOTYPE  LOCAL  DEFAULT  899 .L0 
  3366: 00001370     0 NOTYPE  LOCAL  DEFAULT  899 .L0 
  3367: 00001388     0 NOTYPE  LOCAL  DEFAULT  899 .L0 
  3368: 000013a0     0 NOTYPE  LOCAL  DEFAULT  899 .L0 
  3369: 000013b8     0 NOTYPE  LOCAL  DEFAULT  899 .L0 
  3370: 000013d0     0 NOTYPE  LOCAL  DEFAULT  899 .L0 
  3371: 000013e8     0 NOTYPE  LOCAL  DEFAULT  899 .L0 
  3372: 00001400     0 NOTYPE  LOCAL  DEFAULT  899 .L0 
  3373: 00001418     0 NOTYPE  LOCAL  DEFAULT  899 .L0 
  3374: 00001430     0 NOTYPE  LOCAL  DEFAULT  899 .L0 
  3375: 00001448     0 NOTYPE  LOCAL  DEFAULT  899 .L0 
  3376: 00001468     0 NOTYPE  LOCAL  DEFAULT  899 .L0 
  3377: 00001480     0 NOTYPE  LOCAL  DEFAULT  899 .L0 
  3378: 00001498     0 NOTYPE  LOCAL  DEFAULT  899 .L0 
  3379: 000014b0     0 NOTYPE  LOCAL  DEFAULT  899 .L0 
  3380: 000014c8     0 NOTYPE  LOCAL  DEFAULT  899 .L0 
  3381: 000014e0     0 NOTYPE  LOCAL  DEFAULT  899 .L0 
  3382: 000014f8     0 NOTYPE  LOCAL  DEFAULT  899 .L0 
  3383: 00001510     0 NOTYPE  LOCAL  DEFAULT  899 .L0 
  3384: 00000d08     0 NOTYPE  LOCAL  DEFAULT  898 $d
  3385: 00001100     0 NOTYPE  LOCAL  DEFAULT  899 $d
  3386: 000948bf     0 NOTYPE  LOCAL  DEFAULT  900 $d
  3387: 0000005e     0 NOTYPE  LOCAL  DEFAULT  901 $d
  3388: 00000000     0 NOTYPE  LOCAL  DEFAULT  ABS $d
  3389: 00001dcc     0 NOTYPE  LOCAL  DEFAULT  903 .L0 
  3390: 00001dcc     0 NOTYPE  LOCAL  DEFAULT  903 $d
  3391: 00006104     0 NOTYPE  LOCAL  DEFAULT  904 $d
  3392: 80208bec   284 FUNC    LOCAL  HIDDEN   233 _RNvMNtCsevzKAMQQtOE_5alloc6stringNtB2_6String4pushB4_
  3393: 80208b88    68 FUNC    LOCAL  HIDDEN   231 _RNvMNtCsevzKAMQQtOE_5alloc6stringNtB2_6String13with_capacityB4_
  3394: 80208d2c    48 FUNC    LOCAL  HIDDEN   235 _RNvMNtCsevzKAMQQtOE_5alloc6stringNtB2_6String8push_strB4_
  3395: 80208bcc    32 FUNC    LOCAL  HIDDEN   232 _RNvMNtCsevzKAMQQtOE_5alloc6stringNtB2_6String3lenB4_
  3396: 80209798    64 FUNC    LOCAL  HIDDEN   254 _RNvMs4_NtCsakCY22H5bhg_4core3fmtNtB5_9Arguments8from_strCsevzKAMQQtOE_5alloc
  3397: 8020a2b4    92 FUNC    LOCAL  HIDDEN   268 _RNvNvNtCsakCY22H5bhg_4core4hint16assert_unchecked18precondition_checkCsevzKAMQQtOE_5alloc
  3398: 80209284  1016 FUNC    LOCAL  HIDDEN   250 _RNvMs3_NtCsakCY22H5bhg_4core3fmtNtB5_9Arguments18estimated_capacityCsevzKAMQQtOE_5alloc
  3399: 8020a338    60 FUNC    LOCAL  HIDDEN   270 _RNvXsK_NtCsakCY22H5bhg_4core3fmtNtB5_5ErrorNtB5_5Debug3fmtCsevzKAMQQtOE_5alloc
  3400: 00000000     0 FILE    LOCAL  DEFAULT  ABS alloc.a8ffb13cea69265a-cgu.1
  3401: 8020a6b8    76 FUNC    LOCAL  DEFAULT  282 _RNvMNtNtCsakCY22H5bhg_4core5alloc6layoutNtB2_6Layout29from_size_alignment_uncheckedCsevzKAMQQtOE_5alloc
  3402: 8020a4a0     0 NOTYPE  LOCAL  DEFAULT  276 .L0 
  3403: 8020a4a0     0 NOTYPE  LOCAL  DEFAULT  276 .L0 
  3404: 8020a4a0     0 NOTYPE  LOCAL  DEFAULT  276 $x
  3405: 8020a4a0     0 NOTYPE  LOCAL  DEFAULT  276 .L0 
  3406: 8020a4cc     0 NOTYPE  LOCAL  DEFAULT  276 .L0 
  3407: 8020a4cc     0 NOTYPE  LOCAL  DEFAULT  277 .L0 
  3408: 8020a4cc     0 NOTYPE  LOCAL  DEFAULT  277 .L0 
  3409: 8020a4cc     0 NOTYPE  LOCAL  DEFAULT  277 $x
  3410: 8020a4cc     0 NOTYPE  LOCAL  DEFAULT  277 .L0 
  3411: 8020a704    84 FUNC    LOCAL  DEFAULT  283 _RNvMNtNtCsakCY22H5bhg_4core5alloc6layoutNtB2_6Layout35size_rounded_up_to_custom_alignmentCsevzKAMQQtOE_5alloc
  3412: 8020a4f8     0 NOTYPE  LOCAL  DEFAULT  277 .L0 
  3413: 802208b4    16 OBJECT  LOCAL  DEFAULT  892 .Lanon.d4c3476b54810fc1dca13517b73d2fbb.16
  3414: 8020a524     0 NOTYPE  LOCAL  DEFAULT  277 .L0 
  3415: 8020a524     0 NOTYPE  LOCAL  DEFAULT  278 .L0 
  3416: 8020a524     0 NOTYPE  LOCAL  DEFAULT  278 .L0 
  3417: 8020a524     0 NOTYPE  LOCAL  DEFAULT  278 $x
  3418: 8020a524     0 NOTYPE  LOCAL  DEFAULT  278 .L0 
  3419: 8020a538     0 NOTYPE  LOCAL  DEFAULT  278 .L0 
  3420: 8020a5a0    92 FUNC    LOCAL  DEFAULT  279 _RNvMNtNtCsakCY22H5bhg_4core5alloc6layoutNtB2_6Layout19from_size_alignmentCsevzKAMQQtOE_5alloc
  3421: 8020a5a0     0 NOTYPE  LOCAL  DEFAULT  278 .L0 
  3422: 8020a5a0     0 NOTYPE  LOCAL  DEFAULT  279 .L0 
  3423: 8020a5a0     0 NOTYPE  LOCAL  DEFAULT  279 .L0 
  3424: 8020a5a0     0 NOTYPE  LOCAL  DEFAULT  279 $x
  3425: 8020a5a0     0 NOTYPE  LOCAL  DEFAULT  279 .L0 
  3426: 8020a5fc     0 NOTYPE  LOCAL  DEFAULT  279 .L0 
  3427: 8020a5fc   112 FUNC    LOCAL  DEFAULT  280 _RNvMNtNtCsakCY22H5bhg_4core5alloc6layoutNtB2_6Layout19is_size_align_validCsevzKAMQQtOE_5alloc
  3428: 8020a5fc     0 NOTYPE  LOCAL  DEFAULT  280 .L0 
  3429: 8020a5fc     0 NOTYPE  LOCAL  DEFAULT  280 .L0 
  3430: 8020a5fc     0 NOTYPE  LOCAL  DEFAULT  280 $x
  3431: 8020a5fc     0 NOTYPE  LOCAL  DEFAULT  280 .L0 
  3432: 8020a640     0 NOTYPE  LOCAL  DEFAULT  280 .L0 
  3433: 8020a66c     0 NOTYPE  LOCAL  DEFAULT  280 .L0 
  3434: 8020a66c     0 NOTYPE  LOCAL  DEFAULT  281 .L0 
  3435: 8020a66c     0 NOTYPE  LOCAL  DEFAULT  281 .L0 
  3436: 8020a66c     0 NOTYPE  LOCAL  DEFAULT  281 $x
  3437: 8020a66c     0 NOTYPE  LOCAL  DEFAULT  281 .L0 
  3438: 8020abac   104 FUNC    LOCAL  DEFAULT  298 _RNvNvMNtNtCsakCY22H5bhg_4core5alloc6layoutNtB4_6Layout25from_size_align_unchecked18precondition_checkCsevzKAMQQtOE_5alloc
  3439: 8020a6b8     0 NOTYPE  LOCAL  DEFAULT  281 .L0 
  3440: 8020a6b8     0 NOTYPE  LOCAL  DEFAULT  282 .L0 
  3441: 8020a6b8     0 NOTYPE  LOCAL  DEFAULT  282 .L0 
  3442: 8020a6b8     0 NOTYPE  LOCAL  DEFAULT  282 $x
  3443: 8020a6b8     0 NOTYPE  LOCAL  DEFAULT  282 .L0 
  3444: 8020ac14   104 FUNC    LOCAL  DEFAULT  299 _RNvNvMNtNtCsakCY22H5bhg_4core5alloc6layoutNtB4_6Layout29from_size_alignment_unchecked18precondition_checkCsevzKAMQQtOE_5alloc
  3445: 8020a704     0 NOTYPE  LOCAL  DEFAULT  282 .L0 
  3446: 8020a704     0 NOTYPE  LOCAL  DEFAULT  283 .L0 
  3447: 8020a704     0 NOTYPE  LOCAL  DEFAULT  283 .L0 
  3448: 8020a704     0 NOTYPE  LOCAL  DEFAULT  283 $x
  3449: 8020a704     0 NOTYPE  LOCAL  DEFAULT  283 .L0 
  3450: 8020a73c     0 NOTYPE  LOCAL  DEFAULT  283 .L0 
  3451: 8020a758     0 NOTYPE  LOCAL  DEFAULT  283 .L0 
  3452: 8020a758     0 NOTYPE  LOCAL  DEFAULT  284 .L0 
  3453: 8020a758     0 NOTYPE  LOCAL  DEFAULT  284 .L0 
  3454: 8020a758     0 NOTYPE  LOCAL  DEFAULT  284 $x
  3455: 8020a758     0 NOTYPE  LOCAL  DEFAULT  284 .L0 
  3456: 8020a76c     0 NOTYPE  LOCAL  DEFAULT  284 .L0 
  3457: 8020a76c     0 NOTYPE  LOCAL  DEFAULT  285 .L0 
  3458: 8020a76c     0 NOTYPE  LOCAL  DEFAULT  285 .L0 
  3459: 8020a76c     0 NOTYPE  LOCAL  DEFAULT  285 $x
  3460: 8020a76c     0 NOTYPE  LOCAL  DEFAULT  285 .L0 
  3461: 8020a790     0 NOTYPE  LOCAL  DEFAULT  285 .L0 
  3462: 8020a790     0 NOTYPE  LOCAL  DEFAULT  286 .L0 
  3463: 8020a790     0 NOTYPE  LOCAL  DEFAULT  286 .L0 
  3464: 8020a790     0 NOTYPE  LOCAL  DEFAULT  286 $x
  3465: 8020a790     0 NOTYPE  LOCAL  DEFAULT  286 .L0 
  3466: 8020a7a4     0 NOTYPE  LOCAL  DEFAULT  286 .L0 
  3467: 8020a7a4    32 FUNC    LOCAL  DEFAULT  287 _RNvMs0_NtCsakCY22H5bhg_4core3numl12unsigned_absCsevzKAMQQtOE_5alloc
  3468: 8020a7a4     0 NOTYPE  LOCAL  DEFAULT  287 .L0 
  3469: 8020a7a4     0 NOTYPE  LOCAL  DEFAULT  287 .L0 
  3470: 8020a7a4     0 NOTYPE  LOCAL  DEFAULT  287 $x
  3471: 8020a7a4     0 NOTYPE  LOCAL  DEFAULT  287 .L0 
  3472: 8020a7c4    80 FUNC    LOCAL  DEFAULT  288 _RNvMs0_NtCsakCY22H5bhg_4core3numl12wrapping_absCsevzKAMQQtOE_5alloc
  3473: 8020a7c4     0 NOTYPE  LOCAL  DEFAULT  287 .L0 
  3474: 8020a7c4     0 NOTYPE  LOCAL  DEFAULT  288 .L0 
  3475: 8020a7c4     0 NOTYPE  LOCAL  DEFAULT  288 .L0 
  3476: 8020a7c4     0 NOTYPE  LOCAL  DEFAULT  288 $x
  3477: 8020a7c4     0 NOTYPE  LOCAL  DEFAULT  288 .L0 
  3478: 8020a7fc     0 NOTYPE  LOCAL  DEFAULT  288 .L0 
  3479: 8020a814     0 NOTYPE  LOCAL  DEFAULT  288 .L0 
  3480: 8020a854    40 FUNC    LOCAL  DEFAULT  290 _RNvMs5_NtCsakCY22H5bhg_4core3numt13from_ne_bytesCsevzKAMQQtOE_5alloc
  3481: 8020a814     0 NOTYPE  LOCAL  DEFAULT  289 .L0 
  3482: 8020a814     0 NOTYPE  LOCAL  DEFAULT  289 .L0 
  3483: 8020a814     0 NOTYPE  LOCAL  DEFAULT  289 $x
  3484: 8020a814     0 NOTYPE  LOCAL  DEFAULT  289 .L0 
  3485: 8020a854     0 NOTYPE  LOCAL  DEFAULT  289 .L0 
  3486: 8020a854     0 NOTYPE  LOCAL  DEFAULT  290 .L0 
  3487: 8020a854     0 NOTYPE  LOCAL  DEFAULT  290 .L0 
  3488: 8020a854     0 NOTYPE  LOCAL  DEFAULT  290 $x
  3489: 8020a854     0 NOTYPE  LOCAL  DEFAULT  290 .L0 
  3490: 8020a87c     0 NOTYPE  LOCAL  DEFAULT  290 .L0 
  3491: 8020a87c     0 NOTYPE  LOCAL  DEFAULT  291 .L0 
  3492: 8020a87c     0 NOTYPE  LOCAL  DEFAULT  291 .L0 
  3493: 8020a87c     0 NOTYPE  LOCAL  DEFAULT  291 $x
  3494: 8020a87c     0 NOTYPE  LOCAL  DEFAULT  291 .L0 
  3495: 8020a8a4     0 NOTYPE  LOCAL  DEFAULT  291 .L0 
  3496: 8020a90c     0 NOTYPE  LOCAL  DEFAULT  291 .L0 
  3497: 8020a90c     0 NOTYPE  LOCAL  DEFAULT  292 .L0 
  3498: 8020a90c     0 NOTYPE  LOCAL  DEFAULT  292 .L0 
  3499: 8020a90c     0 NOTYPE  LOCAL  DEFAULT  292 $x
  3500: 8020a90c     0 NOTYPE  LOCAL  DEFAULT  292 .L0 
  3501: 8020a928     0 NOTYPE  LOCAL  DEFAULT  292 .L0 
  3502: 8020a94c     0 NOTYPE  LOCAL  DEFAULT  292 .L0 
  3503: 8020a9ac     0 NOTYPE  LOCAL  DEFAULT  292 .L0 
  3504: 802208c4    16 OBJECT  LOCAL  DEFAULT  892 .Lanon.d4c3476b54810fc1dca13517b73d2fbb.36
  3505: 8020a9ac   208 FUNC    LOCAL  DEFAULT  293 _RNvMs9_NtCsakCY22H5bhg_4core3numj8abs_diffCsevzKAMQQtOE_5alloc
  3506: 8020a9ac     0 NOTYPE  LOCAL  DEFAULT  293 .L0 
  3507: 8020a9ac     0 NOTYPE  LOCAL  DEFAULT  293 .L0 
  3508: 8020a9ac     0 NOTYPE  LOCAL  DEFAULT  293 $x
  3509: 8020a9ac     0 NOTYPE  LOCAL  DEFAULT  293 .L0 
  3510: 8020a9f0     0 NOTYPE  LOCAL  DEFAULT  293 .L0 
  3511: 8020aa7c     0 NOTYPE  LOCAL  DEFAULT  293 .L0 
  3512: 8020aa7c    36 FUNC    LOCAL  DEFAULT  294 _RNvNtCsakCY22H5bhg_4core9ub_checks16maybe_is_alignedCsevzKAMQQtOE_5alloc
  3513: 8020aa7c     0 NOTYPE  LOCAL  DEFAULT  294 .L0 
  3514: 8020aa7c     0 NOTYPE  LOCAL  DEFAULT  294 .L0 
  3515: 8020aa7c     0 NOTYPE  LOCAL  DEFAULT  294 $x
  3516: 8020aa7c     0 NOTYPE  LOCAL  DEFAULT  294 .L0 
  3517: 8020ad00    36 FUNC    LOCAL  DEFAULT  301 _RNvNvNtCsakCY22H5bhg_4core9ub_checks16maybe_is_aligned7runtimeCsevzKAMQQtOE_5alloc
  3518: 8020aaa0     0 NOTYPE  LOCAL  DEFAULT  294 .L0 
  3519: 8020aaa0     0 NOTYPE  LOCAL  DEFAULT  295 .L0 
  3520: 8020aaa0     0 NOTYPE  LOCAL  DEFAULT  295 .L0 
  3521: 8020aaa0     0 NOTYPE  LOCAL  DEFAULT  295 $x
  3522: 8020aaa0     0 NOTYPE  LOCAL  DEFAULT  295 .L0 
  3523: 8020ad24     8 FUNC    LOCAL  DEFAULT  302 _RNvNvNtCsakCY22H5bhg_4core9ub_checks17check_language_ub7runtimeCsevzKAMQQtOE_5alloc
  3524: 8020aae0     0 NOTYPE  LOCAL  DEFAULT  295 .L0 
  3525: 8020aae0     0 NOTYPE  LOCAL  DEFAULT  296 .L0 
  3526: 8020aae0     0 NOTYPE  LOCAL  DEFAULT  296 .L0 
  3527: 8020aae0     0 NOTYPE  LOCAL  DEFAULT  296 $x
  3528: 8020aae0     0 NOTYPE  LOCAL  DEFAULT  296 .L0 
  3529: 8020ad2c   196 FUNC    LOCAL  DEFAULT  303 _RNvNvNtCsakCY22H5bhg_4core9ub_checks23maybe_is_nonoverlapping7runtimeCsevzKAMQQtOE_5alloc
  3530: 8020ab2c     0 NOTYPE  LOCAL  DEFAULT  296 .L0 
  3531: 8020ab2c     0 NOTYPE  LOCAL  DEFAULT  297 .L0 
  3532: 8020ab2c     0 NOTYPE  LOCAL  DEFAULT  297 .L0 
  3533: 8020ab2c     0 NOTYPE  LOCAL  DEFAULT  297 $x
  3534: 8020ab2c     0 NOTYPE  LOCAL  DEFAULT  297 .L0 
  3535: 8020abac     0 NOTYPE  LOCAL  DEFAULT  297 .L0 
  3536: 8020abac     0 NOTYPE  LOCAL  DEFAULT  298 .L0 
  3537: 8020abac     0 NOTYPE  LOCAL  DEFAULT  298 .L0 
  3538: 8020abac     0 NOTYPE  LOCAL  DEFAULT  298 $x
  3539: 8020abac     0 NOTYPE  LOCAL  DEFAULT  298 .L0 
  3540: 8020abc0     0 NOTYPE  LOCAL  DEFAULT  298 .L0 
  3541: 802208d4   281 OBJECT  LOCAL  DEFAULT  892 .Lanon.d4c3476b54810fc1dca13517b73d2fbb.70
  3542: 8020abd4     0 NOTYPE  LOCAL  DEFAULT  298 .L0 
  3543: 8020abe4     0 NOTYPE  LOCAL  DEFAULT  298 .L0 
  3544: 8020ac08     0 NOTYPE  LOCAL  DEFAULT  298 .L0 
  3545: 8020ac14     0 NOTYPE  LOCAL  DEFAULT  298 .L0 
  3546: 8020ac14     0 NOTYPE  LOCAL  DEFAULT  299 .L0 
  3547: 8020ac14     0 NOTYPE  LOCAL  DEFAULT  299 .L0 
  3548: 8020ac14     0 NOTYPE  LOCAL  DEFAULT  299 $x
  3549: 8020ac14     0 NOTYPE  LOCAL  DEFAULT  299 .L0 
  3550: 8020ac28     0 NOTYPE  LOCAL  DEFAULT  299 .L0 
  3551: 802209ed   259 OBJECT  LOCAL  DEFAULT  892 .Lanon.d4c3476b54810fc1dca13517b73d2fbb.71
  3552: 8020ac3c     0 NOTYPE  LOCAL  DEFAULT  299 .L0 
  3553: 8020ac4c     0 NOTYPE  LOCAL  DEFAULT  299 .L0 
  3554: 8020ac70     0 NOTYPE  LOCAL  DEFAULT  299 .L0 
  3555: 8020ac7c     0 NOTYPE  LOCAL  DEFAULT  299 .L0 
  3556: 8020ac7c     0 NOTYPE  LOCAL  DEFAULT  300 .L0 
  3557: 8020ac7c     0 NOTYPE  LOCAL  DEFAULT  300 .L0 
  3558: 8020ac7c     0 NOTYPE  LOCAL  DEFAULT  300 $x
  3559: 8020ac7c     0 NOTYPE  LOCAL  DEFAULT  300 .L0 
  3560: 8020ac98     0 NOTYPE  LOCAL  DEFAULT  300 .L0 
  3561: 80220af0   186 OBJECT  LOCAL  DEFAULT  892 .Lanon.d4c3476b54810fc1dca13517b73d2fbb.78
  3562: 8020acb4     0 NOTYPE  LOCAL  DEFAULT  300 .L0 
  3563: 8020acdc     0 NOTYPE  LOCAL  DEFAULT  300 .L0 
  3564: 8020ad00     0 NOTYPE  LOCAL  DEFAULT  300 .L0 
  3565: 8020ad00     0 NOTYPE  LOCAL  DEFAULT  300 .L0 
  3566: 8020ad00     0 NOTYPE  LOCAL  DEFAULT  301 .L0 
  3567: 8020ad00     0 NOTYPE  LOCAL  DEFAULT  301 .L0 
  3568: 8020ad00     0 NOTYPE  LOCAL  DEFAULT  301 $x
  3569: 8020ad00     0 NOTYPE  LOCAL  DEFAULT  301 .L0 
  3570: 8020ad24     0 NOTYPE  LOCAL  DEFAULT  301 .L0 
  3571: 8020ad24     0 NOTYPE  LOCAL  DEFAULT  302 .L0 
  3572: 8020ad24     0 NOTYPE  LOCAL  DEFAULT  302 .L0 
  3573: 8020ad24     0 NOTYPE  LOCAL  DEFAULT  302 $x
  3574: 8020ad24     0 NOTYPE  LOCAL  DEFAULT  302 .L0 
  3575: 8020ad2c     0 NOTYPE  LOCAL  DEFAULT  302 .L0 
  3576: 8020ad2c     0 NOTYPE  LOCAL  DEFAULT  303 .L0 
  3577: 8020ad2c     0 NOTYPE  LOCAL  DEFAULT  303 .L0 
  3578: 8020ad2c     0 NOTYPE  LOCAL  DEFAULT  303 $x
  3579: 8020ad2c     0 NOTYPE  LOCAL  DEFAULT  303 .L0 
  3580: 8020ad64     0 NOTYPE  LOCAL  DEFAULT  303 .L0 
  3581: 8020ad78     0 NOTYPE  LOCAL  DEFAULT  303 .L0 
  3582: 8020ad84     0 NOTYPE  LOCAL  DEFAULT  303 .L0 
  3583: 8020adb8     0 NOTYPE  LOCAL  DEFAULT  303 .L0 
  3584: 8020adc8     0 NOTYPE  LOCAL  DEFAULT  303 .L0 
  3585: 8020add0     0 NOTYPE  LOCAL  DEFAULT  303 .L0 
  3586: 8020addc     0 NOTYPE  LOCAL  DEFAULT  303 .L0 
  3587: 80220baa    61 OBJECT  LOCAL  DEFAULT  892 .Lanon.d4c3476b54810fc1dca13517b73d2fbb.79
  3588: 8020adf0     0 NOTYPE  LOCAL  DEFAULT  303 .L0 
  3589: 8020adf0     0 NOTYPE  LOCAL  DEFAULT  303 .L0 
  3590: 802208b4     0 NOTYPE  LOCAL  DEFAULT  892 $d
  3591: 802208c4     0 NOTYPE  LOCAL  DEFAULT  892 $d
  3592: 802208d4     0 NOTYPE  LOCAL  DEFAULT  892 $d
  3593: 802209ed     0 NOTYPE  LOCAL  DEFAULT  892 $d
  3594: 80220af0     0 NOTYPE  LOCAL  DEFAULT  892 $d
  3595: 80220baa     0 NOTYPE  LOCAL  DEFAULT  892 $d
  3596: 0000079b     0 NOTYPE  LOCAL  DEFAULT  905 .L0 
  3597: 0000079b     0 NOTYPE  LOCAL  DEFAULT  905 $d
  3598: 000007c4     0 NOTYPE  LOCAL  DEFAULT  905 .L0 
  3599: 00003c91     0 NOTYPE  LOCAL  DEFAULT  896 $d
  3600: 0001b88b     0 NOTYPE  LOCAL  DEFAULT  897 .L0 
  3601: 0001b88b     0 NOTYPE  LOCAL  DEFAULT  897 $d
  3602: 00009121     0 NOTYPE  LOCAL  DEFAULT  904 .Lline_table_start0
  3603: 00002468     0 NOTYPE  LOCAL  DEFAULT  899 .L0 
  3604: 00001dd0     0 NOTYPE  LOCAL  DEFAULT  899 .L0 
  3605: 00001de8     0 NOTYPE  LOCAL  DEFAULT  899 .L0 
  3606: 00001e00     0 NOTYPE  LOCAL  DEFAULT  899 .L0 
  3607: 00001e18     0 NOTYPE  LOCAL  DEFAULT  899 .L0 
  3608: 00001e38     0 NOTYPE  LOCAL  DEFAULT  899 .L0 
  3609: 00001e58     0 NOTYPE  LOCAL  DEFAULT  899 .L0 
  3610: 000022e8     0 NOTYPE  LOCAL  DEFAULT  899 .L0 
  3611: 000023c0     0 NOTYPE  LOCAL  DEFAULT  899 .L0 
  3612: 000023d8     0 NOTYPE  LOCAL  DEFAULT  899 .L0 
  3613: 00001e78     0 NOTYPE  LOCAL  DEFAULT  899 .L0 
  3614: 00001e90     0 NOTYPE  LOCAL  DEFAULT  899 .L0 
  3615: 00001ea8     0 NOTYPE  LOCAL  DEFAULT  899 .L0 
  3616: 00001ec0     0 NOTYPE  LOCAL  DEFAULT  899 .L0 
  3617: 000022c0     0 NOTYPE  LOCAL  DEFAULT  899 .L0 
  3618: 00002300     0 NOTYPE  LOCAL  DEFAULT  899 .L0 
  3619: 00002318     0 NOTYPE  LOCAL  DEFAULT  899 .L0 
  3620: 00002330     0 NOTYPE  LOCAL  DEFAULT  899 .L0 
  3621: 00001ed8     0 NOTYPE  LOCAL  DEFAULT  899 .L0 
  3622: 00001ef8     0 NOTYPE  LOCAL  DEFAULT  899 .L0 
  3623: 00001f10     0 NOTYPE  LOCAL  DEFAULT  899 .L0 
  3624: 00001f30     0 NOTYPE  LOCAL  DEFAULT  899 .L0 
  3625: 00002098     0 NOTYPE  LOCAL  DEFAULT  899 .L0 
  3626: 000020b8     0 NOTYPE  LOCAL  DEFAULT  899 .L0 
  3627: 00002360     0 NOTYPE  LOCAL  DEFAULT  899 .L0 
  3628: 00002378     0 NOTYPE  LOCAL  DEFAULT  899 .L0 
  3629: 000023f0     0 NOTYPE  LOCAL  DEFAULT  899 .L0 
  3630: 00002408     0 NOTYPE  LOCAL  DEFAULT  899 .L0 
  3631: 00002428     0 NOTYPE  LOCAL  DEFAULT  899 .L0 
  3632: 00002448     0 NOTYPE  LOCAL  DEFAULT  899 .L0 
  3633: 00002390     0 NOTYPE  LOCAL  DEFAULT  899 .L0 
  3634: 000023a8     0 NOTYPE  LOCAL  DEFAULT  899 .L0 
  3635: 00002348     0 NOTYPE  LOCAL  DEFAULT  899 .L0 
  3636: 00001ff0     0 NOTYPE  LOCAL  DEFAULT  899 .L0 
  3637: 00002008     0 NOTYPE  LOCAL  DEFAULT  899 .L0 
  3638: 00002020     0 NOTYPE  LOCAL  DEFAULT  899 .L0 
  3639: 00002038     0 NOTYPE  LOCAL  DEFAULT  899 .L0 
  3640: 00002050     0 NOTYPE  LOCAL  DEFAULT  899 .L0 
  3641: 00002068     0 NOTYPE  LOCAL  DEFAULT  899 .L0 
  3642: 00002080     0 NOTYPE  LOCAL  DEFAULT  899 .L0 
  3643: 000020d8     0 NOTYPE  LOCAL  DEFAULT  899 .L0 
  3644: 000020f0     0 NOTYPE  LOCAL  DEFAULT  899 .L0 
  3645: 00002108     0 NOTYPE  LOCAL  DEFAULT  899 .L0 
  3646: 00002120     0 NOTYPE  LOCAL  DEFAULT  899 .L0 
  3647: 00002138     0 NOTYPE  LOCAL  DEFAULT  899 .L0 
  3648: 00002150     0 NOTYPE  LOCAL  DEFAULT  899 .L0 
  3649: 00002170     0 NOTYPE  LOCAL  DEFAULT  899 .L0 
  3650: 00002190     0 NOTYPE  LOCAL  DEFAULT  899 .L0 
  3651: 000021a8     0 NOTYPE  LOCAL  DEFAULT  899 .L0 
  3652: 000021c8     0 NOTYPE  LOCAL  DEFAULT  899 .L0 
  3653: 000021e0     0 NOTYPE  LOCAL  DEFAULT  899 .L0 
  3654: 00002200     0 NOTYPE  LOCAL  DEFAULT  899 .L0 
  3655: 00002220     0 NOTYPE  LOCAL  DEFAULT  899 .L0 
  3656: 00002240     0 NOTYPE  LOCAL  DEFAULT  899 .L0 
  3657: 00002260     0 NOTYPE  LOCAL  DEFAULT  899 .L0 
  3658: 00002280     0 NOTYPE  LOCAL  DEFAULT  899 .L0 
  3659: 000022a0     0 NOTYPE  LOCAL  DEFAULT  899 .L0 
  3660: 00001f48     0 NOTYPE  LOCAL  DEFAULT  899 .L0 
  3661: 00001f60     0 NOTYPE  LOCAL  DEFAULT  899 .L0 
  3662: 00001f78     0 NOTYPE  LOCAL  DEFAULT  899 .L0 
  3663: 00001f90     0 NOTYPE  LOCAL  DEFAULT  899 .L0 
  3664: 00001fa8     0 NOTYPE  LOCAL  DEFAULT  899 .L0 
  3665: 00001fc0     0 NOTYPE  LOCAL  DEFAULT  899 .L0 
  3666: 00001fd8     0 NOTYPE  LOCAL  DEFAULT  899 .L0 
  3667: 00001408     0 NOTYPE  LOCAL  DEFAULT  898 $d
  3668: 00001dd0     0 NOTYPE  LOCAL  DEFAULT  899 $d
  3669: 000948bf     0 NOTYPE  LOCAL  DEFAULT  900 $d
  3670: 0000005e     0 NOTYPE  LOCAL  DEFAULT  901 $d
  3671: 00000000     0 NOTYPE  LOCAL  DEFAULT  ABS $d
  3672: 000035bc     0 NOTYPE  LOCAL  DEFAULT  903 .L0 
  3673: 000035bc     0 NOTYPE  LOCAL  DEFAULT  903 $d
  3674: 00009121     0 NOTYPE  LOCAL  DEFAULT  904 $d
  3675: 8020a87c   144 FUNC    LOCAL  HIDDEN   291 _RNvMs9_NtCsakCY22H5bhg_4core3numj11checked_addCsevzKAMQQtOE_5alloc
  3676: 8020aaa0    64 FUNC    LOCAL  HIDDEN   295 _RNvNtCsakCY22H5bhg_4core9ub_checks17check_language_ubCsevzKAMQQtOE_5alloc
  3677: 8020a758    20 FUNC    LOCAL  HIDDEN   284 _RNvMNtNtCsakCY22H5bhg_4core5alloc6layoutNtB2_6Layout4sizeCsevzKAMQQtOE_5alloc
  3678: 8020ac7c   132 FUNC    LOCAL  HIDDEN   300 _RNvNvMs9_NtCsakCY22H5bhg_4core3numj13unchecked_mul18precondition_checkCsevzKAMQQtOE_5alloc
  3679: 8020a76c    36 FUNC    LOCAL  HIDDEN   285 _RNvMNtNtCsakCY22H5bhg_4core5alloc6layoutNtB2_6Layout5alignCsevzKAMQQtOE_5alloc
  3680: 8020a66c    76 FUNC    LOCAL  HIDDEN   281 _RNvMNtNtCsakCY22H5bhg_4core5alloc6layoutNtB2_6Layout25from_size_align_uncheckedCsevzKAMQQtOE_5alloc
  3681: 8020a814    64 FUNC    LOCAL  HIDDEN   289 _RNvMs5_NtCsakCY22H5bhg_4core3numt13from_le_bytesCsevzKAMQQtOE_5alloc
  3682: 8020a790    20 FUNC    LOCAL  HIDDEN   286 _RNvMNtNtCsakCY22H5bhg_4core5alloc6layoutNtB2_6Layout9alignmentCsevzKAMQQtOE_5alloc
  3683: 8020a4cc    88 FUNC    LOCAL  HIDDEN   277 _RNvMNtNtCsakCY22H5bhg_4core5alloc6layoutNtB2_6Layout12pad_to_alignCsevzKAMQQtOE_5alloc
  3684: 8020a524   124 FUNC    LOCAL  HIDDEN   278 _RNvMNtNtCsakCY22H5bhg_4core5alloc6layoutNtB2_6Layout13repeat_packedCsevzKAMQQtOE_5alloc
  3685: 8020a4a0    44 FUNC    LOCAL  HIDDEN   276 _RNvMNtNtCsakCY22H5bhg_4core5alloc6layoutNtB2_6Layout12dangling_ptrCsevzKAMQQtOE_5alloc
  3686: 8020a90c   160 FUNC    LOCAL  HIDDEN   292 _RNvMs9_NtCsakCY22H5bhg_4core3numj11checked_mulCsevzKAMQQtOE_5alloc
  3687: 8020aae0    76 FUNC    LOCAL  HIDDEN   296 _RNvNtCsakCY22H5bhg_4core9ub_checks23maybe_is_nonoverlappingCsevzKAMQQtOE_5alloc
  3688: 8020ab2c   128 FUNC    LOCAL  HIDDEN   297 _RNvNtCsakCY22H5bhg_4core9ub_checks29maybe_is_aligned_and_not_nullCsevzKAMQQtOE_5alloc
  3689: 00000000     0 FILE    LOCAL  DEFAULT  ABS alloc.a8ffb13cea69265a-cgu.2
  3690: 8020adf0     0 NOTYPE  LOCAL  DEFAULT  304 .L0 
  3691: 8020adf0     0 NOTYPE  LOCAL  DEFAULT  304 .L0 
  3692: 8020adf0     0 NOTYPE  LOCAL  DEFAULT  304 $x
  3693: 8020adf0     0 NOTYPE  LOCAL  DEFAULT  304 .L0 
  3694: 8020ae14     0 NOTYPE  LOCAL  DEFAULT  304 .L0 
  3695: 8020ae14     0 NOTYPE  LOCAL  DEFAULT  305 .L0 
  3696: 8020ae14     0 NOTYPE  LOCAL  DEFAULT  305 .L0 
  3697: 8020ae14     0 NOTYPE  LOCAL  DEFAULT  305 $x
  3698: 8020ae14     0 NOTYPE  LOCAL  DEFAULT  305 .L0 
  3699: 8020ae34     0 NOTYPE  LOCAL  DEFAULT  305 .L0 
  3700: 8020ae34     0 NOTYPE  LOCAL  DEFAULT  306 .L0 
  3701: 8020ae34     0 NOTYPE  LOCAL  DEFAULT  306 .L0 
  3702: 8020ae34     0 NOTYPE  LOCAL  DEFAULT  306 $x
  3703: 8020ae34     0 NOTYPE  LOCAL  DEFAULT  306 .L0 
  3704: 8020ae64     0 NOTYPE  LOCAL  DEFAULT  306 .L0 
  3705: 8020ae64     0 NOTYPE  LOCAL  DEFAULT  307 .L0 
  3706: 8020ae64     0 NOTYPE  LOCAL  DEFAULT  307 .L0 
  3707: 8020ae64     0 NOTYPE  LOCAL  DEFAULT  307 $x
  3708: 8020ae64     0 NOTYPE  LOCAL  DEFAULT  307 .L0 
  3709: 8020ae84     0 NOTYPE  LOCAL  DEFAULT  307 .L0 
  3710: 8020ae84     0 NOTYPE  LOCAL  DEFAULT  308 .L0 
  3711: 8020ae84     0 NOTYPE  LOCAL  DEFAULT  308 .L0 
  3712: 8020ae84     0 NOTYPE  LOCAL  DEFAULT  308 $x
  3713: 8020ae84     0 NOTYPE  LOCAL  DEFAULT  308 .L0 
  3714: 8020aea4     0 NOTYPE  LOCAL  DEFAULT  308 .L0 
  3715: 8020aea4     0 NOTYPE  LOCAL  DEFAULT  309 .L0 
  3716: 8020aea4     0 NOTYPE  LOCAL  DEFAULT  309 .L0 
  3717: 8020aea4     0 NOTYPE  LOCAL  DEFAULT  309 $x
  3718: 8020aea4     0 NOTYPE  LOCAL  DEFAULT  309 .L0 
  3719: 8020aed8     0 NOTYPE  LOCAL  DEFAULT  309 .L0 
  3720: 8020aee4     0 NOTYPE  LOCAL  DEFAULT  309 .L0 
  3721: 8020af08     0 NOTYPE  LOCAL  DEFAULT  309 .L0 
  3722: 8020af2c     0 NOTYPE  LOCAL  DEFAULT  309 .L0 
  3723: 80220be8    16 OBJECT  LOCAL  DEFAULT  892 .Lanon.c35540d88d02df0137d959c52a2d1377.21
  3724: 8020af64     0 NOTYPE  LOCAL  DEFAULT  309 .L0 
  3725: 8020af64     0 NOTYPE  LOCAL  DEFAULT  309 .L0 
  3726: 8020af64     0 NOTYPE  LOCAL  DEFAULT  310 .L0 
  3727: 8020af64     0 NOTYPE  LOCAL  DEFAULT  310 .L0 
  3728: 8020af64     0 NOTYPE  LOCAL  DEFAULT  310 $x
  3729: 8020af64     0 NOTYPE  LOCAL  DEFAULT  310 .L0 
  3730: 8020af9c     0 NOTYPE  LOCAL  DEFAULT  310 .L0 
  3731: 80220bf8    16 OBJECT  LOCAL  DEFAULT  892 .Lanon.c35540d88d02df0137d959c52a2d1377.27
  3732: 8020afb8     0 NOTYPE  LOCAL  DEFAULT  310 .L0 
  3733: 8020afb8     0 NOTYPE  LOCAL  DEFAULT  311 .L0 
  3734: 8020afb8     0 NOTYPE  LOCAL  DEFAULT  311 .L0 
  3735: 8020afb8     0 NOTYPE  LOCAL  DEFAULT  311 $x
  3736: 8020afb8     0 NOTYPE  LOCAL  DEFAULT  311 .L0 
  3737: 8020afdc     0 NOTYPE  LOCAL  DEFAULT  311 .L0 
  3738: 8020afdc     0 NOTYPE  LOCAL  DEFAULT  312 .L0 
  3739: 8020afdc     0 NOTYPE  LOCAL  DEFAULT  312 .L0 
  3740: 8020afdc     0 NOTYPE  LOCAL  DEFAULT  312 $x
  3741: 8020afdc     0 NOTYPE  LOCAL  DEFAULT  312 .L0 
  3742: 8020afec     0 NOTYPE  LOCAL  DEFAULT  312 .L0 
  3743: 8020afec     0 NOTYPE  LOCAL  DEFAULT  313 .L0 
  3744: 8020afec     0 NOTYPE  LOCAL  DEFAULT  313 .L0 
  3745: 8020afec     0 NOTYPE  LOCAL  DEFAULT  313 $x
  3746: 8020afec     0 NOTYPE  LOCAL  DEFAULT  313 .L0 
  3747: 8020affc     0 NOTYPE  LOCAL  DEFAULT  313 .L0 
  3748: 8020affc     0 NOTYPE  LOCAL  DEFAULT  314 .L0 
  3749: 8020affc     0 NOTYPE  LOCAL  DEFAULT  314 .L0 
  3750: 8020affc     0 NOTYPE  LOCAL  DEFAULT  314 $x
  3751: 8020affc     0 NOTYPE  LOCAL  DEFAULT  314 .L0 
  3752: 8020b00c     0 NOTYPE  LOCAL  DEFAULT  314 .L0 
  3753: 8020b00c     0 NOTYPE  LOCAL  DEFAULT  315 .L0 
  3754: 8020b00c     0 NOTYPE  LOCAL  DEFAULT  315 .L0 
  3755: 8020b00c     0 NOTYPE  LOCAL  DEFAULT  315 $x
  3756: 8020b00c     0 NOTYPE  LOCAL  DEFAULT  315 .L0 
  3757: 8020b01c     0 NOTYPE  LOCAL  DEFAULT  315 .L0 
  3758: 8020b01c     0 NOTYPE  LOCAL  DEFAULT  316 .L0 
  3759: 8020b01c     0 NOTYPE  LOCAL  DEFAULT  316 .L0 
  3760: 8020b01c     0 NOTYPE  LOCAL  DEFAULT  316 $x
  3761: 8020b01c     0 NOTYPE  LOCAL  DEFAULT  316 .L0 
  3762: 8020b03c     0 NOTYPE  LOCAL  DEFAULT  316 .L0 
  3763: 8020b03c     0 NOTYPE  LOCAL  DEFAULT  317 .L0 
  3764: 8020b03c     0 NOTYPE  LOCAL  DEFAULT  317 .L0 
  3765: 8020b03c     0 NOTYPE  LOCAL  DEFAULT  317 $x
  3766: 8020b03c     0 NOTYPE  LOCAL  DEFAULT  317 .L0 
  3767: 8020b060     0 NOTYPE  LOCAL  DEFAULT  317 .L0 
  3768: 8020b060     0 NOTYPE  LOCAL  DEFAULT  318 .L0 
  3769: 8020b060     0 NOTYPE  LOCAL  DEFAULT  318 .L0 
  3770: 8020b060     0 NOTYPE  LOCAL  DEFAULT  318 $x
  3771: 8020b060     0 NOTYPE  LOCAL  DEFAULT  318 .L0 
  3772: 8020b080     0 NOTYPE  LOCAL  DEFAULT  318 .L0 
  3773: 8020b080     0 NOTYPE  LOCAL  DEFAULT  319 .L0 
  3774: 8020b080     0 NOTYPE  LOCAL  DEFAULT  319 .L0 
  3775: 8020b080     0 NOTYPE  LOCAL  DEFAULT  319 $x
  3776: 8020b080     0 NOTYPE  LOCAL  DEFAULT  319 .L0 
  3777: 8020b09c     0 NOTYPE  LOCAL  DEFAULT  319 .L0 
  3778: 8020b0b4     0 NOTYPE  LOCAL  DEFAULT  319 .L0 
  3779: 8020b0d0     0 NOTYPE  LOCAL  DEFAULT  319 .L0 
  3780: 8020b0d0     0 NOTYPE  LOCAL  DEFAULT  320 .L0 
  3781: 8020b0d0     0 NOTYPE  LOCAL  DEFAULT  320 .L0 
  3782: 8020b0d0     0 NOTYPE  LOCAL  DEFAULT  320 $x
  3783: 8020b0d0     0 NOTYPE  LOCAL  DEFAULT  320 .L0 
  3784: 8020b104     0 NOTYPE  LOCAL  DEFAULT  320 .L0 
  3785: 8020b130     0 NOTYPE  LOCAL  DEFAULT  320 .L0 
  3786: 8020b14c     0 NOTYPE  LOCAL  DEFAULT  320 .L0 
  3787: 8020b14c     0 NOTYPE  LOCAL  DEFAULT  321 .L0 
  3788: 8020b14c     0 NOTYPE  LOCAL  DEFAULT  321 .L0 
  3789: 8020b14c     0 NOTYPE  LOCAL  DEFAULT  321 $x
  3790: 8020b14c     0 NOTYPE  LOCAL  DEFAULT  321 .L0 
  3791: 8020b164     0 NOTYPE  LOCAL  DEFAULT  321 .L0 
  3792: 8020b174     0 NOTYPE  LOCAL  DEFAULT  321 .L0 
  3793: 8020b188     0 NOTYPE  LOCAL  DEFAULT  321 .L0 
  3794: 8020b188     0 NOTYPE  LOCAL  DEFAULT  322 .L0 
  3795: 8020b188     0 NOTYPE  LOCAL  DEFAULT  322 .L0 
  3796: 8020b188     0 NOTYPE  LOCAL  DEFAULT  322 $x
  3797: 8020b188     0 NOTYPE  LOCAL  DEFAULT  322 .L0 
  3798: 8020b1bc     0 NOTYPE  LOCAL  DEFAULT  322 .L0 
  3799: 8020b1e8     0 NOTYPE  LOCAL  DEFAULT  322 .L0 
  3800: 8020b204     0 NOTYPE  LOCAL  DEFAULT  322 .L0 
  3801: 8020b204     0 NOTYPE  LOCAL  DEFAULT  323 .L0 
  3802: 8020b204     0 NOTYPE  LOCAL  DEFAULT  323 .L0 
  3803: 8020b204     0 NOTYPE  LOCAL  DEFAULT  323 $x
  3804: 8020b204     0 NOTYPE  LOCAL  DEFAULT  323 .L0 
  3805: 8020b23c     0 NOTYPE  LOCAL  DEFAULT  323 .L0 
  3806: 8020b258     0 NOTYPE  LOCAL  DEFAULT  323 .L0 
  3807: 8020b274     0 NOTYPE  LOCAL  DEFAULT  323 .L0 
  3808: 8020b274     0 NOTYPE  LOCAL  DEFAULT  324 .L0 
  3809: 8020b274     0 NOTYPE  LOCAL  DEFAULT  324 .L0 
  3810: 8020b274     0 NOTYPE  LOCAL  DEFAULT  324 $x
  3811: 8020b274     0 NOTYPE  LOCAL  DEFAULT  324 .L0 
  3812: 8020b288     0 NOTYPE  LOCAL  DEFAULT  324 .L0 
  3813: 8020b288     0 NOTYPE  LOCAL  DEFAULT  325 .L0 
  3814: 8020b288     0 NOTYPE  LOCAL  DEFAULT  325 .L0 
  3815: 8020b288     0 NOTYPE  LOCAL  DEFAULT  325 $x
  3816: 8020b288     0 NOTYPE  LOCAL  DEFAULT  325 .L0 
  3817: 8020b2c0     0 NOTYPE  LOCAL  DEFAULT  325 .L0 
  3818: 8020b2d8     0 NOTYPE  LOCAL  DEFAULT  325 .L0 
  3819: 8020b2d8     0 NOTYPE  LOCAL  DEFAULT  326 .L0 
  3820: 8020b2d8     0 NOTYPE  LOCAL  DEFAULT  326 .L0 
  3821: 8020b2d8     0 NOTYPE  LOCAL  DEFAULT  326 $x
  3822: 8020b2d8     0 NOTYPE  LOCAL  DEFAULT  326 .L0 
  3823: 8020b310     0 NOTYPE  LOCAL  DEFAULT  326 .L0 
  3824: 8020b310     0 NOTYPE  LOCAL  DEFAULT  327 .L0 
  3825: 8020b310     0 NOTYPE  LOCAL  DEFAULT  327 .L0 
  3826: 8020b310     0 NOTYPE  LOCAL  DEFAULT  327 $x
  3827: 8020b310     0 NOTYPE  LOCAL  DEFAULT  327 .L0 
  3828: 8020b33c     0 NOTYPE  LOCAL  DEFAULT  327 .L0 
  3829: 8020b350     0 NOTYPE  LOCAL  DEFAULT  327 .L0 
  3830: 80220be8     0 NOTYPE  LOCAL  DEFAULT  892 $d
  3831: 80220bf8     0 NOTYPE  LOCAL  DEFAULT  892 $d
  3832: 000007ed     0 NOTYPE  LOCAL  DEFAULT  905 .L0 
  3833: 000007ed     0 NOTYPE  LOCAL  DEFAULT  905 $d
  3834: 00000816     0 NOTYPE  LOCAL  DEFAULT  905 .L0 
  3835: 0000083f     0 NOTYPE  LOCAL  DEFAULT  905 .L0 
  3836: 00000868     0 NOTYPE  LOCAL  DEFAULT  905 .L0 
  3837: 00000891     0 NOTYPE  LOCAL  DEFAULT  905 .L0 
  3838: 000008ba     0 NOTYPE  LOCAL  DEFAULT  905 .L0 
  3839: 000008e3     0 NOTYPE  LOCAL  DEFAULT  905 .L0 
  3840: 0000090c     0 NOTYPE  LOCAL  DEFAULT  905 .L0 
  3841: 0000094e     0 NOTYPE  LOCAL  DEFAULT  905 .L0 
  3842: 00000990     0 NOTYPE  LOCAL  DEFAULT  905 .L0 
  3843: 000009b8     0 NOTYPE  LOCAL  DEFAULT  905 .L0 
  3844: 000009e0     0 NOTYPE  LOCAL  DEFAULT  905 .L0 
  3845: 00000a08     0 NOTYPE  LOCAL  DEFAULT  905 .L0 
  3846: 00000a31     0 NOTYPE  LOCAL  DEFAULT  905 .L0 
  3847: 00000a5a     0 NOTYPE  LOCAL  DEFAULT  905 .L0 
  3848: 00000a83     0 NOTYPE  LOCAL  DEFAULT  905 .L0 
  3849: 00000ab9     0 NOTYPE  LOCAL  DEFAULT  905 .L0 
  3850: 00000ae2     0 NOTYPE  LOCAL  DEFAULT  905 .L0 
  3851: 00000b18     0 NOTYPE  LOCAL  DEFAULT  905 .L0 
  3852: 00000b41     0 NOTYPE  LOCAL  DEFAULT  905 .L0 
  3853: 00000b77     0 NOTYPE  LOCAL  DEFAULT  905 .L0 
  3854: 00000ba0     0 NOTYPE  LOCAL  DEFAULT  905 .L0 
  3855: 00000bd6     0 NOTYPE  LOCAL  DEFAULT  905 .L0 
  3856: 00000bff     0 NOTYPE  LOCAL  DEFAULT  905 .L0 
  3857: 00000c35     0 NOTYPE  LOCAL  DEFAULT  905 .L0 
  3858: 00000c5e     0 NOTYPE  LOCAL  DEFAULT  905 .L0 
  3859: 00000c87     0 NOTYPE  LOCAL  DEFAULT  905 .L0 
  3860: 00000cb0     0 NOTYPE  LOCAL  DEFAULT  905 .L0 
  3861: 00000cd9     0 NOTYPE  LOCAL  DEFAULT  905 .L0 
  3862: 00000d02     0 NOTYPE  LOCAL  DEFAULT  905 .L0 
  3863: 00000d2b     0 NOTYPE  LOCAL  DEFAULT  905 .L0 
  3864: 00000d54     0 NOTYPE  LOCAL  DEFAULT  905 .L0 
  3865: 00000d7d     0 NOTYPE  LOCAL  DEFAULT  905 .L0 
  3866: 00000da6     0 NOTYPE  LOCAL  DEFAULT  905 .L0 
  3867: 00000dcf     0 NOTYPE  LOCAL  DEFAULT  905 .L0 
  3868: 00000df8     0 NOTYPE  LOCAL  DEFAULT  905 .L0 
  3869: 00000e21     0 NOTYPE  LOCAL  DEFAULT  905 .L0 
  3870: 00000e57     0 NOTYPE  LOCAL  DEFAULT  905 .L0 
  3871: 00000e80     0 NOTYPE  LOCAL  DEFAULT  905 .L0 
  3872: 00000ea9     0 NOTYPE  LOCAL  DEFAULT  905 .L0 
  3873: 00000ed2     0 NOTYPE  LOCAL  DEFAULT  905 .L0 
  3874: 00000efb     0 NOTYPE  LOCAL  DEFAULT  905 .L0 
  3875: 00000f24     0 NOTYPE  LOCAL  DEFAULT  905 .L0 
  3876: 00000f4d     0 NOTYPE  LOCAL  DEFAULT  905 .L0 
  3877: 00000f76     0 NOTYPE  LOCAL  DEFAULT  905 .L0 
  3878: 00000f9f     0 NOTYPE  LOCAL  DEFAULT  905 .L0 
  3879: 00000fc8     0 NOTYPE  LOCAL  DEFAULT  905 .L0 
  3880: 00000ff1     0 NOTYPE  LOCAL  DEFAULT  905 .L0 
  3881: 0000101a     0 NOTYPE  LOCAL  DEFAULT  905 .L0 
  3882: 00001043     0 NOTYPE  LOCAL  DEFAULT  905 .L0 
  3883: 0000106c     0 NOTYPE  LOCAL  DEFAULT  905 .L0 
  3884: 00001095     0 NOTYPE  LOCAL  DEFAULT  905 .L0 
  3885: 000010be     0 NOTYPE  LOCAL  DEFAULT  905 .L0 
  3886: 000010e7     0 NOTYPE  LOCAL  DEFAULT  905 .L0 
  3887: 0000404a     0 NOTYPE  LOCAL  DEFAULT  896 $d
  3888: 000221b9     0 NOTYPE  LOCAL  DEFAULT  897 .L0 
  3889: 000221b9     0 NOTYPE  LOCAL  DEFAULT  897 $d
  3890: 0000bf1f     0 NOTYPE  LOCAL  DEFAULT  904 .Lline_table_start0
  3891: 00002c78     0 NOTYPE  LOCAL  DEFAULT  899 .L0 
  3892: 00002a50     0 NOTYPE  LOCAL  DEFAULT  899 .L0 
  3893: 00002a68     0 NOTYPE  LOCAL  DEFAULT  899 .L0 
  3894: 00002a80     0 NOTYPE  LOCAL  DEFAULT  899 .L0 
  3895: 00002a98     0 NOTYPE  LOCAL  DEFAULT  899 .L0 
  3896: 00002b70     0 NOTYPE  LOCAL  DEFAULT  899 .L0 
  3897: 00002b90     0 NOTYPE  LOCAL  DEFAULT  899 .L0 
  3898: 00002bb0     0 NOTYPE  LOCAL  DEFAULT  899 .L0 
  3899: 00002bd0     0 NOTYPE  LOCAL  DEFAULT  899 .L0 
  3900: 00002bf0     0 NOTYPE  LOCAL  DEFAULT  899 .L0 
  3901: 00002b58     0 NOTYPE  LOCAL  DEFAULT  899 .L0 
  3902: 00002ae0     0 NOTYPE  LOCAL  DEFAULT  899 .L0 
  3903: 00002af8     0 NOTYPE  LOCAL  DEFAULT  899 .L0 
  3904: 00002c08     0 NOTYPE  LOCAL  DEFAULT  899 .L0 
  3905: 00002c20     0 NOTYPE  LOCAL  DEFAULT  899 .L0 
  3906: 00002b40     0 NOTYPE  LOCAL  DEFAULT  899 .L0 
  3907: 00002ab0     0 NOTYPE  LOCAL  DEFAULT  899 .L0 
  3908: 00002ac8     0 NOTYPE  LOCAL  DEFAULT  899 .L0 
  3909: 00002c38     0 NOTYPE  LOCAL  DEFAULT  899 .L0 
  3910: 00002c58     0 NOTYPE  LOCAL  DEFAULT  899 .L0 
  3911: 00002a38     0 NOTYPE  LOCAL  DEFAULT  899 .L0 
  3912: 00002b10     0 NOTYPE  LOCAL  DEFAULT  899 .L0 
  3913: 00002b28     0 NOTYPE  LOCAL  DEFAULT  899 .L0 
  3914: 000019f8     0 NOTYPE  LOCAL  DEFAULT  898 $d
  3915: 00002a38     0 NOTYPE  LOCAL  DEFAULT  899 $d
  3916: 000948bf     0 NOTYPE  LOCAL  DEFAULT  900 $d
  3917: 0000005e     0 NOTYPE  LOCAL  DEFAULT  901 $d
  3918: 00000000     0 NOTYPE  LOCAL  DEFAULT  ABS $d
  3919: 000049cc     0 NOTYPE  LOCAL  DEFAULT  903 .L0 
  3920: 000049cc     0 NOTYPE  LOCAL  DEFAULT  903 $d
  3921: 0000bf1f     0 NOTYPE  LOCAL  DEFAULT  904 $d
  3922: 8020affc    16 FUNC    LOCAL  HIDDEN   314 _RNvMs1z_NtNtCsakCY22H5bhg_4core3num11niche_typesNtB6_14UsizeNoHighBit13new_uncheckedCsevzKAMQQtOE_5alloc
  3923: 8020b00c    16 FUNC    LOCAL  HIDDEN   315 _RNvMs1z_NtNtCsakCY22H5bhg_4core3num11niche_typesNtB6_14UsizeNoHighBit8as_innerCsevzKAMQQtOE_5alloc
  3924: 00000000     0 FILE    LOCAL  DEFAULT  ABS alloc.a8ffb13cea69265a-cgu.3
  3925: 8020b350     0 NOTYPE  LOCAL  DEFAULT  328 .L0 
  3926: 8020b350     0 NOTYPE  LOCAL  DEFAULT  328 .L0 
  3927: 8020b350     0 NOTYPE  LOCAL  DEFAULT  328 $x
  3928: 8020b350     0 NOTYPE  LOCAL  DEFAULT  328 .L0 
  3929: 8020b37c     0 NOTYPE  LOCAL  DEFAULT  328 .L0 
  3930: 8020b3b4     0 NOTYPE  LOCAL  DEFAULT  328 .L0 
  3931: 8020b3b4     0 NOTYPE  LOCAL  DEFAULT  329 .L0 
  3932: 8020b3b4     0 NOTYPE  LOCAL  DEFAULT  329 .L0 
  3933: 8020b3b4     0 NOTYPE  LOCAL  DEFAULT  329 $x
  3934: 8020b3b4     0 NOTYPE  LOCAL  DEFAULT  329 .L0 
  3935: 8020b3fc     0 NOTYPE  LOCAL  DEFAULT  329 .L0 
  3936: 8020b44c     0 NOTYPE  LOCAL  DEFAULT  329 .L0 
  3937: 8020bb9c    72 FUNC    LOCAL  DEFAULT  340 _RNvMNtNtCsakCY22H5bhg_4core3mem9alignmentNtB2_9Alignment13new_uncheckedCsevzKAMQQtOE_5alloc
  3938: 8020b44c     0 NOTYPE  LOCAL  DEFAULT  330 .L0 
  3939: 8020b44c     0 NOTYPE  LOCAL  DEFAULT  330 .L0 
  3940: 8020b44c     0 NOTYPE  LOCAL  DEFAULT  330 $x
  3941: 8020b44c     0 NOTYPE  LOCAL  DEFAULT  330 .L0 
  3942: 8020b468     0 NOTYPE  LOCAL  DEFAULT  330 .L0 
  3943: 8020b480     0 NOTYPE  LOCAL  DEFAULT  330 .L0 
  3944: 80220c28    16 OBJECT  LOCAL  DEFAULT  892 .Lanon.c8d950dfd1b2ec950ec8ae6bf4f0db54.18
  3945: 8020b4a8     0 NOTYPE  LOCAL  DEFAULT  330 .L0 
  3946: 8020b4a8     0 NOTYPE  LOCAL  DEFAULT  331 .L0 
  3947: 8020b4a8     0 NOTYPE  LOCAL  DEFAULT  331 .L0 
  3948: 8020b4a8     0 NOTYPE  LOCAL  DEFAULT  331 $x
  3949: 8020b4a8     0 NOTYPE  LOCAL  DEFAULT  331 .L0 
  3950: 8020b4d0     0 NOTYPE  LOCAL  DEFAULT  331 .L0 
  3951: 8020b4d0     0 NOTYPE  LOCAL  DEFAULT  332 .L0 
  3952: 8020b4d0     0 NOTYPE  LOCAL  DEFAULT  332 .L0 
  3953: 8020b4d0     0 NOTYPE  LOCAL  DEFAULT  332 $x
  3954: 8020b4d0     0 NOTYPE  LOCAL  DEFAULT  332 .L0 
  3955: 8020b4f0     0 NOTYPE  LOCAL  DEFAULT  332 .L0 
  3956: 8020b4f0     0 NOTYPE  LOCAL  DEFAULT  333 .L0 
  3957: 8020b4f0     0 NOTYPE  LOCAL  DEFAULT  333 .L0 
  3958: 8020b4f0     0 NOTYPE  LOCAL  DEFAULT  333 $x
  3959: 8020b4f0     0 NOTYPE  LOCAL  DEFAULT  333 .L0 
  3960: 8020b510     0 NOTYPE  LOCAL  DEFAULT  333 .L0 
  3961: 8020b510    68 FUNC    LOCAL  DEFAULT  334 _RNvMNtCsevzKAMQQtOE_5alloc5allocNtB2_6Global10alloc_implB4_
  3962: 8020b510     0 NOTYPE  LOCAL  DEFAULT  334 .L0 
  3963: 8020b510     0 NOTYPE  LOCAL  DEFAULT  334 .L0 
  3964: 8020b510     0 NOTYPE  LOCAL  DEFAULT  334 $x
  3965: 8020b510     0 NOTYPE  LOCAL  DEFAULT  334 .L0 
  3966: 8020b9c0   284 FUNC    LOCAL  DEFAULT  337 _RNvMNtCsevzKAMQQtOE_5alloc5allocNtB2_6Global18alloc_impl_runtimeB4_
  3967: 8020b554     0 NOTYPE  LOCAL  DEFAULT  334 .L0 
  3968: 8020b554    68 FUNC    LOCAL  DEFAULT  335 _RNvMNtCsevzKAMQQtOE_5alloc5allocNtB2_6Global15deallocate_implB4_
  3969: 8020b554     0 NOTYPE  LOCAL  DEFAULT  335 .L0 
  3970: 8020b554     0 NOTYPE  LOCAL  DEFAULT  335 .L0 
  3971: 8020b554     0 NOTYPE  LOCAL  DEFAULT  335 $x
  3972: 8020b554     0 NOTYPE  LOCAL  DEFAULT  335 .L0 
  3973: 8020badc    80 FUNC    LOCAL  DEFAULT  338 _RNvMNtCsevzKAMQQtOE_5alloc5allocNtB2_6Global23deallocate_impl_runtimeB4_
  3974: 8020b598     0 NOTYPE  LOCAL  DEFAULT  335 .L0 
  3975: 8020b598  1064 FUNC    LOCAL  DEFAULT  336 _RNvMNtCsevzKAMQQtOE_5alloc5allocNtB2_6Global17grow_impl_runtimeB4_
  3976: 8020b598     0 NOTYPE  LOCAL  DEFAULT  336 .L0 
  3977: 8020b598     0 NOTYPE  LOCAL  DEFAULT  336 .L0 
  3978: 8020b598     0 NOTYPE  LOCAL  DEFAULT  336 $x
  3979: 8020b598     0 NOTYPE  LOCAL  DEFAULT  336 .L0 
  3980: 80220c38    72 OBJECT  LOCAL  DEFAULT  892 .Lanon.c8d950dfd1b2ec950ec8ae6bf4f0db54.19
  3981: 80220c80    16 OBJECT  LOCAL  DEFAULT  892 .Lanon.c8d950dfd1b2ec950ec8ae6bf4f0db54.20
  3982: 8020b6b0     0 NOTYPE  LOCAL  DEFAULT  336 .L0 
  3983: 8020b6e0     0 NOTYPE  LOCAL  DEFAULT  336 .L0 
  3984: 8020b6e4     0 NOTYPE  LOCAL  DEFAULT  336 .L0 
  3985: 8020b700     0 NOTYPE  LOCAL  DEFAULT  336 .L0 
  3986: 8020b720     0 NOTYPE  LOCAL  DEFAULT  336 .L0 
  3987: 80220ca0    16 OBJECT  LOCAL  DEFAULT  892 .Lanon.c8d950dfd1b2ec950ec8ae6bf4f0db54.22
  3988: 8020c1f8   104 FUNC    LOCAL  DEFAULT  361 _RNvNtCsevzKAMQQtOE_5alloc5alloc15realloc_nonnullB3_
  3989: 8020b770     0 NOTYPE  LOCAL  DEFAULT  336 .L0 
  3990: 8020b798     0 NOTYPE  LOCAL  DEFAULT  336 .L0 
  3991: 80220c90    16 OBJECT  LOCAL  DEFAULT  892 .Lanon.c8d950dfd1b2ec950ec8ae6bf4f0db54.21
  3992: 8020b7d4     0 NOTYPE  LOCAL  DEFAULT  336 .L0 
  3993: 8020b800     0 NOTYPE  LOCAL  DEFAULT  336 .L0 
  3994: 80220c18    16 OBJECT  LOCAL  DEFAULT  892 .Lanon.c8d950dfd1b2ec950ec8ae6bf4f0db54.11
  3995: 8020b874     0 NOTYPE  LOCAL  DEFAULT  336 .L0 
  3996: 8020b878     0 NOTYPE  LOCAL  DEFAULT  336 .L0 
  3997: 80220cd0    16 OBJECT  LOCAL  DEFAULT  892 .Lanon.c8d950dfd1b2ec950ec8ae6bf4f0db54.26
  3998: 8020b8a4     0 NOTYPE  LOCAL  DEFAULT  336 .L0 
  3999: 8020b8c8     0 NOTYPE  LOCAL  DEFAULT  336 .L0 
  4000: 8020b8d0     0 NOTYPE  LOCAL  DEFAULT  336 .L0 
  4001: 8020b8e0     0 NOTYPE  LOCAL  DEFAULT  336 .L0 
  4002: 80220cb0    16 OBJECT  LOCAL  DEFAULT  892 .Lanon.c8d950dfd1b2ec950ec8ae6bf4f0db54.23
  4003: 8020b95c     0 NOTYPE  LOCAL  DEFAULT  336 .L0 
  4004: 80220c08    16 OBJECT  LOCAL  DEFAULT  892 .Lanon.c8d950dfd1b2ec950ec8ae6bf4f0db54.10
  4005: 8020c7e4   108 FUNC    LOCAL  DEFAULT  372 _RNvNvNtCsakCY22H5bhg_4core3ptr11write_bytes18precondition_checkCsevzKAMQQtOE_5alloc
  4006: 80220cc0    16 OBJECT  LOCAL  DEFAULT  892 .Lanon.c8d950dfd1b2ec950ec8ae6bf4f0db54.24
  4007: 8020b9c0     0 NOTYPE  LOCAL  DEFAULT  336 .L0 
  4008: 8020b9c0     0 NOTYPE  LOCAL  DEFAULT  336 .L0 
  4009: 8020b9c0     0 NOTYPE  LOCAL  DEFAULT  337 .L0 
  4010: 8020b9c0     0 NOTYPE  LOCAL  DEFAULT  337 .L0 
  4011: 8020b9c0     0 NOTYPE  LOCAL  DEFAULT  337 $x
  4012: 8020b9c0     0 NOTYPE  LOCAL  DEFAULT  337 .L0 
  4013: 8020ba24     0 NOTYPE  LOCAL  DEFAULT  337 .L0 
  4014: 8020ba30     0 NOTYPE  LOCAL  DEFAULT  337 .L0 
  4015: 8020ba44     0 NOTYPE  LOCAL  DEFAULT  337 .L0 
  4016: 8020c274    88 FUNC    LOCAL  DEFAULT  363 _RNvNtCsevzKAMQQtOE_5alloc5alloc5allocB3_
  4017: 8020c144    88 FUNC    LOCAL  DEFAULT  359 _RNvNtCsevzKAMQQtOE_5alloc5alloc12alloc_zeroedB3_
  4018: 8020ba74     0 NOTYPE  LOCAL  DEFAULT  337 .L0 
  4019: 8020baa0     0 NOTYPE  LOCAL  DEFAULT  337 .L0 
  4020: 80220ce0    16 OBJECT  LOCAL  DEFAULT  892 .Lanon.c8d950dfd1b2ec950ec8ae6bf4f0db54.27
  4021: 8020bac8     0 NOTYPE  LOCAL  DEFAULT  337 .L0 
  4022: 8020bad8     0 NOTYPE  LOCAL  DEFAULT  337 .L0 
  4023: 8020badc     0 NOTYPE  LOCAL  DEFAULT  337 .L0 
  4024: 8020badc     0 NOTYPE  LOCAL  DEFAULT  338 .L0 
  4025: 8020badc     0 NOTYPE  LOCAL  DEFAULT  338 .L0 
  4026: 8020badc     0 NOTYPE  LOCAL  DEFAULT  338 $x
  4027: 8020badc     0 NOTYPE  LOCAL  DEFAULT  338 .L0 
  4028: 8020c19c    92 FUNC    LOCAL  DEFAULT  360 _RNvNtCsevzKAMQQtOE_5alloc5alloc15dealloc_nonnullB3_
  4029: 8020bb2c     0 NOTYPE  LOCAL  DEFAULT  338 .L0 
  4030: 8020bb2c   112 FUNC    LOCAL  DEFAULT  339 _RNvMNtCsevzKAMQQtOE_5alloc5allocNtB2_6Global9grow_implB4_
  4031: 8020bb2c     0 NOTYPE  LOCAL  DEFAULT  339 .L0 
  4032: 8020bb2c     0 NOTYPE  LOCAL  DEFAULT  339 .L0 
  4033: 8020bb2c     0 NOTYPE  LOCAL  DEFAULT  339 $x
  4034: 8020bb2c     0 NOTYPE  LOCAL  DEFAULT  339 .L0 
  4035: 8020bb9c     0 NOTYPE  LOCAL  DEFAULT  339 .L0 
  4036: 8020bb9c     0 NOTYPE  LOCAL  DEFAULT  340 .L0 
  4037: 8020bb9c     0 NOTYPE  LOCAL  DEFAULT  340 .L0 
  4038: 8020bb9c     0 NOTYPE  LOCAL  DEFAULT  340 $x
  4039: 8020bb9c     0 NOTYPE  LOCAL  DEFAULT  340 .L0 
  4040: 8020c5fc   192 FUNC    LOCAL  DEFAULT  367 _RNvNvMNtNtCsakCY22H5bhg_4core3mem9alignmentNtB4_9Alignment13new_unchecked18precondition_checkCsevzKAMQQtOE_5alloc
  4041: 8020bbe4     0 NOTYPE  LOCAL  DEFAULT  340 .L0 
  4042: 8020bbe4     0 NOTYPE  LOCAL  DEFAULT  341 .L0 
  4043: 8020bbe4     0 NOTYPE  LOCAL  DEFAULT  341 .L0 
  4044: 8020bbe4     0 NOTYPE  LOCAL  DEFAULT  341 $x
  4045: 8020bbe4     0 NOTYPE  LOCAL  DEFAULT  341 .L0 
  4046: 8020bbf4     0 NOTYPE  LOCAL  DEFAULT  341 .L0 
  4047: 8020bbf4     0 NOTYPE  LOCAL  DEFAULT  342 .L0 
  4048: 8020bbf4     0 NOTYPE  LOCAL  DEFAULT  342 .L0 
  4049: 8020bbf4     0 NOTYPE  LOCAL  DEFAULT  342 $x
  4050: 8020bbf4     0 NOTYPE  LOCAL  DEFAULT  342 .L0 
  4051: 8020bc0c     0 NOTYPE  LOCAL  DEFAULT  342 .L0 
  4052: 80220cf0    16 OBJECT  LOCAL  DEFAULT  892 .Lanon.c8d950dfd1b2ec950ec8ae6bf4f0db54.33
  4053: 8020bca8     0 NOTYPE  LOCAL  DEFAULT  342 .L0 
  4054: 8020bca8     0 NOTYPE  LOCAL  DEFAULT  343 .L0 
  4055: 8020bca8     0 NOTYPE  LOCAL  DEFAULT  343 .L0 
  4056: 8020bca8     0 NOTYPE  LOCAL  DEFAULT  343 $x
  4057: 8020bca8     0 NOTYPE  LOCAL  DEFAULT  343 .L0 
  4058: 8020bcd0     0 NOTYPE  LOCAL  DEFAULT  343 .L0 
  4059: 8020bcd0     0 NOTYPE  LOCAL  DEFAULT  344 .L0 
  4060: 8020bcd0     0 NOTYPE  LOCAL  DEFAULT  344 .L0 
  4061: 8020bcd0     0 NOTYPE  LOCAL  DEFAULT  344 $x
  4062: 8020bcd0     0 NOTYPE  LOCAL  DEFAULT  344 .L0 
  4063: 8020bcf4     0 NOTYPE  LOCAL  DEFAULT  344 .L0 
  4064: 8020bcf4     0 NOTYPE  LOCAL  DEFAULT  345 .L0 
  4065: 8020bcf4     0 NOTYPE  LOCAL  DEFAULT  345 .L0 
  4066: 8020bcf4     0 NOTYPE  LOCAL  DEFAULT  345 $x
  4067: 8020bcf4     0 NOTYPE  LOCAL  DEFAULT  345 .L0 
  4068: 8020bd18     0 NOTYPE  LOCAL  DEFAULT  345 .L0 
  4069: 8020bd18     0 NOTYPE  LOCAL  DEFAULT  346 .L0 
  4070: 8020bd18     0 NOTYPE  LOCAL  DEFAULT  346 .L0 
  4071: 8020bd18     0 NOTYPE  LOCAL  DEFAULT  346 $x
  4072: 8020bd18     0 NOTYPE  LOCAL  DEFAULT  346 .L0 
  4073: 8020bd44     0 NOTYPE  LOCAL  DEFAULT  346 .L0 
  4074: 8020bd9c     0 NOTYPE  LOCAL  DEFAULT  346 .L0 
  4075: 8020bd9c     0 NOTYPE  LOCAL  DEFAULT  347 .L0 
  4076: 8020bd9c     0 NOTYPE  LOCAL  DEFAULT  347 .L0 
  4077: 8020bd9c     0 NOTYPE  LOCAL  DEFAULT  347 $x
  4078: 8020bd9c     0 NOTYPE  LOCAL  DEFAULT  347 .L0 
  4079: 8020bdac     0 NOTYPE  LOCAL  DEFAULT  347 .L0 
  4080: 8020c768    28 FUNC    LOCAL  DEFAULT  370 _RNvNvMNtNtCsakCY22H5bhg_4core3ptr9const_ptrPp7is_null7runtimeCsevzKAMQQtOE_5alloc
  4081: 8020bdc0     0 NOTYPE  LOCAL  DEFAULT  347 .L0 
  4082: 8020bdc0     0 NOTYPE  LOCAL  DEFAULT  348 .L0 
  4083: 8020bdc0     0 NOTYPE  LOCAL  DEFAULT  348 .L0 
  4084: 8020bdc0     0 NOTYPE  LOCAL  DEFAULT  348 $x
  4085: 8020bdc0     0 NOTYPE  LOCAL  DEFAULT  348 .L0 
  4086: 8020c588   116 FUNC    LOCAL  DEFAULT  366 _RNvNtNtCsakCY22H5bhg_4core4char7methods8len_utf8CsevzKAMQQtOE_5alloc
  4087: 8020bde0     0 NOTYPE  LOCAL  DEFAULT  348 .L0 
  4088: 8020bde0     0 NOTYPE  LOCAL  DEFAULT  349 .L0 
  4089: 8020bde0     0 NOTYPE  LOCAL  DEFAULT  349 .L0 
  4090: 8020bde0     0 NOTYPE  LOCAL  DEFAULT  349 $x
  4091: 8020bde0     0 NOTYPE  LOCAL  DEFAULT  349 .L0 
  4092: 8020be40     0 NOTYPE  LOCAL  DEFAULT  349 .L0 
  4093: 8020be40     0 NOTYPE  LOCAL  DEFAULT  350 .L0 
  4094: 8020be40     0 NOTYPE  LOCAL  DEFAULT  350 .L0 
  4095: 8020be40     0 NOTYPE  LOCAL  DEFAULT  350 $x
  4096: 8020be40     0 NOTYPE  LOCAL  DEFAULT  350 .L0 
  4097: 8020be8c     0 NOTYPE  LOCAL  DEFAULT  350 .L0 
  4098: 8020be8c     0 NOTYPE  LOCAL  DEFAULT  351 .L0 
  4099: 8020be8c     0 NOTYPE  LOCAL  DEFAULT  351 .L0 
  4100: 8020be8c     0 NOTYPE  LOCAL  DEFAULT  351 $x
  4101: 8020be8c     0 NOTYPE  LOCAL  DEFAULT  351 .L0 
  4102: 8020beac     0 NOTYPE  LOCAL  DEFAULT  351 .L0 
  4103: 8020beac     0 NOTYPE  LOCAL  DEFAULT  352 .L0 
  4104: 8020beac     0 NOTYPE  LOCAL  DEFAULT  352 .L0 
  4105: 8020beac     0 NOTYPE  LOCAL  DEFAULT  352 $x
  4106: 8020beac     0 NOTYPE  LOCAL  DEFAULT  352 .L0 
  4107: 8020befc     0 NOTYPE  LOCAL  DEFAULT  352 .L0 
  4108: 8020bf24     0 NOTYPE  LOCAL  DEFAULT  352 .L0 
  4109: 8020bf6c     0 NOTYPE  LOCAL  DEFAULT  352 .L0 
  4110: 80220d00    16 OBJECT  LOCAL  DEFAULT  892 .Lanon.c8d950dfd1b2ec950ec8ae6bf4f0db54.42
  4111: 8020bfc0     0 NOTYPE  LOCAL  DEFAULT  352 .L0 
  4112: 8020c01c     0 NOTYPE  LOCAL  DEFAULT  352 .L0 
  4113: 8020c028     0 NOTYPE  LOCAL  DEFAULT  352 .L0 
  4114: 80220d10    16 OBJECT  LOCAL  DEFAULT  892 .Lanon.c8d950dfd1b2ec950ec8ae6bf4f0db54.43
  4115: 8020c038     0 NOTYPE  LOCAL  DEFAULT  352 .L0 
  4116: 8020c038     0 NOTYPE  LOCAL  DEFAULT  352 .L0 
  4117: 8020c038     0 NOTYPE  LOCAL  DEFAULT  353 .L0 
  4118: 8020c038     0 NOTYPE  LOCAL  DEFAULT  353 .L0 
  4119: 8020c038     0 NOTYPE  LOCAL  DEFAULT  353 $x
  4120: 8020c038     0 NOTYPE  LOCAL  DEFAULT  353 .L0 
  4121: 8020c050     0 NOTYPE  LOCAL  DEFAULT  353 .L0 
  4122: 8020c050     0 NOTYPE  LOCAL  DEFAULT  354 .L0 
  4123: 8020c050     0 NOTYPE  LOCAL  DEFAULT  354 .L0 
  4124: 8020c050     0 NOTYPE  LOCAL  DEFAULT  354 $x
  4125: 8020c050     0 NOTYPE  LOCAL  DEFAULT  354 .L0 
  4126: 8020c070     0 NOTYPE  LOCAL  DEFAULT  354 .L0 
  4127: 8020c070     0 NOTYPE  LOCAL  DEFAULT  355 .L0 
  4128: 8020c070     0 NOTYPE  LOCAL  DEFAULT  355 .L0 
  4129: 8020c070     0 NOTYPE  LOCAL  DEFAULT  355 $x
  4130: 8020c070     0 NOTYPE  LOCAL  DEFAULT  355 .L0 
  4131: 8020c09c     0 NOTYPE  LOCAL  DEFAULT  355 .L0 
  4132: 8020c09c     0 NOTYPE  LOCAL  DEFAULT  356 .L0 
  4133: 8020c09c     0 NOTYPE  LOCAL  DEFAULT  356 .L0 
  4134: 8020c09c     0 NOTYPE  LOCAL  DEFAULT  356 $x
  4135: 8020c09c     0 NOTYPE  LOCAL  DEFAULT  356 .L0 
  4136: 80220d20    16 OBJECT  LOCAL  DEFAULT  892 .Lanon.c8d950dfd1b2ec950ec8ae6bf4f0db54.53
  4137: 8020c784    96 FUNC    LOCAL  DEFAULT  371 _RNvNvMs_NtCsevzKAMQQtOE_5alloc3vecINtB6_3VecppE7set_len18precondition_checkB8_
  4138: 8020c0f8     0 NOTYPE  LOCAL  DEFAULT  356 .L0 
  4139: 8020c0f8     0 NOTYPE  LOCAL  DEFAULT  357 .L0 
  4140: 8020c0f8     0 NOTYPE  LOCAL  DEFAULT  357 .L0 
  4141: 8020c0f8     0 NOTYPE  LOCAL  DEFAULT  357 $x
  4142: 8020c0f8     0 NOTYPE  LOCAL  DEFAULT  357 .L0 
  4143: 8020c124     0 NOTYPE  LOCAL  DEFAULT  357 .L0 
  4144: 8020c124     0 NOTYPE  LOCAL  DEFAULT  358 .L0 
  4145: 8020c124     0 NOTYPE  LOCAL  DEFAULT  358 .L0 
  4146: 8020c124     0 NOTYPE  LOCAL  DEFAULT  358 $x
  4147: 8020c124     0 NOTYPE  LOCAL  DEFAULT  358 .L0 
  4148: 8020c144     0 NOTYPE  LOCAL  DEFAULT  358 .L0 
  4149: 8020c144     0 NOTYPE  LOCAL  DEFAULT  359 .L0 
  4150: 8020c144     0 NOTYPE  LOCAL  DEFAULT  359 .L0 
  4151: 8020c144     0 NOTYPE  LOCAL  DEFAULT  359 $x
  4152: 8020c144     0 NOTYPE  LOCAL  DEFAULT  359 .L0 
  4153: 8020c19c     0 NOTYPE  LOCAL  DEFAULT  359 .L0 
  4154: 8020c19c     0 NOTYPE  LOCAL  DEFAULT  360 .L0 
  4155: 8020c19c     0 NOTYPE  LOCAL  DEFAULT  360 .L0 
  4156: 8020c19c     0 NOTYPE  LOCAL  DEFAULT  360 $x
  4157: 8020c19c     0 NOTYPE  LOCAL  DEFAULT  360 .L0 
  4158: 8020c1f8     0 NOTYPE  LOCAL  DEFAULT  360 .L0 
  4159: 8020c1f8     0 NOTYPE  LOCAL  DEFAULT  361 .L0 
  4160: 8020c1f8     0 NOTYPE  LOCAL  DEFAULT  361 .L0 
  4161: 8020c1f8     0 NOTYPE  LOCAL  DEFAULT  361 $x
  4162: 8020c1f8     0 NOTYPE  LOCAL  DEFAULT  361 .L0 
  4163: 8020c260     0 NOTYPE  LOCAL  DEFAULT  361 .L0 
  4164: 8020c260     0 NOTYPE  LOCAL  DEFAULT  362 .L0 
  4165: 8020c260     0 NOTYPE  LOCAL  DEFAULT  362 .L0 
  4166: 8020c260     0 NOTYPE  LOCAL  DEFAULT  362 $x
  4167: 8020c260     0 NOTYPE  LOCAL  DEFAULT  362 .L0 
  4168: 8020c9f0    68 FUNC    LOCAL  DEFAULT  375 _RNvNvNtCsevzKAMQQtOE_5alloc5alloc18handle_alloc_error8rt_errorB5_
  4169: 8020c274     0 NOTYPE  LOCAL  DEFAULT  362 .L0 
  4170: 8020c274     0 NOTYPE  LOCAL  DEFAULT  363 .L0 
  4171: 8020c274     0 NOTYPE  LOCAL  DEFAULT  363 .L0 
  4172: 8020c274     0 NOTYPE  LOCAL  DEFAULT  363 $x
  4173: 8020c274     0 NOTYPE  LOCAL  DEFAULT  363 .L0 
  4174: 8020c2cc     0 NOTYPE  LOCAL  DEFAULT  363 .L0 
  4175: 8020c2cc     0 NOTYPE  LOCAL  DEFAULT  364 .L0 
  4176: 8020c2cc     0 NOTYPE  LOCAL  DEFAULT  364 .L0 
  4177: 8020c2cc     0 NOTYPE  LOCAL  DEFAULT  364 $x
  4178: 8020c2cc     0 NOTYPE  LOCAL  DEFAULT  364 .L0 
  4179: 8020c2e0     0 NOTYPE  LOCAL  DEFAULT  364 .L0 
  4180: 8020c2e0     0 NOTYPE  LOCAL  DEFAULT  365 .L0 
  4181: 8020c2e0     0 NOTYPE  LOCAL  DEFAULT  365 .L0 
  4182: 8020c2e0     0 NOTYPE  LOCAL  DEFAULT  365 $x
  4183: 8020c2e0     0 NOTYPE  LOCAL  DEFAULT  365 .L0 
  4184: 8020c310     0 NOTYPE  LOCAL  DEFAULT  365 .L0 
  4185: 8020c330     0 NOTYPE  LOCAL  DEFAULT  365 .L0 
  4186: 8020c344     0 NOTYPE  LOCAL  DEFAULT  365 .L0 
  4187: 8020c358     0 NOTYPE  LOCAL  DEFAULT  365 .L0 
  4188: 8020c36c     0 NOTYPE  LOCAL  DEFAULT  365 .L0 
  4189: 8020c374     0 NOTYPE  LOCAL  DEFAULT  365 .L0 
  4190: 8020c38c     0 NOTYPE  LOCAL  DEFAULT  365 .L0 
  4191: 8020c3b0     0 NOTYPE  LOCAL  DEFAULT  365 .L0 
  4192: 80220d80    16 OBJECT  LOCAL  DEFAULT  892 .Lanon.c8d950dfd1b2ec950ec8ae6bf4f0db54.74
  4193: 8020c408     0 NOTYPE  LOCAL  DEFAULT  365 .L0 
  4194: 80220d30    16 OBJECT  LOCAL  DEFAULT  892 .Lanon.c8d950dfd1b2ec950ec8ae6bf4f0db54.69
  4195: 8020c450     0 NOTYPE  LOCAL  DEFAULT  365 .L0 
  4196: 80220d40    16 OBJECT  LOCAL  DEFAULT  892 .Lanon.c8d950dfd1b2ec950ec8ae6bf4f0db54.70
  4197: 8020c498     0 NOTYPE  LOCAL  DEFAULT  365 .L0 
  4198: 80220d50    16 OBJECT  LOCAL  DEFAULT  892 .Lanon.c8d950dfd1b2ec950ec8ae6bf4f0db54.71
  4199: 8020c4d4     0 NOTYPE  LOCAL  DEFAULT  365 .L0 
  4200: 8020c4e0     0 NOTYPE  LOCAL  DEFAULT  365 .L0 
  4201: 8020c4f4     0 NOTYPE  LOCAL  DEFAULT  365 .L0 
  4202: 80220d60    16 OBJECT  LOCAL  DEFAULT  892 .Lanon.c8d950dfd1b2ec950ec8ae6bf4f0db54.72
  4203: 8020c53c     0 NOTYPE  LOCAL  DEFAULT  365 .L0 
  4204: 80220d70    16 OBJECT  LOCAL  DEFAULT  892 .Lanon.c8d950dfd1b2ec950ec8ae6bf4f0db54.73
  4205: 8020c57c     0 NOTYPE  LOCAL  DEFAULT  365 .L0 
  4206: 8020c588     0 NOTYPE  LOCAL  DEFAULT  365 .L0 
  4207: 8020c588     0 NOTYPE  LOCAL  DEFAULT  366 .L0 
  4208: 8020c588     0 NOTYPE  LOCAL  DEFAULT  366 .L0 
  4209: 8020c588     0 NOTYPE  LOCAL  DEFAULT  366 $x
  4210: 8020c588     0 NOTYPE  LOCAL  DEFAULT  366 .L0 
  4211: 8020c5fc     0 NOTYPE  LOCAL  DEFAULT  366 .L0 
  4212: 8020c5fc     0 NOTYPE  LOCAL  DEFAULT  367 .L0 
  4213: 8020c5fc     0 NOTYPE  LOCAL  DEFAULT  367 .L0 
  4214: 8020c5fc     0 NOTYPE  LOCAL  DEFAULT  367 $x
  4215: 8020c5fc     0 NOTYPE  LOCAL  DEFAULT  367 .L0 
  4216: 8020c60c     0 NOTYPE  LOCAL  DEFAULT  367 .L0 
  4217: 80220d90   198 OBJECT  LOCAL  DEFAULT  892 .Lanon.c8d950dfd1b2ec950ec8ae6bf4f0db54.75
  4218: 8020c628     0 NOTYPE  LOCAL  DEFAULT  367 .L0 
  4219: 8020c68c     0 NOTYPE  LOCAL  DEFAULT  367 .L0 
  4220: 8020c6b0     0 NOTYPE  LOCAL  DEFAULT  367 .L0 
  4221: 8020c6bc     0 NOTYPE  LOCAL  DEFAULT  367 .L0 
  4222: 8020c6bc     0 NOTYPE  LOCAL  DEFAULT  368 .L0 
  4223: 8020c6bc     0 NOTYPE  LOCAL  DEFAULT  368 .L0 
  4224: 8020c6bc     0 NOTYPE  LOCAL  DEFAULT  368 $x
  4225: 8020c6bc     0 NOTYPE  LOCAL  DEFAULT  368 .L0 
  4226: 8020c6d4     0 NOTYPE  LOCAL  DEFAULT  368 .L0 
  4227: 80220e56   214 OBJECT  LOCAL  DEFAULT  892 .Lanon.c8d950dfd1b2ec950ec8ae6bf4f0db54.76
  4228: 8020c6e8     0 NOTYPE  LOCAL  DEFAULT  368 .L0 
  4229: 8020c728    64 FUNC    LOCAL  DEFAULT  369 _RNvNvMNtNtCsakCY22H5bhg_4core3ptr7mut_ptrOp3add18runtime_add_nowrapCsevzKAMQQtOE_5alloc
  4230: 8020c6f8     0 NOTYPE  LOCAL  DEFAULT  368 .L0 
  4231: 8020c71c     0 NOTYPE  LOCAL  DEFAULT  368 .L0 
  4232: 8020c728     0 NOTYPE  LOCAL  DEFAULT  368 .L0 
  4233: 8020c728     0 NOTYPE  LOCAL  DEFAULT  369 .L0 
  4234: 8020c728     0 NOTYPE  LOCAL  DEFAULT  369 .L0 
  4235: 8020c728     0 NOTYPE  LOCAL  DEFAULT  369 $x
  4236: 8020c728     0 NOTYPE  LOCAL  DEFAULT  369 .L0 
  4237: 8020ca34   200 FUNC    LOCAL  DEFAULT  376 _RNvNvNvMNtNtCsakCY22H5bhg_4core3ptr7mut_ptrOp3add18runtime_add_nowrap7runtimeCsevzKAMQQtOE_5alloc
  4238: 8020c768     0 NOTYPE  LOCAL  DEFAULT  369 .L0 
  4239: 8020c768     0 NOTYPE  LOCAL  DEFAULT  370 .L0 
  4240: 8020c768     0 NOTYPE  LOCAL  DEFAULT  370 .L0 
  4241: 8020c768     0 NOTYPE  LOCAL  DEFAULT  370 $x
  4242: 8020c768     0 NOTYPE  LOCAL  DEFAULT  370 .L0 
  4243: 8020c784     0 NOTYPE  LOCAL  DEFAULT  370 .L0 
  4244: 8020c784     0 NOTYPE  LOCAL  DEFAULT  371 .L0 
  4245: 8020c784     0 NOTYPE  LOCAL  DEFAULT  371 .L0 
  4246: 8020c784     0 NOTYPE  LOCAL  DEFAULT  371 $x
  4247: 8020c784     0 NOTYPE  LOCAL  DEFAULT  371 .L0 
  4248: 8020c798     0 NOTYPE  LOCAL  DEFAULT  371 .L0 
  4249: 80220f2c   198 OBJECT  LOCAL  DEFAULT  892 .Lanon.c8d950dfd1b2ec950ec8ae6bf4f0db54.84
  4250: 8020c7ac     0 NOTYPE  LOCAL  DEFAULT  371 .L0 
  4251: 8020c7b4     0 NOTYPE  LOCAL  DEFAULT  371 .L0 
  4252: 8020c7d8     0 NOTYPE  LOCAL  DEFAULT  371 .L0 
  4253: 8020c7e4     0 NOTYPE  LOCAL  DEFAULT  371 .L0 
  4254: 8020c7e4     0 NOTYPE  LOCAL  DEFAULT  372 .L0 
  4255: 8020c7e4     0 NOTYPE  LOCAL  DEFAULT  372 .L0 
  4256: 8020c7e4     0 NOTYPE  LOCAL  DEFAULT  372 $x
  4257: 8020c7e4     0 NOTYPE  LOCAL  DEFAULT  372 .L0 
  4258: 8020c7fc     0 NOTYPE  LOCAL  DEFAULT  372 .L0 
  4259: 80220ff2   228 OBJECT  LOCAL  DEFAULT  892 .Lanon.c8d950dfd1b2ec950ec8ae6bf4f0db54.87
  4260: 8020c810     0 NOTYPE  LOCAL  DEFAULT  372 .L0 
  4261: 8020c820     0 NOTYPE  LOCAL  DEFAULT  372 .L0 
  4262: 8020c844     0 NOTYPE  LOCAL  DEFAULT  372 .L0 
  4263: 8020c850     0 NOTYPE  LOCAL  DEFAULT  372 .L0 
  4264: 8020c850     0 NOTYPE  LOCAL  DEFAULT  373 .L0 
  4265: 8020c850     0 NOTYPE  LOCAL  DEFAULT  373 .L0 
  4266: 8020c850     0 NOTYPE  LOCAL  DEFAULT  373 $x
  4267: 8020c850     0 NOTYPE  LOCAL  DEFAULT  373 .L0 
  4268: 8020c884     0 NOTYPE  LOCAL  DEFAULT  373 .L0 
  4269: 802210d6   283 OBJECT  LOCAL  DEFAULT  892 .Lanon.c8d950dfd1b2ec950ec8ae6bf4f0db54.88
  4270: 8020c898     0 NOTYPE  LOCAL  DEFAULT  373 .L0 
  4271: 8020c8c4     0 NOTYPE  LOCAL  DEFAULT  373 .L0 
  4272: 8020c930     0 NOTYPE  LOCAL  DEFAULT  373 .L0 
  4273: 8020c954     0 NOTYPE  LOCAL  DEFAULT  373 .L0 
  4274: 8020c960     0 NOTYPE  LOCAL  DEFAULT  373 .L0 
  4275: 8020c960     0 NOTYPE  LOCAL  DEFAULT  374 .L0 
  4276: 8020c960     0 NOTYPE  LOCAL  DEFAULT  374 .L0 
  4277: 8020c960     0 NOTYPE  LOCAL  DEFAULT  374 $x
  4278: 8020c960     0 NOTYPE  LOCAL  DEFAULT  374 .L0 
  4279: 8020c990     0 NOTYPE  LOCAL  DEFAULT  374 .L0 
  4280: 8020c99c     0 NOTYPE  LOCAL  DEFAULT  374 .L0 
  4281: 802211f1    86 OBJECT  LOCAL  DEFAULT  892 .Lanon.c8d950dfd1b2ec950ec8ae6bf4f0db54.92
  4282: 80221248    16 OBJECT  LOCAL  DEFAULT  892 .Lanon.c8d950dfd1b2ec950ec8ae6bf4f0db54.94
  4283: 8020c9f0     0 NOTYPE  LOCAL  DEFAULT  374 .L0 
  4284: 8020c9f0     0 NOTYPE  LOCAL  DEFAULT  375 .L0 
  4285: 8020c9f0     0 NOTYPE  LOCAL  DEFAULT  375 .L0 
  4286: 8020c9f0     0 NOTYPE  LOCAL  DEFAULT  375 $x
  4287: 8020c9f0     0 NOTYPE  LOCAL  DEFAULT  375 .L0 
  4288: 8020ca34     0 NOTYPE  LOCAL  DEFAULT  375 .L0 
  4289: 8020ca34     0 NOTYPE  LOCAL  DEFAULT  376 .L0 
  4290: 8020ca34     0 NOTYPE  LOCAL  DEFAULT  376 .L0 
  4291: 8020ca34     0 NOTYPE  LOCAL  DEFAULT  376 $x
  4292: 8020ca34     0 NOTYPE  LOCAL  DEFAULT  376 .L0 
  4293: 8020caa0     0 NOTYPE  LOCAL  DEFAULT  376 .L0 
  4294: 8020cab8     0 NOTYPE  LOCAL  DEFAULT  376 .L0 
  4295: 8020cac0     0 NOTYPE  LOCAL  DEFAULT  376 .L0 
  4296: 8020cad0     0 NOTYPE  LOCAL  DEFAULT  376 .L0 
  4297: 8020caec     0 NOTYPE  LOCAL  DEFAULT  376 .L0 
  4298: 8020cafc     0 NOTYPE  LOCAL  DEFAULT  376 .L0 
  4299: 8020cafc     0 NOTYPE  LOCAL  DEFAULT  377 .L0 
  4300: 8020cafc     0 NOTYPE  LOCAL  DEFAULT  377 .L0 
  4301: 8020cafc     0 NOTYPE  LOCAL  DEFAULT  377 $x
  4302: 8020cafc     0 NOTYPE  LOCAL  DEFAULT  377 .L0 
  4303: 8020cb10     0 NOTYPE  LOCAL  DEFAULT  377 .L0 
  4304: 8020cb10     0 NOTYPE  LOCAL  DEFAULT  378 .L0 
  4305: 8020cb10     0 NOTYPE  LOCAL  DEFAULT  378 .L0 
  4306: 8020cb10     0 NOTYPE  LOCAL  DEFAULT  378 $x
  4307: 8020cb10     0 NOTYPE  LOCAL  DEFAULT  378 .L0 
  4308: 8020cb34     0 NOTYPE  LOCAL  DEFAULT  378 .L0 
  4309: 8020cb34     0 NOTYPE  LOCAL  DEFAULT  379 .L0 
  4310: 8020cb34     0 NOTYPE  LOCAL  DEFAULT  379 .L0 
  4311: 8020cb34     0 NOTYPE  LOCAL  DEFAULT  379 $x
  4312: 8020cb34     0 NOTYPE  LOCAL  DEFAULT  379 .L0 
  4313: 8020cb74     0 NOTYPE  LOCAL  DEFAULT  379 .L0 
  4314: 8020cb88     0 NOTYPE  LOCAL  DEFAULT  379 .L0 
  4315: 8020cb88     0 NOTYPE  LOCAL  DEFAULT  380 .L0 
  4316: 8020cb88     0 NOTYPE  LOCAL  DEFAULT  380 .L0 
  4317: 8020cb88     0 NOTYPE  LOCAL  DEFAULT  380 $x
  4318: 8020cb88     0 NOTYPE  LOCAL  DEFAULT  380 .L0 
  4319: 8020cba8     0 NOTYPE  LOCAL  DEFAULT  380 .L0 
  4320: 8020cbd8     0 NOTYPE  LOCAL  DEFAULT  380 .L0 
  4321: 8020cbd8     0 NOTYPE  LOCAL  DEFAULT  381 .L0 
  4322: 8020cbd8     0 NOTYPE  LOCAL  DEFAULT  381 .L0 
  4323: 8020cbd8     0 NOTYPE  LOCAL  DEFAULT  381 $x
  4324: 8020cbd8     0 NOTYPE  LOCAL  DEFAULT  381 .L0 
  4325: 8020cc04     0 NOTYPE  LOCAL  DEFAULT  381 .L0 
  4326: 8020cc04     0 NOTYPE  LOCAL  DEFAULT  382 .L0 
  4327: 8020cc04     0 NOTYPE  LOCAL  DEFAULT  382 .L0 
  4328: 8020cc04     0 NOTYPE  LOCAL  DEFAULT  382 $x
  4329: 8020cc04     0 NOTYPE  LOCAL  DEFAULT  382 .L0 
  4330: 8020cc30     0 NOTYPE  LOCAL  DEFAULT  382 .L0 
  4331: 8020cc30     0 NOTYPE  LOCAL  DEFAULT  383 .L0 
  4332: 8020cc30     0 NOTYPE  LOCAL  DEFAULT  383 .L0 
  4333: 8020cc30     0 NOTYPE  LOCAL  DEFAULT  383 $x
  4334: 8020cc30     0 NOTYPE  LOCAL  DEFAULT  383 .L0 
  4335: 8020cc68     0 NOTYPE  LOCAL  DEFAULT  383 .L0 
  4336: 8020cc68     0 NOTYPE  LOCAL  DEFAULT  384 .L0 
  4337: 8020cc68     0 NOTYPE  LOCAL  DEFAULT  384 .L0 
  4338: 8020cc68     0 NOTYPE  LOCAL  DEFAULT  384 $x
  4339: 8020cc68     0 NOTYPE  LOCAL  DEFAULT  384 .L0 
  4340: 8020cc94     0 NOTYPE  LOCAL  DEFAULT  384 .L0 
  4341: 8020cc94     0 NOTYPE  LOCAL  DEFAULT  385 .L0 
  4342: 8020cc94     0 NOTYPE  LOCAL  DEFAULT  385 .L0 
  4343: 8020cc94     0 NOTYPE  LOCAL  DEFAULT  385 $x
  4344: 8020cc94     0 NOTYPE  LOCAL  DEFAULT  385 .L0 
  4345: 8020ccc8     0 NOTYPE  LOCAL  DEFAULT  385 .L0 
  4346: 8021e7f1     0 NOTYPE  LOCAL  DEFAULT  892 $d
  4347: 80220c08     0 NOTYPE  LOCAL  DEFAULT  892 $d
  4348: 80220c18     0 NOTYPE  LOCAL  DEFAULT  892 $d
  4349: 80220c28     0 NOTYPE  LOCAL  DEFAULT  892 $d
  4350: 80220c38     0 NOTYPE  LOCAL  DEFAULT  892 $d
  4351: 80220c80     0 NOTYPE  LOCAL  DEFAULT  892 $d
  4352: 80220c90     0 NOTYPE  LOCAL  DEFAULT  892 $d
  4353: 80220ca0     0 NOTYPE  LOCAL  DEFAULT  892 $d
  4354: 80220cb0     0 NOTYPE  LOCAL  DEFAULT  892 $d
  4355: 80220cc0     0 NOTYPE  LOCAL  DEFAULT  892 $d
  4356: 80220cd0     0 NOTYPE  LOCAL  DEFAULT  892 $d
  4357: 80220ce0     0 NOTYPE  LOCAL  DEFAULT  892 $d
  4358: 80220cf0     0 NOTYPE  LOCAL  DEFAULT  892 $d
  4359: 80220d00     0 NOTYPE  LOCAL  DEFAULT  892 $d
  4360: 80220d10     0 NOTYPE  LOCAL  DEFAULT  892 $d
  4361: 80220d20     0 NOTYPE  LOCAL  DEFAULT  892 $d
